
========================================================================

** ELF Header Information

    File Name: F103_Moduel\F103_Moduel.axf

    Machine class: ELFCLASS32 (32-bit)
    Data encoding: ELFDATA2LSB (Little endian)
    Header version: EV_CURRENT (Current version)
    Operating System ABI: none
    ABI Version: 0
    File Type: ET_EXEC (Executable) (2)
    Machine: EM_ARM (ARM)

    Image Entry point: 0x08000131
    Flags: EF_ARM_HASENTRY + EF_ARM_ABI_FLOAT_SOFT (0x05000202)

    ARM ELF revision: 5 (ABI version 2)

    Conforms to Soft float procedure-call standard

    Built with
    Component: ARM Compiler 5.06 update 7 (build 960) Tool: armasm [4d35fa]
    Component: ARM Compiler 5.06 update 7 (build 960) Tool: armlink [4d3601]

    Header size: 52 bytes (0x34)
    Program header entry size: 32 bytes (0x20)
    Section header entry size: 40 bytes (0x28)

    Program header entries: 1
    Section header entries: 16

    Program header offset: 1010560 (0x000f6b80)
    Section header offset: 1010592 (0x000f6ba0)

    Section header string table index: 15

========================================================================

** Program header #0 (PT_LOAD) [PF_X + PF_W + PF_R + PF_ARM_ENTRY]
    Size : 82468 bytes (33796 bytes in file)
    Virtual address: 0x08000000 (Alignment 8)


========================================================================

** Section #1 'ER_IROM1' (SHT_PROGBITS) [SHF_ALLOC + SHF_EXECINSTR]
    Size   : 33612 bytes (alignment 4)
    Address: 0x08000000

    $d.realdata
    RESET
    __Vectors
        0x08000000:    2000bed8    ...     DCD    536919768
        0x08000004:    080001e1    ....    DCD    134218209
        0x08000008:    080027c5    .'..    DCD    134227909
        0x0800000c:    08001bf5    ....    DCD    134224885
        0x08000010:    080027c1    .'..    DCD    134227905
        0x08000014:    08000541    A...    DCD    134219073
        0x08000018:    08002d61    a-..    DCD    134229345
        0x0800001c:    00000000    ....    DCD    0
        0x08000020:    00000000    ....    DCD    0
        0x08000024:    00000000    ....    DCD    0
        0x08000028:    00000000    ....    DCD    0
        0x0800002c:    08000149    I...    DCD    134218057
        0x08000030:    08000545    E...    DCD    134219077
        0x08000034:    00000000    ....    DCD    0
        0x08000038:    0800018d    ....    DCD    134218125
        0x0800003c:    08002881    .(..    DCD    134228097
        0x08000040:    080001fb    ....    DCD    134218235
        0x08000044:    080001fb    ....    DCD    134218235
        0x08000048:    080001fb    ....    DCD    134218235
        0x0800004c:    080001fb    ....    DCD    134218235
        0x08000050:    080001fb    ....    DCD    134218235
        0x08000054:    080001fb    ....    DCD    134218235
        0x08000058:    080001fb    ....    DCD    134218235
        0x0800005c:    080001fb    ....    DCD    134218235
        0x08000060:    080001fb    ....    DCD    134218235
        0x08000064:    080001fb    ....    DCD    134218235
        0x08000068:    080001fb    ....    DCD    134218235
        0x0800006c:    080001fb    ....    DCD    134218235
        0x08000070:    080001fb    ....    DCD    134218235
        0x08000074:    080001fb    ....    DCD    134218235
        0x08000078:    080001fb    ....    DCD    134218235
        0x0800007c:    080001fb    ....    DCD    134218235
        0x08000080:    080001fb    ....    DCD    134218235
        0x08000084:    080001fb    ....    DCD    134218235
        0x08000088:    080001fb    ....    DCD    134218235
        0x0800008c:    080001fb    ....    DCD    134218235
        0x08000090:    080001fb    ....    DCD    134218235
        0x08000094:    080001fb    ....    DCD    134218235
        0x08000098:    080001fb    ....    DCD    134218235
        0x0800009c:    080001fb    ....    DCD    134218235
        0x080000a0:    080001fb    ....    DCD    134218235
        0x080000a4:    080001fb    ....    DCD    134218235
        0x080000a8:    080001fb    ....    DCD    134218235
        0x080000ac:    080001fb    ....    DCD    134218235
        0x080000b0:    080001fb    ....    DCD    134218235
        0x080000b4:    080001fb    ....    DCD    134218235
        0x080000b8:    080001fb    ....    DCD    134218235
        0x080000bc:    080001fb    ....    DCD    134218235
        0x080000c0:    080001fb    ....    DCD    134218235
        0x080000c4:    080001fb    ....    DCD    134218235
        0x080000c8:    080001fb    ....    DCD    134218235
        0x080000cc:    080001fb    ....    DCD    134218235
        0x080000d0:    080001fb    ....    DCD    134218235
        0x080000d4:    08002c95    .,..    DCD    134229141
        0x080000d8:    080001fb    ....    DCD    134218235
        0x080000dc:    08002cc9    .,..    DCD    134229193
        0x080000e0:    08000547    G...    DCD    134219079
        0x080000e4:    080001fb    ....    DCD    134218235
        0x080000e8:    080001fb    ....    DCD    134218235
        0x080000ec:    080001fb    ....    DCD    134218235
        0x080000f0:    0800291d    .)..    DCD    134228253
        0x080000f4:    080001fb    ....    DCD    134218235
        0x080000f8:    080001fb    ....    DCD    134218235
        0x080000fc:    080001fb    ....    DCD    134218235
        0x08000100:    080001fb    ....    DCD    134218235
        0x08000104:    080001fb    ....    DCD    134218235
        0x08000108:    080001fb    ....    DCD    134218235
        0x0800010c:    080001fb    ....    DCD    134218235
        0x08000110:    080001fb    ....    DCD    134218235
        0x08000114:    080001fb    ....    DCD    134218235
        0x08000118:    080001fb    ....    DCD    134218235
        0x0800011c:    080001fb    ....    DCD    134218235
        0x08000120:    080001fb    ....    DCD    134218235
        0x08000124:    080001fb    ....    DCD    134218235
        0x08000128:    080001fb    ....    DCD    134218235
        0x0800012c:    080001fb    ....    DCD    134218235
    $t
    .ARM.Collect$$$$00000000
    .ARM.Collect$$$$00000001
    __Vectors_End
    __main
    _main_stk
        0x08000130:    f8dfd010    ....    LDR      sp,__lit__00000000 ; [0x8000144] = 0x2000bed8
    .ARM.Collect$$$$00000004
    _main_scatterload
        0x08000134:    f000f906    ....    BL       __scatterload ; 0x8000344
    .ARM.Collect$$$$00000008
    .ARM.Collect$$$$0000000A
    .ARM.Collect$$$$0000000B
    __main_after_scatterload
    _main_clock
    _main_cpp_init
    _main_init
        0x08000138:    4800        .H      LDR      r0,[pc,#0] ; [0x800013c] = 0x8003381
        0x0800013a:    4700        .G      BX       r0
    $d
        0x0800013c:    08003381    .3..    DCD    134230913
    $t
    .ARM.Collect$$$$0000000E
    __rt_lib_shutdown_fini
        0x08000140:    f3af8000    ....    NOP.W    
    $d
    .ARM.Collect$$$$00002712
    __lit__00000000
    .ARM.Collect$$$$0000000F
    .ARM.Collect$$$$00000011
    __rt_final_cpp
    __rt_final_exit
        0x08000144:    2000bed8    ...     DCD    536919768
    $t
    .emb_text
    SVC_Handler
        0x08000148:    4b22        "K      LDR      r3,[pc,#136] ; [0x80001d4] = 0x2000001c
        0x0800014a:    6819        .h      LDR      r1,[r3,#0]
        0x0800014c:    6808        .h      LDR      r0,[r1,#0]
        0x0800014e:    e8b00ff0    ....    LDM      r0!,{r4-r11}
        0x08000152:    f3808809    ....    MSR      PSP,r0
        0x08000156:    f3bf8f6f    ..o.    ISB      
        0x0800015a:    f04f0000    O...    MOV      r0,#0
        0x0800015e:    f3808811    ....    MSR      BASEPRI,r0
        0x08000162:    f04e0e0d    N...    ORR      lr,lr,#0xd
        0x08000166:    4770        pG      BX       lr
    $d
        0x08000168:    00000000    ....    DCD    0
    $t
    __asm___6_port_c_39a90d8d__prvStartFirstTask
        0x0800016c:    4806        .H      LDR      r0,[pc,#24] ; [0x8000188] = 0xe000ed08
        0x0800016e:    6800        .h      LDR      r0,[r0,#0]
        0x08000170:    6800        .h      LDR      r0,[r0,#0]
        0x08000172:    f3808808    ....    MSR      MSP,r0
        0x08000176:    b662        b.      CPSIE    i
        0x08000178:    b661        a.      CPSIE    f
        0x0800017a:    f3bf8f4f    ..O.    DSB      
        0x0800017e:    f3bf8f6f    ..o.    ISB      
        0x08000182:    df00        ..      SVC      #0x0 ; formerly SWI
        0x08000184:    bf00        ..      NOP      
        0x08000186:    bf00        ..      NOP      
    $d
        0x08000188:    e000ed08    ....    DCD    3758157064
    $t
    PendSV_Handler
        0x0800018c:    f3ef8009    ....    MRS      r0,PSP
        0x08000190:    f3bf8f6f    ..o.    ISB      
        0x08000194:    4b0f        .K      LDR      r3,[pc,#60] ; [0x80001d4] = 0x2000001c
        0x08000196:    681a        .h      LDR      r2,[r3,#0]
        0x08000198:    e9200ff0     ...    STMDB    r0!,{r4-r11}
        0x0800019c:    6010        .`      STR      r0,[r2,#0]
        0x0800019e:    b508        ..      PUSH     {r3,lr}
        0x080001a0:    f04f0050    O.P.    MOV      r0,#0x50
        0x080001a4:    f3808811    ....    MSR      BASEPRI,r0
        0x080001a8:    f3bf8f4f    ..O.    DSB      
        0x080001ac:    f3bf8f6f    ..o.    ISB      
        0x080001b0:    f006fdde    ....    BL       vTaskSwitchContext ; 0x8006d70
        0x080001b4:    f04f0000    O...    MOV      r0,#0
        0x080001b8:    f3808811    ....    MSR      BASEPRI,r0
        0x080001bc:    e8bd4008    ...@    POP      {r3,lr}
        0x080001c0:    6819        .h      LDR      r1,[r3,#0]
        0x080001c2:    6808        .h      LDR      r0,[r1,#0]
        0x080001c4:    e8b00ff0    ....    LDM      r0!,{r4-r11}
        0x080001c8:    f3808809    ....    MSR      PSP,r0
        0x080001cc:    f3bf8f6f    ..o.    ISB      
        0x080001d0:    4770        pG      BX       lr
        0x080001d2:    bf00        ..      NOP      
    $d
        0x080001d4:    2000001c    ...     DCD    536870940
    $t
    vPortGetIPSR
        0x080001d8:    f3ef8005    ....    MRS      r0,IPSR
        0x080001dc:    4770        pG      BX       lr
        0x080001de:    0000        ..      MOVS     r0,r0
    .text
    Reset_Handler
        0x080001e0:    4806        .H      LDR      r0,[pc,#24] ; [0x80001fc] = 0x800291b
        0x080001e2:    4780        .G      BLX      r0
        0x080001e4:    4806        .H      LDR      r0,[pc,#24] ; [0x8000200] = 0x8000131
        0x080001e6:    4700        .G      BX       r0
        0x080001e8:    e7fe        ..      B        0x80001e8 ; Reset_Handler + 8
        0x080001ea:    e7fe        ..      B        0x80001ea ; Reset_Handler + 10
        0x080001ec:    e7fe        ..      B        0x80001ec ; Reset_Handler + 12
        0x080001ee:    e7fe        ..      B        0x80001ee ; Reset_Handler + 14
        0x080001f0:    e7fe        ..      B        0x80001f0 ; Reset_Handler + 16
        0x080001f2:    e7fe        ..      B        0x80001f2 ; Reset_Handler + 18
        0x080001f4:    e7fe        ..      B        0x80001f4 ; Reset_Handler + 20
        0x080001f6:    e7fe        ..      B        0x80001f6 ; Reset_Handler + 22
        0x080001f8:    e7fe        ..      B        0x80001f8 ; Reset_Handler + 24
    ADC1_2_IRQHandler
    ADC3_IRQHandler
    CAN1_RX1_IRQHandler
    CAN1_SCE_IRQHandler
    DMA1_Channel1_IRQHandler
    DMA1_Channel2_IRQHandler
    DMA1_Channel3_IRQHandler
    DMA1_Channel4_IRQHandler
    DMA1_Channel5_IRQHandler
    DMA1_Channel6_IRQHandler
    DMA1_Channel7_IRQHandler
    DMA2_Channel1_IRQHandler
    DMA2_Channel2_IRQHandler
    DMA2_Channel3_IRQHandler
    DMA2_Channel4_5_IRQHandler
    EXTI0_IRQHandler
    EXTI1_IRQHandler
    EXTI2_IRQHandler
    EXTI3_IRQHandler
    EXTI4_IRQHandler
    EXTI9_5_IRQHandler
    FLASH_IRQHandler
    FSMC_IRQHandler
    I2C1_ER_IRQHandler
    I2C1_EV_IRQHandler
    I2C2_ER_IRQHandler
    I2C2_EV_IRQHandler
    PVD_IRQHandler
    RCC_IRQHandler
    RTC_Alarm_IRQHandler
    RTC_IRQHandler
    SDIO_IRQHandler
    SPI1_IRQHandler
    SPI2_IRQHandler
    SPI3_IRQHandler
    TAMPER_IRQHandler
    TIM1_BRK_IRQHandler
    TIM1_CC_IRQHandler
    TIM1_TRG_COM_IRQHandler
    TIM1_UP_IRQHandler
    TIM2_IRQHandler
    TIM3_IRQHandler
    TIM4_IRQHandler
    TIM5_IRQHandler
    TIM6_IRQHandler
    TIM7_IRQHandler
    TIM8_BRK_IRQHandler
    TIM8_CC_IRQHandler
    TIM8_TRG_COM_IRQHandler
    UART4_IRQHandler
    UART5_IRQHandler
    USART2_IRQHandler
    USBWakeUp_IRQHandler
    USB_HP_CAN1_TX_IRQHandler
    USB_LP_CAN1_RX0_IRQHandler
    WWDG_IRQHandler
        0x080001fa:    e7fe        ..      B        ADC1_2_IRQHandler ; 0x80001fa
    $d
        0x080001fc:    0800291b    .)..    DCD    134228251
        0x08000200:    08000131    1...    DCD    134218033
    $t
    .text
    __aeabi_llsr
    _ll_ushift_r
        0x08000204:    2a20         *      CMP      r2,#0x20
        0x08000206:    db04        ..      BLT      0x8000212 ; __aeabi_llsr + 14
        0x08000208:    3a20         :      SUBS     r2,r2,#0x20
        0x0800020a:    fa21f002    !...    LSR      r0,r1,r2
        0x0800020e:    2100        .!      MOVS     r1,#0
        0x08000210:    4770        pG      BX       lr
        0x08000212:    fa21f302    !...    LSR      r3,r1,r2
        0x08000216:    40d0        .@      LSRS     r0,r0,r2
        0x08000218:    f1c20220    .. .    RSB      r2,r2,#0x20
        0x0800021c:    4091        .@      LSLS     r1,r1,r2
        0x0800021e:    4308        .C      ORRS     r0,r0,r1
        0x08000220:    4619        .F      MOV      r1,r3
        0x08000222:    4770        pG      BX       lr
    .text
    rand
        0x08000224:    4906        .I      LDR      r1,[pc,#24] ; [0x8000240] = 0x200000b0
        0x08000226:    4a07        .J      LDR      r2,[pc,#28] ; [0x8000244] = 0x41c64e6d
        0x08000228:    6808        .h      LDR      r0,[r1,#0]
        0x0800022a:    4350        PC      MULS     r0,r2,r0
        0x0800022c:    f2430239    C.9.    MOV      r2,#0x3039
        0x08000230:    4410        .D      ADD      r0,r0,r2
        0x08000232:    6008        .`      STR      r0,[r1,#0]
        0x08000234:    0840        @.      LSRS     r0,r0,#1
        0x08000236:    4770        pG      BX       lr
    srand
        0x08000238:    4901        .I      LDR      r1,[pc,#4] ; [0x8000240] = 0x200000b0
        0x0800023a:    6008        .`      STR      r0,[r1,#0]
        0x0800023c:    4770        pG      BX       lr
    $d
        0x0800023e:    0000        ..      DCW    0
        0x08000240:    200000b0    ...     DCD    536871088
        0x08000244:    41c64e6d    mN.A    DCD    1103515245
    $t
    .text
    __aeabi_memcpy
    __aeabi_memcpy4
    __aeabi_memcpy8
        0x08000248:    ea400301    @...    ORR      r3,r0,r1
        0x0800024c:    079b        ..      LSLS     r3,r3,#30
        0x0800024e:    d003        ..      BEQ      0x8000258 ; __aeabi_memcpy + 16
        0x08000250:    e009        ..      B        0x8000266 ; __aeabi_memcpy + 30
        0x08000252:    c908        ..      LDM      r1!,{r3}
        0x08000254:    1f12        ..      SUBS     r2,r2,#4
        0x08000256:    c008        ..      STM      r0!,{r3}
        0x08000258:    2a04        .*      CMP      r2,#4
        0x0800025a:    d2fa        ..      BCS      0x8000252 ; __aeabi_memcpy + 10
        0x0800025c:    e003        ..      B        0x8000266 ; __aeabi_memcpy + 30
        0x0800025e:    f8113b01    ...;    LDRB     r3,[r1],#1
        0x08000262:    f8003b01    ...;    STRB     r3,[r0],#1
        0x08000266:    1e52        R.      SUBS     r2,r2,#1
        0x08000268:    d2f9        ..      BCS      0x800025e ; __aeabi_memcpy + 22
        0x0800026a:    4770        pG      BX       lr
    .text
    __aeabi_memset
    __aeabi_memset4
    __aeabi_memset8
        0x0800026c:    b2d2        ..      UXTB     r2,r2
        0x0800026e:    e001        ..      B        0x8000274 ; __aeabi_memset + 8
        0x08000270:    f8002b01    ...+    STRB     r2,[r0],#1
        0x08000274:    1e49        I.      SUBS     r1,r1,#1
        0x08000276:    d2fb        ..      BCS      0x8000270 ; __aeabi_memset + 4
        0x08000278:    4770        pG      BX       lr
    __aeabi_memclr
    __aeabi_memclr4
    __aeabi_memclr8
        0x0800027a:    2200        ."      MOVS     r2,#0
        0x0800027c:    e7f6        ..      B        __aeabi_memset ; 0x800026c
    memset
        0x0800027e:    b510        ..      PUSH     {r4,lr}
        0x08000280:    4613        .F      MOV      r3,r2
        0x08000282:    460a        .F      MOV      r2,r1
        0x08000284:    4604        .F      MOV      r4,r0
        0x08000286:    4619        .F      MOV      r1,r3
        0x08000288:    f7fffff0    ....    BL       __aeabi_memset ; 0x800026c
        0x0800028c:    4620         F      MOV      r0,r4
        0x0800028e:    bd10        ..      POP      {r4,pc}
    .text
    strstr
        0x08000290:    b530        0.      PUSH     {r4,r5,lr}
        0x08000292:    4605        .F      MOV      r5,r0
        0x08000294:    462a        *F      MOV      r2,r5
        0x08000296:    460b        .F      MOV      r3,r1
        0x08000298:    f8120b01    ....    LDRB     r0,[r2],#1
        0x0800029c:    f8134b01    ...K    LDRB     r4,[r3],#1
        0x080002a0:    b108        ..      CBZ      r0,0x80002a6 ; strstr + 22
        0x080002a2:    42a0        .B      CMP      r0,r4
        0x080002a4:    d0f8        ..      BEQ      0x8000298 ; strstr + 8
        0x080002a6:    b11c        ..      CBZ      r4,0x80002b0 ; strstr + 32
        0x080002a8:    2800        .(      CMP      r0,#0
        0x080002aa:    d002        ..      BEQ      0x80002b2 ; strstr + 34
        0x080002ac:    1c6d        m.      ADDS     r5,r5,#1
        0x080002ae:    e7f1        ..      B        0x8000294 ; strstr + 4
        0x080002b0:    4628        (F      MOV      r0,r5
        0x080002b2:    bd30        0.      POP      {r4,r5,pc}
    .text
    strlen
        0x080002b4:    1c42        B.      ADDS     r2,r0,#1
        0x080002b6:    f8101b01    ....    LDRB     r1,[r0],#1
        0x080002ba:    2900        .)      CMP      r1,#0
        0x080002bc:    d1fb        ..      BNE      0x80002b6 ; strlen + 2
        0x080002be:    1a80        ..      SUBS     r0,r0,r2
        0x080002c0:    4770        pG      BX       lr
    .text
    strncmp
        0x080002c2:    b530        0.      PUSH     {r4,r5,lr}
        0x080002c4:    4605        .F      MOV      r5,r0
        0x080002c6:    2000        .       MOVS     r0,#0
        0x080002c8:    4603        .F      MOV      r3,r0
        0x080002ca:    e000        ..      B        0x80002ce ; strncmp + 12
        0x080002cc:    1c5b        [.      ADDS     r3,r3,#1
        0x080002ce:    4293        .B      CMP      r3,r2
        0x080002d0:    d205        ..      BCS      0x80002de ; strncmp + 28
        0x080002d2:    5cec        .\      LDRB     r4,[r5,r3]
        0x080002d4:    5cc8        .\      LDRB     r0,[r1,r3]
        0x080002d6:    1a20         .      SUBS     r0,r4,r0
        0x080002d8:    d101        ..      BNE      0x80002de ; strncmp + 28
        0x080002da:    2c00        .,      CMP      r4,#0
        0x080002dc:    d1f6        ..      BNE      0x80002cc ; strncmp + 10
        0x080002de:    bd30        0.      POP      {r4,r5,pc}
    .text
    __aeabi_uldivmod
        0x080002e0:    e92d5ff0    -.._    PUSH     {r4-r12,lr}
        0x080002e4:    4605        .F      MOV      r5,r0
        0x080002e6:    2000        .       MOVS     r0,#0
        0x080002e8:    4692        .F      MOV      r10,r2
        0x080002ea:    469b        .F      MOV      r11,r3
        0x080002ec:    4688        .F      MOV      r8,r1
        0x080002ee:    4606        .F      MOV      r6,r0
        0x080002f0:    4681        .F      MOV      r9,r0
        0x080002f2:    2440        @$      MOVS     r4,#0x40
        0x080002f4:    e01b        ..      B        0x800032e ; __aeabi_uldivmod + 78
        0x080002f6:    4628        (F      MOV      r0,r5
        0x080002f8:    4641        AF      MOV      r1,r8
        0x080002fa:    4647        GF      MOV      r7,r8
        0x080002fc:    4622        "F      MOV      r2,r4
        0x080002fe:    f7ffff81    ....    BL       __aeabi_llsr ; 0x8000204
        0x08000302:    4653        SF      MOV      r3,r10
        0x08000304:    465a        ZF      MOV      r2,r11
        0x08000306:    1ac0        ..      SUBS     r0,r0,r3
        0x08000308:    4191        .A      SBCS     r1,r1,r2
        0x0800030a:    d310        ..      BCC      0x800032e ; __aeabi_uldivmod + 78
        0x0800030c:    4611        .F      MOV      r1,r2
        0x0800030e:    4618        .F      MOV      r0,r3
        0x08000310:    4622        "F      MOV      r2,r4
        0x08000312:    f000f829    ..).    BL       __aeabi_llsl ; 0x8000368
        0x08000316:    1a2d        -.      SUBS     r5,r5,r0
        0x08000318:    eb670801    g...    SBC      r8,r7,r1
        0x0800031c:    464f        OF      MOV      r7,r9
        0x0800031e:    4622        "F      MOV      r2,r4
        0x08000320:    2001        .       MOVS     r0,#1
        0x08000322:    2100        .!      MOVS     r1,#0
        0x08000324:    f000f820    .. .    BL       __aeabi_llsl ; 0x8000368
        0x08000328:    eb170900    ....    ADDS     r9,r7,r0
        0x0800032c:    414e        NA      ADCS     r6,r6,r1
        0x0800032e:    1e20         .      SUBS     r0,r4,#0
        0x08000330:    f1a40401    ....    SUB      r4,r4,#1
        0x08000334:    dcdf        ..      BGT      0x80002f6 ; __aeabi_uldivmod + 22
        0x08000336:    4648        HF      MOV      r0,r9
        0x08000338:    4631        1F      MOV      r1,r6
        0x0800033a:    462a        *F      MOV      r2,r5
        0x0800033c:    4643        CF      MOV      r3,r8
        0x0800033e:    e8bd9ff0    ....    POP      {r4-r12,pc}
        0x08000342:    0000        ..      MOVS     r0,r0
    .text
    __scatterload
    __scatterload_rt2
        0x08000344:    4c06        .L      LDR      r4,[pc,#24] ; [0x8000360] = 0x800832c
        0x08000346:    4d07        .M      LDR      r5,[pc,#28] ; [0x8000364] = 0x800834c
        0x08000348:    e006        ..      B        0x8000358 ; __scatterload + 20
        0x0800034a:    68e0        .h      LDR      r0,[r4,#0xc]
        0x0800034c:    f0400301    @...    ORR      r3,r0,#1
        0x08000350:    e8940007    ....    LDM      r4,{r0-r2}
        0x08000354:    4798        .G      BLX      r3
        0x08000356:    3410        .4      ADDS     r4,r4,#0x10
        0x08000358:    42ac        .B      CMP      r4,r5
        0x0800035a:    d3f6        ..      BCC      0x800034a ; __scatterload + 6
        0x0800035c:    f7fffeec    ....    BL       __main_after_scatterload ; 0x8000138
    $d
        0x08000360:    0800832c    ,...    DCD    134251308
        0x08000364:    0800834c    L...    DCD    134251340
    $t
    .text
    __aeabi_llsl
    _ll_shift_l
        0x08000368:    2a20         *      CMP      r2,#0x20
        0x0800036a:    db04        ..      BLT      0x8000376 ; __aeabi_llsl + 14
        0x0800036c:    3a20         :      SUBS     r2,r2,#0x20
        0x0800036e:    fa00f102    ....    LSL      r1,r0,r2
        0x08000372:    2000        .       MOVS     r0,#0
        0x08000374:    4770        pG      BX       lr
        0x08000376:    4091        .@      LSLS     r1,r1,r2
        0x08000378:    f1c20320    .. .    RSB      r3,r2,#0x20
        0x0800037c:    fa20f303     ...    LSR      r3,r0,r3
        0x08000380:    4319        .C      ORRS     r1,r1,r3
        0x08000382:    4090        .@      LSLS     r0,r0,r2
        0x08000384:    4770        pG      BX       lr
        0x08000386:    0000        ..      MOVS     r0,r0
    i.ATInit
    ATInit
        0x08000388:    b510        ..      PUSH     {r4,lr}
        0x0800038a:    4808        .H      LDR      r0,[pc,#32] ; [0x80003ac] = 0x200000a0
        0x0800038c:    f005f841    ..A.    BL       platform_mutex_init ; 0x8005412
        0x08000390:    4806        .H      LDR      r0,[pc,#24] ; [0x80003ac] = 0x200000a0
        0x08000392:    f005f84e    ..N.    BL       platform_mutex_lock ; 0x8005432
        0x08000396:    4806        .H      LDR      r0,[pc,#24] ; [0x80003b0] = 0x200000a4
        0x08000398:    f005f83b    ..;.    BL       platform_mutex_init ; 0x8005412
        0x0800039c:    4804        .H      LDR      r0,[pc,#16] ; [0x80003b0] = 0x200000a4
        0x0800039e:    f005f848    ..H.    BL       platform_mutex_lock ; 0x8005432
        0x080003a2:    4804        .H      LDR      r0,[pc,#16] ; [0x80003b4] = 0x2000b264
        0x080003a4:    f006f89d    ....    BL       ring_buffer_init ; 0x80064e2
        0x080003a8:    2000        .       MOVS     r0,#0
        0x080003aa:    bd10        ..      POP      {r4,pc}
    $d
        0x080003ac:    200000a0    ...     DCD    536871072
        0x080003b0:    200000a4    ...     DCD    536871076
        0x080003b4:    2000b264    d..     DCD    536916580
    $t
    i.ATReadData
    ATReadData
        0x080003b8:    b570        p.      PUSH     {r4-r6,lr}
        0x080003ba:    4605        .F      MOV      r5,r0
        0x080003bc:    460e        .F      MOV      r6,r1
        0x080003be:    bf00        ..      NOP      
        0x080003c0:    4909        .I      LDR      r1,[pc,#36] ; [0x80003e8] = 0x2000b264
        0x080003c2:    4628        (F      MOV      r0,r5
        0x080003c4:    f006f891    ....    BL       ring_buffer_read ; 0x80064ea
        0x080003c8:    b908        ..      CBNZ     r0,0x80003ce ; ATReadData + 22
        0x080003ca:    2000        .       MOVS     r0,#0
        0x080003cc:    bd70        p.      POP      {r4-r6,pc}
        0x080003ce:    4631        1F      MOV      r1,r6
        0x080003d0:    4806        .H      LDR      r0,[pc,#24] ; [0x80003ec] = 0x200000a4
        0x080003d2:    f005f836    ..6.    BL       platform_mutex_lock_timeout ; 0x8005442
        0x080003d6:    4604        .F      MOV      r4,r0
        0x080003d8:    b914        ..      CBNZ     r4,0x80003e0 ; ATReadData + 40
        0x080003da:    f06f0001    o...    MVN      r0,#1
        0x080003de:    e7f5        ..      B        0x80003cc ; ATReadData + 20
        0x080003e0:    2c01        .,      CMP      r4,#1
        0x080003e2:    d0ed        ..      BEQ      0x80003c0 ; ATReadData + 8
        0x080003e4:    2000        .       MOVS     r0,#0
        0x080003e6:    e7f1        ..      B        0x80003cc ; ATReadData + 20
    $d
        0x080003e8:    2000b264    d..     DCD    536916580
        0x080003ec:    200000a4    ...     DCD    536871076
    $t
    i.ATRecvParser
    ATRecvParser
        0x080003f0:    b09a        ..      SUB      sp,sp,#0x68
        0x080003f2:    2400        .$      MOVS     r4,#0
        0x080003f4:    e047        G.      B        0x8000486 ; ATRecvParser + 150
        0x080003f6:    a901        ..      ADD      r1,sp,#4
        0x080003f8:    1908        ..      ADDS     r0,r1,r4
        0x080003fa:    f04f31ff    O..1    MOV      r1,#0xffffffff
        0x080003fe:    f000f8f7    ....    BL       HAL_AT_Secv ; 0x80005f0
        0x08000402:    2100        .!      MOVS     r1,#0
        0x08000404:    aa01        ..      ADD      r2,sp,#4
        0x08000406:    1c60        `.      ADDS     r0,r4,#1
        0x08000408:    5411        .T      STRB     r1,[r2,r0]
        0x0800040a:    2c00        .,      CMP      r4,#0
        0x0800040c:    d02e        ..      BEQ      0x800046c ; ATRecvParser + 124
        0x0800040e:    1e60        `.      SUBS     r0,r4,#1
        0x08000410:    a901        ..      ADD      r1,sp,#4
        0x08000412:    5c08        .\      LDRB     r0,[r1,r0]
        0x08000414:    280d        .(      CMP      r0,#0xd
        0x08000416:    d129        ).      BNE      0x800046c ; ATRecvParser + 124
        0x08000418:    a801        ..      ADD      r0,sp,#4
        0x0800041a:    5d00        .]      LDRB     r0,[r0,r4]
        0x0800041c:    280a        .(      CMP      r0,#0xa
        0x0800041e:    d125        %.      BNE      0x800046c ; ATRecvParser + 124
        0x08000420:    a119        ..      ADR      r1,{pc}+0x68 ; 0x8000488
        0x08000422:    a801        ..      ADD      r0,sp,#4
        0x08000424:    f7ffff34    ..4.    BL       strstr ; 0x8000290
        0x08000428:    b160        `.      CBZ      r0,0x8000444 ; ATRecvParser + 84
        0x0800042a:    4622        "F      MOV      r2,r4
        0x0800042c:    a901        ..      ADD      r1,sp,#4
        0x0800042e:    4818        .H      LDR      r0,[pc,#96] ; [0x8000490] = 0x2000b66c
        0x08000430:    f7ffff0a    ....    BL       __aeabi_memcpy ; 0x8000248
        0x08000434:    2000        .       MOVS     r0,#0
        0x08000436:    f002fa0b    ....    BL       SetATStatus ; 0x8002850
        0x0800043a:    4816        .H      LDR      r0,[pc,#88] ; [0x8000494] = 0x200000a0
        0x0800043c:    f005f809    ....    BL       platform_mutex_unlock ; 0x8005452
        0x08000440:    2400        .$      MOVS     r4,#0
        0x08000442:    e011        ..      B        0x8000468 ; ATRecvParser + 120
        0x08000444:    a114        ..      ADR      r1,{pc}+0x54 ; 0x8000498
        0x08000446:    a801        ..      ADD      r0,sp,#4
        0x08000448:    f7ffff22    ..".    BL       strstr ; 0x8000290
        0x0800044c:    b160        `.      CBZ      r0,0x8000468 ; ATRecvParser + 120
        0x0800044e:    4622        "F      MOV      r2,r4
        0x08000450:    a901        ..      ADD      r1,sp,#4
        0x08000452:    480f        .H      LDR      r0,[pc,#60] ; [0x8000490] = 0x2000b66c
        0x08000454:    f7fffef8    ....    BL       __aeabi_memcpy ; 0x8000248
        0x08000458:    f04f30ff    O..0    MOV      r0,#0xffffffff
        0x0800045c:    f002f9f8    ....    BL       SetATStatus ; 0x8002850
        0x08000460:    480c        .H      LDR      r0,[pc,#48] ; [0x8000494] = 0x200000a0
        0x08000462:    f004fff6    ....    BL       platform_mutex_unlock ; 0x8005452
        0x08000466:    2400        .$      MOVS     r4,#0
        0x08000468:    2400        .$      MOVS     r4,#0
        0x0800046a:    e009        ..      B        0x8000480 ; ATRecvParser + 144
        0x0800046c:    a801        ..      ADD      r0,sp,#4
        0x0800046e:    f000f8af    ....    BL       GetSpecialATString ; 0x80005d0
        0x08000472:    b120         .      CBZ      r0,0x800047e ; ATRecvParser + 142
        0x08000474:    a801        ..      ADD      r0,sp,#4
        0x08000476:    f002f9a7    ....    BL       ProcessSpecialATString ; 0x80027c8
        0x0800047a:    2400        .$      MOVS     r4,#0
        0x0800047c:    e000        ..      B        0x8000480 ; ATRecvParser + 144
        0x0800047e:    1c64        d.      ADDS     r4,r4,#1
        0x08000480:    2c64        d,      CMP      r4,#0x64
        0x08000482:    db00        ..      BLT      0x8000486 ; ATRecvParser + 150
        0x08000484:    2400        .$      MOVS     r4,#0
        0x08000486:    e7b6        ..      B        0x80003f6 ; ATRecvParser + 6
    $d
        0x08000488:    0a0d4b4f    OK..    DCD    168643407
        0x0800048c:    00000000    ....    DCD    0
        0x08000490:    2000b66c    l..     DCD    536917612
        0x08000494:    200000a0    ...     DCD    536871072
        0x08000498:    4f525245    ERRO    DCD    1330795077
        0x0800049c:    000a0d52    R...    DCD    658770
    $t
    i.ATSendCmd
    ATSendCmd
        0x080004a0:    e92d47f0    -..G    PUSH     {r4-r10,lr}
        0x080004a4:    4680        .F      MOV      r8,r0
        0x080004a6:    460c        .F      MOV      r4,r1
        0x080004a8:    4616        .F      MOV      r6,r2
        0x080004aa:    461f        .F      MOV      r7,r3
        0x080004ac:    4640        @F      MOV      r0,r8
        0x080004ae:    f7ffff01    ....    BL       strlen ; 0x80002b4
        0x080004b2:    4682        .F      MOV      r10,r0
        0x080004b4:    4651        QF      MOV      r1,r10
        0x080004b6:    4640        @F      MOV      r0,r8
        0x080004b8:    f000f8a2    ....    BL       HAL_AT_Send ; 0x8000600
        0x080004bc:    2102        .!      MOVS     r1,#2
        0x080004be:    a010        ..      ADR      r0,{pc}+0x42 ; 0x8000500
        0x080004c0:    f000f89e    ....    BL       HAL_AT_Send ; 0x8000600
        0x080004c4:    4639        9F      MOV      r1,r7
        0x080004c6:    480f        .H      LDR      r0,[pc,#60] ; [0x8000504] = 0x200000a0
        0x080004c8:    f004ffbb    ....    BL       platform_mutex_lock_timeout ; 0x8005442
        0x080004cc:    4681        .F      MOV      r9,r0
        0x080004ce:    f1b90f00    ....    CMP      r9,#0
        0x080004d2:    d011        ..      BEQ      0x80004f8 ; ATSendCmd + 88
        0x080004d4:    f000f876    ..v.    BL       GetATStatus ; 0x80005c4
        0x080004d8:    4605        .F      MOV      r5,r0
        0x080004da:    b955        U.      CBNZ     r5,0x80004f2 ; ATSendCmd + 82
        0x080004dc:    b14c        L.      CBZ      r4,0x80004f2 ; ATSendCmd + 82
        0x080004de:    2e64        d.      CMP      r6,#0x64
        0x080004e0:    dd01        ..      BLE      0x80004e6 ; ATSendCmd + 70
        0x080004e2:    2064        d       MOVS     r0,#0x64
        0x080004e4:    e000        ..      B        0x80004e8 ; ATSendCmd + 72
        0x080004e6:    4630        0F      MOV      r0,r6
        0x080004e8:    4602        .F      MOV      r2,r0
        0x080004ea:    4907        .I      LDR      r1,[pc,#28] ; [0x8000508] = 0x2000b66c
        0x080004ec:    4620         F      MOV      r0,r4
        0x080004ee:    f7fffeab    ....    BL       __aeabi_memcpy ; 0x8000248
        0x080004f2:    4628        (F      MOV      r0,r5
        0x080004f4:    e8bd87f0    ....    POP      {r4-r10,pc}
        0x080004f8:    f06f0001    o...    MVN      r0,#1
        0x080004fc:    e7fa        ..      B        0x80004f4 ; ATSendCmd + 84
    $d
        0x080004fe:    0000        ..      DCW    0
        0x08000500:    00000a0d    ....    DCD    2573
        0x08000504:    200000a0    ...     DCD    536871072
        0x08000508:    2000b66c    l..     DCD    536917612
    $t
    i.ATSendData
    ATSendData
        0x0800050c:    e92d41f0    -..A    PUSH     {r4-r8,lr}
        0x08000510:    4605        .F      MOV      r5,r0
        0x08000512:    460e        .F      MOV      r6,r1
        0x08000514:    4614        .F      MOV      r4,r2
        0x08000516:    4631        1F      MOV      r1,r6
        0x08000518:    4628        (F      MOV      r0,r5
        0x0800051a:    f000f871    ..q.    BL       HAL_AT_Send ; 0x8000600
        0x0800051e:    4621        !F      MOV      r1,r4
        0x08000520:    4806        .H      LDR      r0,[pc,#24] ; [0x800053c] = 0x200000a0
        0x08000522:    f004ff8e    ....    BL       platform_mutex_lock_timeout ; 0x8005442
        0x08000526:    4607        .F      MOV      r7,r0
        0x08000528:    b12f        /.      CBZ      r7,0x8000536 ; ATSendData + 42
        0x0800052a:    f000f84b    ..K.    BL       GetATStatus ; 0x80005c4
        0x0800052e:    4680        .F      MOV      r8,r0
        0x08000530:    4640        @F      MOV      r0,r8
        0x08000532:    e8bd81f0    ....    POP      {r4-r8,pc}
        0x08000536:    f06f0001    o...    MVN      r0,#1
        0x0800053a:    e7fa        ..      B        0x8000532 ; ATSendData + 38
    $d
        0x0800053c:    200000a0    ...     DCD    536871072
    $t
    i.BusFault_Handler
    BusFault_Handler
        0x08000540:    bf00        ..      NOP      
        0x08000542:    e7fe        ..      B        0x8000542 ; BusFault_Handler + 2
    i.DebugMon_Handler
    DebugMon_Handler
        0x08000544:    4770        pG      BX       lr
    i.EXTI15_10_IRQHandler
    EXTI15_10_IRQHandler
        0x08000546:    b510        ..      PUSH     {r4,lr}
        0x08000548:    f44f4080    O..@    MOV      r0,#0x4000
        0x0800054c:    f000f97e    ..~.    BL       HAL_GPIO_EXTI_IRQHandler ; 0x800084c
        0x08000550:    f44f4000    O..@    MOV      r0,#0x8000
        0x08000554:    f000f97a    ..z.    BL       HAL_GPIO_EXTI_IRQHandler ; 0x800084c
        0x08000558:    bd10        ..      POP      {r4,pc}
        0x0800055a:    0000        ..      MOVS     r0,r0
    i.EnableDebugIRQ
    EnableDebugIRQ
        0x0800055c:    b510        ..      PUSH     {r4,lr}
        0x0800055e:    2201        ."      MOVS     r2,#1
        0x08000560:    2100        .!      MOVS     r1,#0
        0x08000562:    2025        %       MOVS     r0,#0x25
        0x08000564:    f000fbd8    ....    BL       HAL_NVIC_SetPriority ; 0x8000d18
        0x08000568:    2025        %       MOVS     r0,#0x25
        0x0800056a:    f000fbc5    ....    BL       HAL_NVIC_EnableIRQ ; 0x8000cf8
        0x0800056e:    4804        .H      LDR      r0,[pc,#16] ; [0x8000580] = 0x200004c0
        0x08000570:    6800        .h      LDR      r0,[r0,#0]
        0x08000572:    68c0        .h      LDR      r0,[r0,#0xc]
        0x08000574:    f0400060    @.`.    ORR      r0,r0,#0x60
        0x08000578:    4901        .I      LDR      r1,[pc,#4] ; [0x8000580] = 0x200004c0
        0x0800057a:    6809        .h      LDR      r1,[r1,#0]
        0x0800057c:    60c8        .`      STR      r0,[r1,#0xc]
        0x0800057e:    bd10        ..      POP      {r4,pc}
    $d
        0x08000580:    200004c0    ...     DCD    536872128
    $t
    i.EnableUART3IRQ
    EnableUART3IRQ
        0x08000584:    b510        ..      PUSH     {r4,lr}
        0x08000586:    2200        ."      MOVS     r2,#0
        0x08000588:    210f        .!      MOVS     r1,#0xf
        0x0800058a:    2027        '       MOVS     r0,#0x27
        0x0800058c:    f000fbc4    ....    BL       HAL_NVIC_SetPriority ; 0x8000d18
        0x08000590:    2027        '       MOVS     r0,#0x27
        0x08000592:    f000fbb1    ....    BL       HAL_NVIC_EnableIRQ ; 0x8000cf8
        0x08000596:    4808        .H      LDR      r0,[pc,#32] ; [0x80005b8] = 0x20000504
        0x08000598:    6800        .h      LDR      r0,[r0,#0]
        0x0800059a:    6800        .h      LDR      r0,[r0,#0]
        0x0800059c:    f0200020     . .    BIC      r0,r0,#0x20
        0x080005a0:    4905        .I      LDR      r1,[pc,#20] ; [0x80005b8] = 0x20000504
        0x080005a2:    6809        .h      LDR      r1,[r1,#0]
        0x080005a4:    6008        .`      STR      r0,[r1,#0]
        0x080005a6:    4804        .H      LDR      r0,[pc,#16] ; [0x80005b8] = 0x20000504
        0x080005a8:    6800        .h      LDR      r0,[r0,#0]
        0x080005aa:    68c0        .h      LDR      r0,[r0,#0xc]
        0x080005ac:    f0400020    @. .    ORR      r0,r0,#0x20
        0x080005b0:    4901        .I      LDR      r1,[pc,#4] ; [0x80005b8] = 0x20000504
        0x080005b2:    6809        .h      LDR      r1,[r1,#0]
        0x080005b4:    60c8        .`      STR      r0,[r1,#0xc]
        0x080005b6:    bd10        ..      POP      {r4,pc}
    $d
        0x080005b8:    20000504    ...     DCD    536872196
    $t
    i.Error_Handler
    Error_Handler
        0x080005bc:    b672        r.      CPSID    i
        0x080005be:    bf00        ..      NOP      
        0x080005c0:    e7fe        ..      B        0x80005c0 ; Error_Handler + 4
        0x080005c2:    0000        ..      MOVS     r0,r0
    i.GetATStatus
    GetATStatus
        0x080005c4:    4801        .H      LDR      r0,[pc,#4] ; [0x80005cc] = 0x200000a8
        0x080005c6:    6800        .h      LDR      r0,[r0,#0]
        0x080005c8:    4770        pG      BX       lr
    $d
        0x080005ca:    0000        ..      DCW    0
        0x080005cc:    200000a8    ...     DCD    536871080
    $t
    i.GetSpecialATString
    GetSpecialATString
        0x080005d0:    b510        ..      PUSH     {r4,lr}
        0x080005d2:    4604        .F      MOV      r4,r0
        0x080005d4:    a104        ..      ADR      r1,{pc}+0x14 ; 0x80005e8
        0x080005d6:    4620         F      MOV      r0,r4
        0x080005d8:    f7fffe5a    ..Z.    BL       strstr ; 0x8000290
        0x080005dc:    b108        ..      CBZ      r0,0x80005e2 ; GetSpecialATString + 18
        0x080005de:    2001        .       MOVS     r0,#1
        0x080005e0:    bd10        ..      POP      {r4,pc}
        0x080005e2:    2000        .       MOVS     r0,#0
        0x080005e4:    e7fc        ..      B        0x80005e0 ; GetSpecialATString + 16
    $d
        0x080005e6:    0000        ..      DCW    0
        0x080005e8:    4450492b    +IPD    DCD    1146112299
        0x080005ec:    0000002c    ,...    DCD    44
    $t
    i.HAL_AT_Secv
    HAL_AT_Secv
        0x080005f0:    b570        p.      PUSH     {r4-r6,lr}
        0x080005f2:    4604        .F      MOV      r4,r0
        0x080005f4:    460d        .F      MOV      r5,r1
        0x080005f6:    4629        )F      MOV      r1,r5
        0x080005f8:    4620         F      MOV      r0,r4
        0x080005fa:    f002fb87    ....    BL       USART3_Read ; 0x8002d0c
        0x080005fe:    bd70        p.      POP      {r4-r6,pc}
    i.HAL_AT_Send
    HAL_AT_Send
        0x08000600:    b570        p.      PUSH     {r4-r6,lr}
        0x08000602:    4604        .F      MOV      r4,r0
        0x08000604:    460d        .F      MOV      r5,r1
        0x08000606:    4629        )F      MOV      r1,r5
        0x08000608:    4620         F      MOV      r0,r4
        0x0800060a:    f002fb93    ....    BL       USART3_Write ; 0x8002d34
        0x0800060e:    bd70        p.      POP      {r4-r6,pc}
    i.HAL_DMA_Abort
    HAL_DMA_Abort
        0x08000610:    4601        .F      MOV      r1,r0
        0x08000612:    2200        ."      MOVS     r2,#0
        0x08000614:    f8910021    ..!.    LDRB     r0,[r1,#0x21]
        0x08000618:    2802        .(      CMP      r0,#2
        0x0800061a:    d008        ..      BEQ      0x800062e ; HAL_DMA_Abort + 30
        0x0800061c:    2004        .       MOVS     r0,#4
        0x0800061e:    6388        .c      STR      r0,[r1,#0x38]
        0x08000620:    bf00        ..      NOP      
        0x08000622:    2000        .       MOVS     r0,#0
        0x08000624:    f8810020    .. .    STRB     r0,[r1,#0x20]
        0x08000628:    bf00        ..      NOP      
        0x0800062a:    2001        .       MOVS     r0,#1
        0x0800062c:    4770        pG      BX       lr
        0x0800062e:    6808        .h      LDR      r0,[r1,#0]
        0x08000630:    6800        .h      LDR      r0,[r0,#0]
        0x08000632:    f020000e     ...    BIC      r0,r0,#0xe
        0x08000636:    680b        .h      LDR      r3,[r1,#0]
        0x08000638:    6018        .`      STR      r0,[r3,#0]
        0x0800063a:    6808        .h      LDR      r0,[r1,#0]
        0x0800063c:    6800        .h      LDR      r0,[r0,#0]
        0x0800063e:    f0200001     ...    BIC      r0,r0,#1
        0x08000642:    680b        .h      LDR      r3,[r1,#0]
        0x08000644:    6018        .`      STR      r0,[r3,#0]
        0x08000646:    f8913040    ..@0    LDRB     r3,[r1,#0x40]
        0x0800064a:    2001        .       MOVS     r0,#1
        0x0800064c:    4098        .@      LSLS     r0,r0,r3
        0x0800064e:    6bcb        .k      LDR      r3,[r1,#0x3c]
        0x08000650:    6058        X`      STR      r0,[r3,#4]
        0x08000652:    2001        .       MOVS     r0,#1
        0x08000654:    f8810021    ..!.    STRB     r0,[r1,#0x21]
        0x08000658:    bf00        ..      NOP      
        0x0800065a:    2000        .       MOVS     r0,#0
        0x0800065c:    f8810020    .. .    STRB     r0,[r1,#0x20]
        0x08000660:    bf00        ..      NOP      
        0x08000662:    4610        .F      MOV      r0,r2
        0x08000664:    e7e2        ..      B        0x800062c ; HAL_DMA_Abort + 28
        0x08000666:    0000        ..      MOVS     r0,r0
    i.HAL_DMA_Abort_IT
    HAL_DMA_Abort_IT
        0x08000668:    b570        p.      PUSH     {r4-r6,lr}
        0x0800066a:    4604        .F      MOV      r4,r0
        0x0800066c:    2500        .%      MOVS     r5,#0
        0x0800066e:    f8940021    ..!.    LDRB     r0,[r4,#0x21]
        0x08000672:    2802        .(      CMP      r0,#2
        0x08000674:    d003        ..      BEQ      0x800067e ; HAL_DMA_Abort_IT + 22
        0x08000676:    2004        .       MOVS     r0,#4
        0x08000678:    63a0        .c      STR      r0,[r4,#0x38]
        0x0800067a:    2501        .%      MOVS     r5,#1
        0x0800067c:    e0c1        ..      B        0x8000802 ; HAL_DMA_Abort_IT + 410
        0x0800067e:    6820         h      LDR      r0,[r4,#0]
        0x08000680:    6800        .h      LDR      r0,[r0,#0]
        0x08000682:    f020000e     ...    BIC      r0,r0,#0xe
        0x08000686:    6821        !h      LDR      r1,[r4,#0]
        0x08000688:    6008        .`      STR      r0,[r1,#0]
        0x0800068a:    6820         h      LDR      r0,[r4,#0]
        0x0800068c:    6800        .h      LDR      r0,[r0,#0]
        0x0800068e:    f0200001     ...    BIC      r0,r0,#1
        0x08000692:    6821        !h      LDR      r1,[r4,#0]
        0x08000694:    6008        .`      STR      r0,[r1,#0]
        0x08000696:    495c        \I      LDR      r1,[pc,#368] ; [0x8000808] = 0x40020080
        0x08000698:    6820         h      LDR      r0,[r4,#0]
        0x0800069a:    4288        .B      CMP      r0,r1
        0x0800069c:    d952        R.      BLS      0x8000744 ; HAL_DMA_Abort_IT + 220
        0x0800069e:    495a        ZI      LDR      r1,[pc,#360] ; [0x8000808] = 0x40020080
        0x080006a0:    3978        x9      SUBS     r1,r1,#0x78
        0x080006a2:    6820         h      LDR      r0,[r4,#0]
        0x080006a4:    4288        .B      CMP      r0,r1
        0x080006a6:    d101        ..      BNE      0x80006ac ; HAL_DMA_Abort_IT + 68
        0x080006a8:    2001        .       MOVS     r0,#1
        0x080006aa:    e047        G.      B        0x800073c ; HAL_DMA_Abort_IT + 212
        0x080006ac:    4956        VI      LDR      r1,[pc,#344] ; [0x8000808] = 0x40020080
        0x080006ae:    3964        d9      SUBS     r1,r1,#0x64
        0x080006b0:    6820         h      LDR      r0,[r4,#0]
        0x080006b2:    4288        .B      CMP      r0,r1
        0x080006b4:    d101        ..      BNE      0x80006ba ; HAL_DMA_Abort_IT + 82
        0x080006b6:    2010        .       MOVS     r0,#0x10
        0x080006b8:    e040        @.      B        0x800073c ; HAL_DMA_Abort_IT + 212
        0x080006ba:    4953        SI      LDR      r1,[pc,#332] ; [0x8000808] = 0x40020080
        0x080006bc:    3950        P9      SUBS     r1,r1,#0x50
        0x080006be:    6820         h      LDR      r0,[r4,#0]
        0x080006c0:    4288        .B      CMP      r0,r1
        0x080006c2:    d101        ..      BNE      0x80006c8 ; HAL_DMA_Abort_IT + 96
        0x080006c4:    1580        ..      ASRS     r0,r0,#22
        0x080006c6:    e039        9.      B        0x800073c ; HAL_DMA_Abort_IT + 212
        0x080006c8:    494f        OI      LDR      r1,[pc,#316] ; [0x8000808] = 0x40020080
        0x080006ca:    393c        <9      SUBS     r1,r1,#0x3c
        0x080006cc:    6820         h      LDR      r0,[r4,#0]
        0x080006ce:    4288        .B      CMP      r0,r1
        0x080006d0:    d101        ..      BNE      0x80006d6 ; HAL_DMA_Abort_IT + 110
        0x080006d2:    1480        ..      ASRS     r0,r0,#18
        0x080006d4:    e032        2.      B        0x800073c ; HAL_DMA_Abort_IT + 212
        0x080006d6:    494c        LI      LDR      r1,[pc,#304] ; [0x8000808] = 0x40020080
        0x080006d8:    3928        (9      SUBS     r1,r1,#0x28
        0x080006da:    6820         h      LDR      r0,[r4,#0]
        0x080006dc:    4288        .B      CMP      r0,r1
        0x080006de:    d102        ..      BNE      0x80006e6 ; HAL_DMA_Abort_IT + 126
        0x080006e0:    f44f3080    O..0    MOV      r0,#0x10000
        0x080006e4:    e02a        *.      B        0x800073c ; HAL_DMA_Abort_IT + 212
        0x080006e6:    4948        HI      LDR      r1,[pc,#288] ; [0x8000808] = 0x40020080
        0x080006e8:    3914        .9      SUBS     r1,r1,#0x14
        0x080006ea:    6820         h      LDR      r0,[r4,#0]
        0x080006ec:    4288        .B      CMP      r0,r1
        0x080006ee:    d102        ..      BNE      0x80006f6 ; HAL_DMA_Abort_IT + 142
        0x080006f0:    f44f1080    O...    MOV      r0,#0x100000
        0x080006f4:    e022        ".      B        0x800073c ; HAL_DMA_Abort_IT + 212
        0x080006f6:    4944        DI      LDR      r1,[pc,#272] ; [0x8000808] = 0x40020080
        0x080006f8:    6820         h      LDR      r0,[r4,#0]
        0x080006fa:    4288        .B      CMP      r0,r1
        0x080006fc:    d101        ..      BNE      0x8000702 ; HAL_DMA_Abort_IT + 154
        0x080006fe:    0440        @.      LSLS     r0,r0,#17
        0x08000700:    e01c        ..      B        0x800073c ; HAL_DMA_Abort_IT + 212
        0x08000702:    4942        BI      LDR      r1,[pc,#264] ; [0x800080c] = 0x40020408
        0x08000704:    6820         h      LDR      r0,[r4,#0]
        0x08000706:    4288        .B      CMP      r0,r1
        0x08000708:    d101        ..      BNE      0x800070e ; HAL_DMA_Abort_IT + 166
        0x0800070a:    2001        .       MOVS     r0,#1
        0x0800070c:    e016        ..      B        0x800073c ; HAL_DMA_Abort_IT + 212
        0x0800070e:    493f        ?I      LDR      r1,[pc,#252] ; [0x800080c] = 0x40020408
        0x08000710:    3114        .1      ADDS     r1,r1,#0x14
        0x08000712:    6820         h      LDR      r0,[r4,#0]
        0x08000714:    4288        .B      CMP      r0,r1
        0x08000716:    d101        ..      BNE      0x800071c ; HAL_DMA_Abort_IT + 180
        0x08000718:    2010        .       MOVS     r0,#0x10
        0x0800071a:    e00f        ..      B        0x800073c ; HAL_DMA_Abort_IT + 212
        0x0800071c:    493b        ;I      LDR      r1,[pc,#236] ; [0x800080c] = 0x40020408
        0x0800071e:    3128        (1      ADDS     r1,r1,#0x28
        0x08000720:    6820         h      LDR      r0,[r4,#0]
        0x08000722:    4288        .B      CMP      r0,r1
        0x08000724:    d101        ..      BNE      0x800072a ; HAL_DMA_Abort_IT + 194
        0x08000726:    1580        ..      ASRS     r0,r0,#22
        0x08000728:    e008        ..      B        0x800073c ; HAL_DMA_Abort_IT + 212
        0x0800072a:    4938        8I      LDR      r1,[pc,#224] ; [0x800080c] = 0x40020408
        0x0800072c:    313c        <1      ADDS     r1,r1,#0x3c
        0x0800072e:    6820         h      LDR      r0,[r4,#0]
        0x08000730:    4288        .B      CMP      r0,r1
        0x08000732:    d101        ..      BNE      0x8000738 ; HAL_DMA_Abort_IT + 208
        0x08000734:    1480        ..      ASRS     r0,r0,#18
        0x08000736:    e001        ..      B        0x800073c ; HAL_DMA_Abort_IT + 212
        0x08000738:    f44f3080    O..0    MOV      r0,#0x10000
        0x0800073c:    4933        3I      LDR      r1,[pc,#204] ; [0x800080c] = 0x40020408
        0x0800073e:    1f09        ..      SUBS     r1,r1,#4
        0x08000740:    6008        .`      STR      r0,[r1,#0]
        0x08000742:    e051        Q.      B        0x80007e8 ; HAL_DMA_Abort_IT + 384
        0x08000744:    4930        0I      LDR      r1,[pc,#192] ; [0x8000808] = 0x40020080
        0x08000746:    3978        x9      SUBS     r1,r1,#0x78
        0x08000748:    6820         h      LDR      r0,[r4,#0]
        0x0800074a:    4288        .B      CMP      r0,r1
        0x0800074c:    d101        ..      BNE      0x8000752 ; HAL_DMA_Abort_IT + 234
        0x0800074e:    2001        .       MOVS     r0,#1
        0x08000750:    e047        G.      B        0x80007e2 ; HAL_DMA_Abort_IT + 378
        0x08000752:    492d        -I      LDR      r1,[pc,#180] ; [0x8000808] = 0x40020080
        0x08000754:    3964        d9      SUBS     r1,r1,#0x64
        0x08000756:    6820         h      LDR      r0,[r4,#0]
        0x08000758:    4288        .B      CMP      r0,r1
        0x0800075a:    d101        ..      BNE      0x8000760 ; HAL_DMA_Abort_IT + 248
        0x0800075c:    2010        .       MOVS     r0,#0x10
        0x0800075e:    e040        @.      B        0x80007e2 ; HAL_DMA_Abort_IT + 378
        0x08000760:    4929        )I      LDR      r1,[pc,#164] ; [0x8000808] = 0x40020080
        0x08000762:    3950        P9      SUBS     r1,r1,#0x50
        0x08000764:    6820         h      LDR      r0,[r4,#0]
        0x08000766:    4288        .B      CMP      r0,r1
        0x08000768:    d101        ..      BNE      0x800076e ; HAL_DMA_Abort_IT + 262
        0x0800076a:    1580        ..      ASRS     r0,r0,#22
        0x0800076c:    e039        9.      B        0x80007e2 ; HAL_DMA_Abort_IT + 378
        0x0800076e:    4926        &I      LDR      r1,[pc,#152] ; [0x8000808] = 0x40020080
        0x08000770:    393c        <9      SUBS     r1,r1,#0x3c
        0x08000772:    6820         h      LDR      r0,[r4,#0]
        0x08000774:    4288        .B      CMP      r0,r1
        0x08000776:    d101        ..      BNE      0x800077c ; HAL_DMA_Abort_IT + 276
        0x08000778:    1480        ..      ASRS     r0,r0,#18
        0x0800077a:    e032        2.      B        0x80007e2 ; HAL_DMA_Abort_IT + 378
        0x0800077c:    4922        "I      LDR      r1,[pc,#136] ; [0x8000808] = 0x40020080
        0x0800077e:    3928        (9      SUBS     r1,r1,#0x28
        0x08000780:    6820         h      LDR      r0,[r4,#0]
        0x08000782:    4288        .B      CMP      r0,r1
        0x08000784:    d102        ..      BNE      0x800078c ; HAL_DMA_Abort_IT + 292
        0x08000786:    f44f3080    O..0    MOV      r0,#0x10000
        0x0800078a:    e02a        *.      B        0x80007e2 ; HAL_DMA_Abort_IT + 378
        0x0800078c:    491e        .I      LDR      r1,[pc,#120] ; [0x8000808] = 0x40020080
        0x0800078e:    3914        .9      SUBS     r1,r1,#0x14
        0x08000790:    6820         h      LDR      r0,[r4,#0]
        0x08000792:    4288        .B      CMP      r0,r1
        0x08000794:    d102        ..      BNE      0x800079c ; HAL_DMA_Abort_IT + 308
        0x08000796:    f44f1080    O...    MOV      r0,#0x100000
        0x0800079a:    e022        ".      B        0x80007e2 ; HAL_DMA_Abort_IT + 378
        0x0800079c:    491a        .I      LDR      r1,[pc,#104] ; [0x8000808] = 0x40020080
        0x0800079e:    6820         h      LDR      r0,[r4,#0]
        0x080007a0:    4288        .B      CMP      r0,r1
        0x080007a2:    d101        ..      BNE      0x80007a8 ; HAL_DMA_Abort_IT + 320
        0x080007a4:    0440        @.      LSLS     r0,r0,#17
        0x080007a6:    e01c        ..      B        0x80007e2 ; HAL_DMA_Abort_IT + 378
        0x080007a8:    4918        .I      LDR      r1,[pc,#96] ; [0x800080c] = 0x40020408
        0x080007aa:    6820         h      LDR      r0,[r4,#0]
        0x080007ac:    4288        .B      CMP      r0,r1
        0x080007ae:    d101        ..      BNE      0x80007b4 ; HAL_DMA_Abort_IT + 332
        0x080007b0:    2001        .       MOVS     r0,#1
        0x080007b2:    e016        ..      B        0x80007e2 ; HAL_DMA_Abort_IT + 378
        0x080007b4:    4915        .I      LDR      r1,[pc,#84] ; [0x800080c] = 0x40020408
        0x080007b6:    3114        .1      ADDS     r1,r1,#0x14
        0x080007b8:    6820         h      LDR      r0,[r4,#0]
        0x080007ba:    4288        .B      CMP      r0,r1
        0x080007bc:    d101        ..      BNE      0x80007c2 ; HAL_DMA_Abort_IT + 346
        0x080007be:    2010        .       MOVS     r0,#0x10
        0x080007c0:    e00f        ..      B        0x80007e2 ; HAL_DMA_Abort_IT + 378
        0x080007c2:    4912        .I      LDR      r1,[pc,#72] ; [0x800080c] = 0x40020408
        0x080007c4:    3128        (1      ADDS     r1,r1,#0x28
        0x080007c6:    6820         h      LDR      r0,[r4,#0]
        0x080007c8:    4288        .B      CMP      r0,r1
        0x080007ca:    d101        ..      BNE      0x80007d0 ; HAL_DMA_Abort_IT + 360
        0x080007cc:    1580        ..      ASRS     r0,r0,#22
        0x080007ce:    e008        ..      B        0x80007e2 ; HAL_DMA_Abort_IT + 378
        0x080007d0:    490e        .I      LDR      r1,[pc,#56] ; [0x800080c] = 0x40020408
        0x080007d2:    313c        <1      ADDS     r1,r1,#0x3c
        0x080007d4:    6820         h      LDR      r0,[r4,#0]
        0x080007d6:    4288        .B      CMP      r0,r1
        0x080007d8:    d101        ..      BNE      0x80007de ; HAL_DMA_Abort_IT + 374
        0x080007da:    1480        ..      ASRS     r0,r0,#18
        0x080007dc:    e001        ..      B        0x80007e2 ; HAL_DMA_Abort_IT + 378
        0x080007de:    f44f3080    O..0    MOV      r0,#0x10000
        0x080007e2:    4909        .I      LDR      r1,[pc,#36] ; [0x8000808] = 0x40020080
        0x080007e4:    3980        .9      SUBS     r1,r1,#0x80
        0x080007e6:    6048        H`      STR      r0,[r1,#4]
        0x080007e8:    2001        .       MOVS     r0,#1
        0x080007ea:    f8840021    ..!.    STRB     r0,[r4,#0x21]
        0x080007ee:    bf00        ..      NOP      
        0x080007f0:    2000        .       MOVS     r0,#0
        0x080007f2:    f8840020    .. .    STRB     r0,[r4,#0x20]
        0x080007f6:    bf00        ..      NOP      
        0x080007f8:    6b60        `k      LDR      r0,[r4,#0x34]
        0x080007fa:    b110        ..      CBZ      r0,0x8000802 ; HAL_DMA_Abort_IT + 410
        0x080007fc:    4620         F      MOV      r0,r4
        0x080007fe:    6b61        ak      LDR      r1,[r4,#0x34]
        0x08000800:    4788        .G      BLX      r1
        0x08000802:    4628        (F      MOV      r0,r5
        0x08000804:    bd70        p.      POP      {r4-r6,pc}
    $d
        0x08000806:    0000        ..      DCW    0
        0x08000808:    40020080    ...@    DCD    1073873024
        0x0800080c:    40020408    ...@    DCD    1073873928
    $t
    i.HAL_GPIO_EXTI_Callback
    HAL_GPIO_EXTI_Callback
        0x08000810:    b510        ..      PUSH     {r4,lr}
        0x08000812:    4604        .F      MOV      r4,r0
        0x08000814:    f5b44f80    ...O    CMP      r4,#0x4000
        0x08000818:    d107        ..      BNE      0x800082a ; HAL_GPIO_EXTI_Callback + 26
        0x0800081a:    f44f4180    O..A    MOV      r1,#0x4000
        0x0800081e:    4808        .H      LDR      r0,[pc,#32] ; [0x8000840] = 0x40011800
        0x08000820:    f000f9c2    ....    BL       HAL_GPIO_ReadPin ; 0x8000ba8
        0x08000824:    4907        .I      LDR      r1,[pc,#28] ; [0x8000844] = 0x20000017
        0x08000826:    7008        .p      STRB     r0,[r1,#0]
        0x08000828:    e009        ..      B        0x800083e ; HAL_GPIO_EXTI_Callback + 46
        0x0800082a:    f5b44f00    ...O    CMP      r4,#0x8000
        0x0800082e:    d106        ..      BNE      0x800083e ; HAL_GPIO_EXTI_Callback + 46
        0x08000830:    f44f4100    O..A    MOV      r1,#0x8000
        0x08000834:    4802        .H      LDR      r0,[pc,#8] ; [0x8000840] = 0x40011800
        0x08000836:    f000f9b7    ....    BL       HAL_GPIO_ReadPin ; 0x8000ba8
        0x0800083a:    4903        .I      LDR      r1,[pc,#12] ; [0x8000848] = 0x20000018
        0x0800083c:    7008        .p      STRB     r0,[r1,#0]
        0x0800083e:    bd10        ..      POP      {r4,pc}
    $d
        0x08000840:    40011800    ...@    DCD    1073813504
        0x08000844:    20000017    ...     DCD    536870935
        0x08000848:    20000018    ...     DCD    536870936
    $t
    i.HAL_GPIO_EXTI_IRQHandler
    HAL_GPIO_EXTI_IRQHandler
        0x0800084c:    b510        ..      PUSH     {r4,lr}
        0x0800084e:    4604        .F      MOV      r4,r0
        0x08000850:    4804        .H      LDR      r0,[pc,#16] ; [0x8000864] = 0x40010414
        0x08000852:    6800        .h      LDR      r0,[r0,#0]
        0x08000854:    4020         @      ANDS     r0,r0,r4
        0x08000856:    b120         .      CBZ      r0,0x8000862 ; HAL_GPIO_EXTI_IRQHandler + 22
        0x08000858:    4802        .H      LDR      r0,[pc,#8] ; [0x8000864] = 0x40010414
        0x0800085a:    6004        .`      STR      r4,[r0,#0]
        0x0800085c:    4620         F      MOV      r0,r4
        0x0800085e:    f7ffffd7    ....    BL       HAL_GPIO_EXTI_Callback ; 0x8000810
        0x08000862:    bd10        ..      POP      {r4,pc}
    $d
        0x08000864:    40010414    ...@    DCD    1073808404
    $t
    i.HAL_GPIO_Init
    HAL_GPIO_Init
        0x08000868:    e92d47f8    -..G    PUSH     {r3-r10,lr}
        0x0800086c:    4602        .F      MOV      r2,r0
        0x0800086e:    2300        .#      MOVS     r3,#0
        0x08000870:    469c        .F      MOV      r12,r3
        0x08000872:    e17b        {.      B        0x8000b6c ; HAL_GPIO_Init + 772
        0x08000874:    f04f0801    O...    MOV      r8,#1
        0x08000878:    fa08f403    ....    LSL      r4,r8,r3
        0x0800087c:    f8d18000    ....    LDR      r8,[r1,#0]
        0x08000880:    ea080004    ....    AND      r0,r8,r4
        0x08000884:    42a0        .B      CMP      r0,r4
        0x08000886:    d17d        }.      BNE      0x8000984 ; HAL_GPIO_Init + 284
        0x08000888:    f8dfa2f4    ....    LDR      r10,[pc,#756] ; [0x8000b80] = 0x10110000
        0x0800088c:    f8d18004    ....    LDR      r8,[r1,#4]
        0x08000890:    eba8090a    ....    SUB      r9,r8,r10
        0x08000894:    45d0        .E      CMP      r8,r10
        0x08000896:    d03a        :.      BEQ      0x800090e ; HAL_GPIO_Init + 166
        0x08000898:    dc14        ..      BGT      0x80008c4 ; HAL_GPIO_Init + 92
        0x0800089a:    f1b80f03    ....    CMP      r8,#3
        0x0800089e:    d050        P.      BEQ      0x8000942 ; HAL_GPIO_Init + 218
        0x080008a0:    dc09        ..      BGT      0x80008b6 ; HAL_GPIO_Init + 78
        0x080008a2:    f1b80f00    ....    CMP      r8,#0
        0x080008a6:    d031        1.      BEQ      0x800090c ; HAL_GPIO_Init + 164
        0x080008a8:    f1b80f01    ....    CMP      r8,#1
        0x080008ac:    d01c        ..      BEQ      0x80008e8 ; HAL_GPIO_Init + 128
        0x080008ae:    f1b80f02    ....    CMP      r8,#2
        0x080008b2:    d149        I.      BNE      0x8000948 ; HAL_GPIO_Init + 224
        0x080008b4:    e020         .      B        0x80008f8 ; HAL_GPIO_Init + 144
        0x080008b6:    f1b80f11    ....    CMP      r8,#0x11
        0x080008ba:    d018        ..      BEQ      0x80008ee ; HAL_GPIO_Init + 134
        0x080008bc:    f1b80f12    ....    CMP      r8,#0x12
        0x080008c0:    d142        B.      BNE      0x8000948 ; HAL_GPIO_Init + 224
        0x080008c2:    e01e        ..      B        0x8000902 ; HAL_GPIO_Init + 154
        0x080008c4:    f5b91f88    ....    CMP      r9,#0x110000
        0x080008c8:    d025        %.      BEQ      0x8000916 ; HAL_GPIO_Init + 174
        0x080008ca:    dc06        ..      BGT      0x80008da ; HAL_GPIO_Init + 114
        0x080008cc:    f5b93f80    ...?    CMP      r9,#0x10000
        0x080008d0:    d020         .      BEQ      0x8000914 ; HAL_GPIO_Init + 172
        0x080008d2:    f5b91f80    ....    CMP      r9,#0x100000
        0x080008d6:    d137        7.      BNE      0x8000948 ; HAL_GPIO_Init + 224
        0x080008d8:    e01a        ..      B        0x8000910 ; HAL_GPIO_Init + 168
        0x080008da:    f5b91f00    ....    CMP      r9,#0x200000
        0x080008de:    d018        ..      BEQ      0x8000912 ; HAL_GPIO_Init + 170
        0x080008e0:    f5b91f04    ....    CMP      r9,#0x210000
        0x080008e4:    d130        0.      BNE      0x8000948 ; HAL_GPIO_Init + 224
        0x080008e6:    e017        ..      B        0x8000918 ; HAL_GPIO_Init + 176
        0x080008e8:    f8d1c00c    ....    LDR      r12,[r1,#0xc]
        0x080008ec:    e02d        -.      B        0x800094a ; HAL_GPIO_Init + 226
        0x080008ee:    f8d1800c    ....    LDR      r8,[r1,#0xc]
        0x080008f2:    f1080c04    ....    ADD      r12,r8,#4
        0x080008f6:    e028        (.      B        0x800094a ; HAL_GPIO_Init + 226
        0x080008f8:    f8d1800c    ....    LDR      r8,[r1,#0xc]
        0x080008fc:    f1080c08    ....    ADD      r12,r8,#8
        0x08000900:    e023        #.      B        0x800094a ; HAL_GPIO_Init + 226
        0x08000902:    f8d1800c    ....    LDR      r8,[r1,#0xc]
        0x08000906:    f1080c0c    ....    ADD      r12,r8,#0xc
        0x0800090a:    e01e        ..      B        0x800094a ; HAL_GPIO_Init + 226
        0x0800090c:    bf00        ..      NOP      
        0x0800090e:    bf00        ..      NOP      
        0x08000910:    bf00        ..      NOP      
        0x08000912:    bf00        ..      NOP      
        0x08000914:    bf00        ..      NOP      
        0x08000916:    bf00        ..      NOP      
        0x08000918:    f8d18008    ....    LDR      r8,[r1,#8]
        0x0800091c:    f1b80f00    ....    CMP      r8,#0
        0x08000920:    d102        ..      BNE      0x8000928 ; HAL_GPIO_Init + 192
        0x08000922:    f04f0c04    O...    MOV      r12,#4
        0x08000926:    e00b        ..      B        0x8000940 ; HAL_GPIO_Init + 216
        0x08000928:    f8d18008    ....    LDR      r8,[r1,#8]
        0x0800092c:    f1b80f01    ....    CMP      r8,#1
        0x08000930:    d103        ..      BNE      0x800093a ; HAL_GPIO_Init + 210
        0x08000932:    f04f0c08    O...    MOV      r12,#8
        0x08000936:    6114        .a      STR      r4,[r2,#0x10]
        0x08000938:    e002        ..      B        0x8000940 ; HAL_GPIO_Init + 216
        0x0800093a:    f04f0c08    O...    MOV      r12,#8
        0x0800093e:    6154        Ta      STR      r4,[r2,#0x14]
        0x08000940:    e003        ..      B        0x800094a ; HAL_GPIO_Init + 226
        0x08000942:    f04f0c00    O...    MOV      r12,#0
        0x08000946:    e000        ..      B        0x800094a ; HAL_GPIO_Init + 226
        0x08000948:    bf00        ..      NOP      
        0x0800094a:    bf00        ..      NOP      
        0x0800094c:    28ff        .(      CMP      r0,#0xff
        0x0800094e:    d801        ..      BHI      0x8000954 ; HAL_GPIO_Init + 236
        0x08000950:    4690        .F      MOV      r8,r2
        0x08000952:    e001        ..      B        0x8000958 ; HAL_GPIO_Init + 240
        0x08000954:    f1020804    ....    ADD      r8,r2,#4
        0x08000958:    4646        FF      MOV      r6,r8
        0x0800095a:    28ff        .(      CMP      r0,#0xff
        0x0800095c:    d802        ..      BHI      0x8000964 ; HAL_GPIO_Init + 252
        0x0800095e:    ea4f0883    O...    LSL      r8,r3,#2
        0x08000962:    e003        ..      B        0x800096c ; HAL_GPIO_Init + 260
        0x08000964:    f1a30808    ....    SUB      r8,r3,#8
        0x08000968:    ea4f0888    O...    LSL      r8,r8,#2
        0x0800096c:    4647        GF      MOV      r7,r8
        0x0800096e:    f8d68000    ....    LDR      r8,[r6,#0]
        0x08000972:    f04f090f    O...    MOV      r9,#0xf
        0x08000976:    fa09f907    ....    LSL      r9,r9,r7
        0x0800097a:    ea280809    (...    BIC      r8,r8,r9
        0x0800097e:    fa0cf907    ....    LSL      r9,r12,r7
        0x08000982:    e000        ..      B        0x8000986 ; HAL_GPIO_Init + 286
        0x08000984:    e07a        z.      B        0x8000a7c ; HAL_GPIO_Init + 532
        0x08000986:    ea480809    H...    ORR      r8,r8,r9
        0x0800098a:    f8c68000    ....    STR      r8,[r6,#0]
        0x0800098e:    f8d18004    ....    LDR      r8,[r1,#4]
        0x08000992:    f0085880    ...X    AND      r8,r8,#0x10000000
        0x08000996:    f1b85f80    ..._    CMP      r8,#0x10000000
        0x0800099a:    d16f        o.      BNE      0x8000a7c ; HAL_GPIO_Init + 532
        0x0800099c:    bf00        ..      NOP      
        0x0800099e:    f8df81e4    ....    LDR      r8,[pc,#484] ; [0x8000b84] = 0x40021000
        0x080009a2:    f8d88018    ....    LDR      r8,[r8,#0x18]
        0x080009a6:    f0480801    H...    ORR      r8,r8,#1
        0x080009aa:    f8df91d8    ....    LDR      r9,[pc,#472] ; [0x8000b84] = 0x40021000
        0x080009ae:    f8c98018    ....    STR      r8,[r9,#0x18]
        0x080009b2:    46c8        .F      MOV      r8,r9
        0x080009b4:    f8d88018    ....    LDR      r8,[r8,#0x18]
        0x080009b8:    f0080801    ....    AND      r8,r8,#1
        0x080009bc:    f8cd8000    ....    STR      r8,[sp,#0]
        0x080009c0:    bf00        ..      NOP      
        0x080009c2:    bf00        ..      NOP      
        0x080009c4:    ea4f38b9    O..8    ROR      r8,r9,#14
        0x080009c8:    ea4f0993    O...    LSR      r9,r3,#2
        0x080009cc:    f8585029    X.)P    LDR      r5,[r8,r9,LSL #2]
        0x080009d0:    ea4f7883    O..x    LSL      r8,r3,#30
        0x080009d4:    ea4f7918    O..y    LSR      r9,r8,#28
        0x080009d8:    f04f080f    O...    MOV      r8,#0xf
        0x080009dc:    fa08f809    ....    LSL      r8,r8,r9
        0x080009e0:    ea250508    %...    BIC      r5,r5,r8
        0x080009e4:    f8df81a0    ....    LDR      r8,[pc,#416] ; [0x8000b88] = 0x40010800
        0x080009e8:    4542        BE      CMP      r2,r8
        0x080009ea:    d102        ..      BNE      0x80009f2 ; HAL_GPIO_Init + 394
        0x080009ec:    f04f0800    O...    MOV      r8,#0
        0x080009f0:    e024        $.      B        0x8000a3c ; HAL_GPIO_Init + 468
        0x080009f2:    f8df8198    ....    LDR      r8,[pc,#408] ; [0x8000b8c] = 0x40010c00
        0x080009f6:    4542        BE      CMP      r2,r8
        0x080009f8:    d102        ..      BNE      0x8000a00 ; HAL_GPIO_Init + 408
        0x080009fa:    f04f0801    O...    MOV      r8,#1
        0x080009fe:    e01d        ..      B        0x8000a3c ; HAL_GPIO_Init + 468
        0x08000a00:    f8df818c    ....    LDR      r8,[pc,#396] ; [0x8000b90] = 0x40011000
        0x08000a04:    4542        BE      CMP      r2,r8
        0x08000a06:    d102        ..      BNE      0x8000a0e ; HAL_GPIO_Init + 422
        0x08000a08:    f04f0802    O...    MOV      r8,#2
        0x08000a0c:    e016        ..      B        0x8000a3c ; HAL_GPIO_Init + 468
        0x08000a0e:    f8df8184    ....    LDR      r8,[pc,#388] ; [0x8000b94] = 0x40011400
        0x08000a12:    4542        BE      CMP      r2,r8
        0x08000a14:    d102        ..      BNE      0x8000a1c ; HAL_GPIO_Init + 436
        0x08000a16:    f04f0803    O...    MOV      r8,#3
        0x08000a1a:    e00f        ..      B        0x8000a3c ; HAL_GPIO_Init + 468
        0x08000a1c:    f8df8178    ..x.    LDR      r8,[pc,#376] ; [0x8000b98] = 0x40011800
        0x08000a20:    4542        BE      CMP      r2,r8
        0x08000a22:    d102        ..      BNE      0x8000a2a ; HAL_GPIO_Init + 450
        0x08000a24:    f04f0804    O...    MOV      r8,#4
        0x08000a28:    e008        ..      B        0x8000a3c ; HAL_GPIO_Init + 468
        0x08000a2a:    f8df8170    ..p.    LDR      r8,[pc,#368] ; [0x8000b9c] = 0x40011c00
        0x08000a2e:    4542        BE      CMP      r2,r8
        0x08000a30:    d102        ..      BNE      0x8000a38 ; HAL_GPIO_Init + 464
        0x08000a32:    f04f0805    O...    MOV      r8,#5
        0x08000a36:    e001        ..      B        0x8000a3c ; HAL_GPIO_Init + 468
        0x08000a38:    f04f0806    O...    MOV      r8,#6
        0x08000a3c:    ea4f7983    O..y    LSL      r9,r3,#30
        0x08000a40:    ea4f7919    O..y    LSR      r9,r9,#28
        0x08000a44:    fa08f809    ....    LSL      r8,r8,r9
        0x08000a48:    ea480505    H...    ORR      r5,r8,r5
        0x08000a4c:    f8df8150    ..P.    LDR      r8,[pc,#336] ; [0x8000ba0] = 0x40010008
        0x08000a50:    ea4f0993    O...    LSR      r9,r3,#2
        0x08000a54:    f8485029    H.)P    STR      r5,[r8,r9,LSL #2]
        0x08000a58:    f8d18004    ....    LDR      r8,[r1,#4]
        0x08000a5c:    f4083880    ...8    AND      r8,r8,#0x10000
        0x08000a60:    f5b83f80    ...?    CMP      r8,#0x10000
        0x08000a64:    d10b        ..      BNE      0x8000a7e ; HAL_GPIO_Init + 534
        0x08000a66:    f8df813c    ..<.    LDR      r8,[pc,#316] ; [0x8000ba4] = 0x40010400
        0x08000a6a:    f8d88000    ....    LDR      r8,[r8,#0]
        0x08000a6e:    ea480800    H...    ORR      r8,r8,r0
        0x08000a72:    f8df9130    ..0.    LDR      r9,[pc,#304] ; [0x8000ba4] = 0x40010400
        0x08000a76:    f8c98000    ....    STR      r8,[r9,#0]
        0x08000a7a:    e00a        ..      B        0x8000a92 ; HAL_GPIO_Init + 554
        0x08000a7c:    e075        u.      B        0x8000b6a ; HAL_GPIO_Init + 770
        0x08000a7e:    f8df8124    ..$.    LDR      r8,[pc,#292] ; [0x8000ba4] = 0x40010400
        0x08000a82:    f8d88000    ....    LDR      r8,[r8,#0]
        0x08000a86:    ea280800    (...    BIC      r8,r8,r0
        0x08000a8a:    f8df9118    ....    LDR      r9,[pc,#280] ; [0x8000ba4] = 0x40010400
        0x08000a8e:    f8c98000    ....    STR      r8,[r9,#0]
        0x08000a92:    f8d18004    ....    LDR      r8,[r1,#4]
        0x08000a96:    f4083800    ...8    AND      r8,r8,#0x20000
        0x08000a9a:    f5b83f00    ...?    CMP      r8,#0x20000
        0x08000a9e:    d10e        ..      BNE      0x8000abe ; HAL_GPIO_Init + 598
        0x08000aa0:    f8df8100    ....    LDR      r8,[pc,#256] ; [0x8000ba4] = 0x40010400
        0x08000aa4:    f1080804    ....    ADD      r8,r8,#4
        0x08000aa8:    f8d88000    ....    LDR      r8,[r8,#0]
        0x08000aac:    ea480800    H...    ORR      r8,r8,r0
        0x08000ab0:    f8df90f0    ....    LDR      r9,[pc,#240] ; [0x8000ba4] = 0x40010400
        0x08000ab4:    f1090904    ....    ADD      r9,r9,#4
        0x08000ab8:    f8c98000    ....    STR      r8,[r9,#0]
        0x08000abc:    e00d        ..      B        0x8000ada ; HAL_GPIO_Init + 626
        0x08000abe:    f8df80e4    ....    LDR      r8,[pc,#228] ; [0x8000ba4] = 0x40010400
        0x08000ac2:    f1080804    ....    ADD      r8,r8,#4
        0x08000ac6:    f8d88000    ....    LDR      r8,[r8,#0]
        0x08000aca:    ea280800    (...    BIC      r8,r8,r0
        0x08000ace:    f8df90d4    ....    LDR      r9,[pc,#212] ; [0x8000ba4] = 0x40010400
        0x08000ad2:    f1090904    ....    ADD      r9,r9,#4
        0x08000ad6:    f8c98000    ....    STR      r8,[r9,#0]
        0x08000ada:    f8d18004    ....    LDR      r8,[r1,#4]
        0x08000ade:    f4081880    ....    AND      r8,r8,#0x100000
        0x08000ae2:    f5b81f80    ....    CMP      r8,#0x100000
        0x08000ae6:    d10e        ..      BNE      0x8000b06 ; HAL_GPIO_Init + 670
        0x08000ae8:    f8df80b8    ....    LDR      r8,[pc,#184] ; [0x8000ba4] = 0x40010400
        0x08000aec:    f1080808    ....    ADD      r8,r8,#8
        0x08000af0:    f8d88000    ....    LDR      r8,[r8,#0]
        0x08000af4:    ea480800    H...    ORR      r8,r8,r0
        0x08000af8:    f8df90a8    ....    LDR      r9,[pc,#168] ; [0x8000ba4] = 0x40010400
        0x08000afc:    f1090908    ....    ADD      r9,r9,#8
        0x08000b00:    f8c98000    ....    STR      r8,[r9,#0]
        0x08000b04:    e00d        ..      B        0x8000b22 ; HAL_GPIO_Init + 698
        0x08000b06:    f8df809c    ....    LDR      r8,[pc,#156] ; [0x8000ba4] = 0x40010400
        0x08000b0a:    f1080808    ....    ADD      r8,r8,#8
        0x08000b0e:    f8d88000    ....    LDR      r8,[r8,#0]
        0x08000b12:    ea280800    (...    BIC      r8,r8,r0
        0x08000b16:    f8df908c    ....    LDR      r9,[pc,#140] ; [0x8000ba4] = 0x40010400
        0x08000b1a:    f1090908    ....    ADD      r9,r9,#8
        0x08000b1e:    f8c98000    ....    STR      r8,[r9,#0]
        0x08000b22:    f8d18004    ....    LDR      r8,[r1,#4]
        0x08000b26:    f4081800    ....    AND      r8,r8,#0x200000
        0x08000b2a:    f5b81f00    ....    CMP      r8,#0x200000
        0x08000b2e:    d10e        ..      BNE      0x8000b4e ; HAL_GPIO_Init + 742
        0x08000b30:    f8df8070    ..p.    LDR      r8,[pc,#112] ; [0x8000ba4] = 0x40010400
        0x08000b34:    f108080c    ....    ADD      r8,r8,#0xc
        0x08000b38:    f8d88000    ....    LDR      r8,[r8,#0]
        0x08000b3c:    ea480800    H...    ORR      r8,r8,r0
        0x08000b40:    f8df9060    ..`.    LDR      r9,[pc,#96] ; [0x8000ba4] = 0x40010400
        0x08000b44:    f109090c    ....    ADD      r9,r9,#0xc
        0x08000b48:    f8c98000    ....    STR      r8,[r9,#0]
        0x08000b4c:    e00d        ..      B        0x8000b6a ; HAL_GPIO_Init + 770
        0x08000b4e:    f8df8054    ..T.    LDR      r8,[pc,#84] ; [0x8000ba4] = 0x40010400
        0x08000b52:    f108080c    ....    ADD      r8,r8,#0xc
        0x08000b56:    f8d88000    ....    LDR      r8,[r8,#0]
        0x08000b5a:    ea280800    (...    BIC      r8,r8,r0
        0x08000b5e:    f8df9044    ..D.    LDR      r9,[pc,#68] ; [0x8000ba4] = 0x40010400
        0x08000b62:    f109090c    ....    ADD      r9,r9,#0xc
        0x08000b66:    f8c98000    ....    STR      r8,[r9,#0]
        0x08000b6a:    1c5b        [.      ADDS     r3,r3,#1
        0x08000b6c:    f8d18000    ....    LDR      r8,[r1,#0]
        0x08000b70:    fa28f803    (...    LSR      r8,r8,r3
        0x08000b74:    f1b80f00    ....    CMP      r8,#0
        0x08000b78:    f47fae7c    ..|.    BNE      0x8000874 ; HAL_GPIO_Init + 12
        0x08000b7c:    e8bd87f8    ....    POP      {r3-r10,pc}
    $d
        0x08000b80:    10110000    ....    DCD    269549568
        0x08000b84:    40021000    ...@    DCD    1073876992
        0x08000b88:    40010800    ...@    DCD    1073809408
        0x08000b8c:    40010c00    ...@    DCD    1073810432
        0x08000b90:    40011000    ...@    DCD    1073811456
        0x08000b94:    40011400    ...@    DCD    1073812480
        0x08000b98:    40011800    ...@    DCD    1073813504
        0x08000b9c:    40011c00    ...@    DCD    1073814528
        0x08000ba0:    40010008    ...@    DCD    1073807368
        0x08000ba4:    40010400    ...@    DCD    1073808384
    $t
    i.HAL_GPIO_ReadPin
    HAL_GPIO_ReadPin
        0x08000ba8:    4602        .F      MOV      r2,r0
        0x08000baa:    6893        .h      LDR      r3,[r2,#8]
        0x08000bac:    400b        .@      ANDS     r3,r3,r1
        0x08000bae:    b10b        ..      CBZ      r3,0x8000bb4 ; HAL_GPIO_ReadPin + 12
        0x08000bb0:    2001        .       MOVS     r0,#1
        0x08000bb2:    e000        ..      B        0x8000bb6 ; HAL_GPIO_ReadPin + 14
        0x08000bb4:    2000        .       MOVS     r0,#0
        0x08000bb6:    4770        pG      BX       lr
    i.HAL_GPIO_WritePin
    HAL_GPIO_WritePin
        0x08000bb8:    b10a        ..      CBZ      r2,0x8000bbe ; HAL_GPIO_WritePin + 6
        0x08000bba:    6101        .a      STR      r1,[r0,#0x10]
        0x08000bbc:    e001        ..      B        0x8000bc2 ; HAL_GPIO_WritePin + 10
        0x08000bbe:    040b        ..      LSLS     r3,r1,#16
        0x08000bc0:    6103        .a      STR      r3,[r0,#0x10]
        0x08000bc2:    4770        pG      BX       lr
    i.HAL_GetTick
    HAL_GetTick
        0x08000bc4:    4801        .H      LDR      r0,[pc,#4] ; [0x8000bcc] = 0x20000004
        0x08000bc6:    6800        .h      LDR      r0,[r0,#0]
        0x08000bc8:    4770        pG      BX       lr
    $d
        0x08000bca:    0000        ..      DCW    0
        0x08000bcc:    20000004    ...     DCD    536870916
    $t
    i.HAL_IncTick
    HAL_IncTick
        0x08000bd0:    4803        .H      LDR      r0,[pc,#12] ; [0x8000be0] = 0x20000004
        0x08000bd2:    6800        .h      LDR      r0,[r0,#0]
        0x08000bd4:    4903        .I      LDR      r1,[pc,#12] ; [0x8000be4] = 0x2000000c
        0x08000bd6:    7809        .x      LDRB     r1,[r1,#0]
        0x08000bd8:    4408        .D      ADD      r0,r0,r1
        0x08000bda:    4901        .I      LDR      r1,[pc,#4] ; [0x8000be0] = 0x20000004
        0x08000bdc:    6008        .`      STR      r0,[r1,#0]
        0x08000bde:    4770        pG      BX       lr
    $d
        0x08000be0:    20000004    ...     DCD    536870916
        0x08000be4:    2000000c    ...     DCD    536870924
    $t
    i.HAL_Init
    HAL_Init
        0x08000be8:    b510        ..      PUSH     {r4,lr}
        0x08000bea:    4808        .H      LDR      r0,[pc,#32] ; [0x8000c0c] = 0x40022000
        0x08000bec:    6800        .h      LDR      r0,[r0,#0]
        0x08000bee:    f0400010    @...    ORR      r0,r0,#0x10
        0x08000bf2:    4906        .I      LDR      r1,[pc,#24] ; [0x8000c0c] = 0x40022000
        0x08000bf4:    6008        .`      STR      r0,[r1,#0]
        0x08000bf6:    2003        .       MOVS     r0,#3
        0x08000bf8:    f000f8cc    ....    BL       HAL_NVIC_SetPriorityGrouping ; 0x8000d94
        0x08000bfc:    200f        .       MOVS     r0,#0xf
        0x08000bfe:    f000f807    ....    BL       HAL_InitTick ; 0x8000c10
        0x08000c02:    f000f849    ..I.    BL       HAL_MspInit ; 0x8000c98
        0x08000c06:    2000        .       MOVS     r0,#0
        0x08000c08:    bd10        ..      POP      {r4,pc}
    $d
        0x08000c0a:    0000        ..      DCW    0
        0x08000c0c:    40022000    . .@    DCD    1073881088
    $t
    i.HAL_InitTick
    HAL_InitTick
        0x08000c10:    b570        p.      PUSH     {r4-r6,lr}
        0x08000c12:    b088        ..      SUB      sp,sp,#0x20
        0x08000c14:    4604        .F      MOV      r4,r0
        0x08000c16:    2500        .%      MOVS     r5,#0
        0x08000c18:    2600        .&      MOVS     r6,#0
        0x08000c1a:    2200        ."      MOVS     r2,#0
        0x08000c1c:    4621        !F      MOV      r1,r4
        0x08000c1e:    202c        ,       MOVS     r0,#0x2c
        0x08000c20:    f000f87a    ..z.    BL       HAL_NVIC_SetPriority ; 0x8000d18
        0x08000c24:    202c        ,       MOVS     r0,#0x2c
        0x08000c26:    f000f867    ..g.    BL       HAL_NVIC_EnableIRQ ; 0x8000cf8
        0x08000c2a:    bf00        ..      NOP      
        0x08000c2c:    4816        .H      LDR      r0,[pc,#88] ; [0x8000c88] = 0x40021000
        0x08000c2e:    6980        .i      LDR      r0,[r0,#0x18]
        0x08000c30:    f4405000    @..P    ORR      r0,r0,#0x2000
        0x08000c34:    4914        .I      LDR      r1,[pc,#80] ; [0x8000c88] = 0x40021000
        0x08000c36:    6188        .a      STR      r0,[r1,#0x18]
        0x08000c38:    4608        .F      MOV      r0,r1
        0x08000c3a:    6980        .i      LDR      r0,[r0,#0x18]
        0x08000c3c:    f4005000    ...P    AND      r0,r0,#0x2000
        0x08000c40:    9001        ..      STR      r0,[sp,#4]
        0x08000c42:    bf00        ..      NOP      
        0x08000c44:    bf00        ..      NOP      
        0x08000c46:    a902        ..      ADD      r1,sp,#8
        0x08000c48:    a803        ..      ADD      r0,sp,#0xc
        0x08000c4a:    f000f97d    ..}.    BL       HAL_RCC_GetClockConfig ; 0x8000f48
        0x08000c4e:    f000f9b3    ....    BL       HAL_RCC_GetPCLK2Freq ; 0x8000fb8
        0x08000c52:    4605        .F      MOV      r5,r0
        0x08000c54:    480d        .H      LDR      r0,[pc,#52] ; [0x8000c8c] = 0xf4240
        0x08000c56:    fbb5f0f0    ....    UDIV     r0,r5,r0
        0x08000c5a:    1e46        F.      SUBS     r6,r0,#1
        0x08000c5c:    480c        .H      LDR      r0,[pc,#48] ; [0x8000c90] = 0x40013400
        0x08000c5e:    490d        .I      LDR      r1,[pc,#52] ; [0x8000c94] = 0x20000548
        0x08000c60:    6008        .`      STR      r0,[r1,#0]
        0x08000c62:    f24031e7    @..1    MOV      r1,#0x3e7
        0x08000c66:    480b        .H      LDR      r0,[pc,#44] ; [0x8000c94] = 0x20000548
        0x08000c68:    60c1        .`      STR      r1,[r0,#0xc]
        0x08000c6a:    6046        F`      STR      r6,[r0,#4]
        0x08000c6c:    2100        .!      MOVS     r1,#0
        0x08000c6e:    6101        .a      STR      r1,[r0,#0x10]
        0x08000c70:    6081        .`      STR      r1,[r0,#8]
        0x08000c72:    f000fc2f    ../.    BL       HAL_TIM_Base_Init ; 0x80014d4
        0x08000c76:    b920         .      CBNZ     r0,0x8000c82 ; HAL_InitTick + 114
        0x08000c78:    4806        .H      LDR      r0,[pc,#24] ; [0x8000c94] = 0x20000548
        0x08000c7a:    f000fc5f    .._.    BL       HAL_TIM_Base_Start_IT ; 0x800153c
        0x08000c7e:    b008        ..      ADD      sp,sp,#0x20
        0x08000c80:    bd70        p.      POP      {r4-r6,pc}
        0x08000c82:    2001        .       MOVS     r0,#1
        0x08000c84:    e7fb        ..      B        0x8000c7e ; HAL_InitTick + 110
    $d
        0x08000c86:    0000        ..      DCW    0
        0x08000c88:    40021000    ...@    DCD    1073876992
        0x08000c8c:    000f4240    @B..    DCD    1000000
        0x08000c90:    40013400    .4.@    DCD    1073820672
        0x08000c94:    20000548    H..     DCD    536872264
    $t
    i.HAL_MspInit
    HAL_MspInit
        0x08000c98:    b508        ..      PUSH     {r3,lr}
        0x08000c9a:    bf00        ..      NOP      
        0x08000c9c:    4814        .H      LDR      r0,[pc,#80] ; [0x8000cf0] = 0x40021000
        0x08000c9e:    6980        .i      LDR      r0,[r0,#0x18]
        0x08000ca0:    f0400001    @...    ORR      r0,r0,#1
        0x08000ca4:    4912        .I      LDR      r1,[pc,#72] ; [0x8000cf0] = 0x40021000
        0x08000ca6:    6188        .a      STR      r0,[r1,#0x18]
        0x08000ca8:    4608        .F      MOV      r0,r1
        0x08000caa:    6980        .i      LDR      r0,[r0,#0x18]
        0x08000cac:    f0000001    ....    AND      r0,r0,#1
        0x08000cb0:    9000        ..      STR      r0,[sp,#0]
        0x08000cb2:    bf00        ..      NOP      
        0x08000cb4:    bf00        ..      NOP      
        0x08000cb6:    bf00        ..      NOP      
        0x08000cb8:    4608        .F      MOV      r0,r1
        0x08000cba:    69c0        .i      LDR      r0,[r0,#0x1c]
        0x08000cbc:    f0405080    @..P    ORR      r0,r0,#0x10000000
        0x08000cc0:    61c8        .a      STR      r0,[r1,#0x1c]
        0x08000cc2:    4608        .F      MOV      r0,r1
        0x08000cc4:    69c0        .i      LDR      r0,[r0,#0x1c]
        0x08000cc6:    f0005080    ...P    AND      r0,r0,#0x10000000
        0x08000cca:    9000        ..      STR      r0,[sp,#0]
        0x08000ccc:    bf00        ..      NOP      
        0x08000cce:    bf00        ..      NOP      
        0x08000cd0:    2200        ."      MOVS     r2,#0
        0x08000cd2:    210f        .!      MOVS     r1,#0xf
        0x08000cd4:    1e90        ..      SUBS     r0,r2,#2
        0x08000cd6:    f000f81f    ....    BL       HAL_NVIC_SetPriority ; 0x8000d18
        0x08000cda:    bf00        ..      NOP      
        0x08000cdc:    4905        .I      LDR      r1,[pc,#20] ; [0x8000cf4] = 0x40010000
        0x08000cde:    6848        Hh      LDR      r0,[r1,#4]
        0x08000ce0:    f02060e0     ..`    BIC      r0,r0,#0x7000000
        0x08000ce4:    f0407000    @..p    ORR      r0,r0,#0x2000000
        0x08000ce8:    6048        H`      STR      r0,[r1,#4]
        0x08000cea:    bf00        ..      NOP      
        0x08000cec:    bd08        ..      POP      {r3,pc}
    $d
        0x08000cee:    0000        ..      DCW    0
        0x08000cf0:    40021000    ...@    DCD    1073876992
        0x08000cf4:    40010000    ...@    DCD    1073807360
    $t
    i.HAL_NVIC_EnableIRQ
    HAL_NVIC_EnableIRQ
        0x08000cf8:    4601        .F      MOV      r1,r0
        0x08000cfa:    4608        .F      MOV      r0,r1
        0x08000cfc:    2800        .(      CMP      r0,#0
        0x08000cfe:    db09        ..      BLT      0x8000d14 ; HAL_NVIC_EnableIRQ + 28
        0x08000d00:    f000031f    ....    AND      r3,r0,#0x1f
        0x08000d04:    2201        ."      MOVS     r2,#1
        0x08000d06:    409a        .@      LSLS     r2,r2,r3
        0x08000d08:    0943        C.      LSRS     r3,r0,#5
        0x08000d0a:    009b        ..      LSLS     r3,r3,#2
        0x08000d0c:    f10323e0    ...#    ADD      r3,r3,#0xe000e000
        0x08000d10:    f8c32100    ...!    STR      r2,[r3,#0x100]
        0x08000d14:    bf00        ..      NOP      
        0x08000d16:    4770        pG      BX       lr
    i.HAL_NVIC_SetPriority
    HAL_NVIC_SetPriority
        0x08000d18:    e92d5ff0    -.._    PUSH     {r4-r12,lr}
        0x08000d1c:    4680        .F      MOV      r8,r0
        0x08000d1e:    460d        .F      MOV      r5,r1
        0x08000d20:    4616        .F      MOV      r6,r2
        0x08000d22:    2700        .'      MOVS     r7,#0
        0x08000d24:    f002f842    ..B.    BL       __NVIC_GetPriorityGrouping ; 0x8002dac
        0x08000d28:    4607        .F      MOV      r7,r0
        0x08000d2a:    4639        9F      MOV      r1,r7
        0x08000d2c:    462a        *F      MOV      r2,r5
        0x08000d2e:    4633        3F      MOV      r3,r6
        0x08000d30:    f0010007    ....    AND      r0,r1,#7
        0x08000d34:    f1c00a07    ....    RSB      r10,r0,#7
        0x08000d38:    f1ba0f04    ....    CMP      r10,#4
        0x08000d3c:    d902        ..      BLS      0x8000d44 ; HAL_NVIC_SetPriority + 44
        0x08000d3e:    f04f0a04    O...    MOV      r10,#4
        0x08000d42:    e001        ..      B        0x8000d48 ; HAL_NVIC_SetPriority + 48
        0x08000d44:    f1c00a07    ....    RSB      r10,r0,#7
        0x08000d48:    46d1        .F      MOV      r9,r10
        0x08000d4a:    f1000a04    ....    ADD      r10,r0,#4
        0x08000d4e:    f1ba0f07    ....    CMP      r10,#7
        0x08000d52:    d202        ..      BCS      0x8000d5a ; HAL_NVIC_SetPriority + 66
        0x08000d54:    f04f0a00    O...    MOV      r10,#0
        0x08000d58:    e001        ..      B        0x8000d5e ; HAL_NVIC_SetPriority + 70
        0x08000d5a:    f1a00a03    ....    SUB      r10,r0,#3
        0x08000d5e:    46d4        .F      MOV      r12,r10
        0x08000d60:    f04f0a01    O...    MOV      r10,#1
        0x08000d64:    fa0afa09    ....    LSL      r10,r10,r9
        0x08000d68:    f1aa0a01    ....    SUB      r10,r10,#1
        0x08000d6c:    ea0a0a02    ....    AND      r10,r10,r2
        0x08000d70:    fa0afa0c    ....    LSL      r10,r10,r12
        0x08000d74:    f04f0b01    O...    MOV      r11,#1
        0x08000d78:    fa0bfb0c    ....    LSL      r11,r11,r12
        0x08000d7c:    f1ab0b01    ....    SUB      r11,r11,#1
        0x08000d80:    ea0b0b03    ....    AND      r11,r11,r3
        0x08000d84:    ea4a040b    J...    ORR      r4,r10,r11
        0x08000d88:    4621        !F      MOV      r1,r4
        0x08000d8a:    4640        @F      MOV      r0,r8
        0x08000d8c:    f002f816    ....    BL       __NVIC_SetPriority ; 0x8002dbc
        0x08000d90:    e8bd9ff0    ....    POP      {r4-r12,pc}
    i.HAL_NVIC_SetPriorityGrouping
    HAL_NVIC_SetPriorityGrouping
        0x08000d94:    bf00        ..      NOP      
        0x08000d96:    f0000207    ....    AND      r2,r0,#7
        0x08000d9a:    4b06        .K      LDR      r3,[pc,#24] ; [0x8000db4] = 0xe000ed0c
        0x08000d9c:    6819        .h      LDR      r1,[r3,#0]
        0x08000d9e:    f64f03ff    O...    MOV      r3,#0xf8ff
        0x08000da2:    4019        .@      ANDS     r1,r1,r3
        0x08000da4:    4b04        .K      LDR      r3,[pc,#16] ; [0x8000db8] = 0x5fa0000
        0x08000da6:    430b        .C      ORRS     r3,r3,r1
        0x08000da8:    ea432102    C..!    ORR      r1,r3,r2,LSL #8
        0x08000dac:    4b01        .K      LDR      r3,[pc,#4] ; [0x8000db4] = 0xe000ed0c
        0x08000dae:    6019        .`      STR      r1,[r3,#0]
        0x08000db0:    bf00        ..      NOP      
        0x08000db2:    4770        pG      BX       lr
    $d
        0x08000db4:    e000ed0c    ....    DCD    3758157068
        0x08000db8:    05fa0000    ....    DCD    100270080
    $t
    i.HAL_RCC_ClockConfig
    HAL_RCC_ClockConfig
        0x08000dbc:    b570        p.      PUSH     {r4-r6,lr}
        0x08000dbe:    4604        .F      MOV      r4,r0
        0x08000dc0:    460d        .F      MOV      r5,r1
        0x08000dc2:    b90c        ..      CBNZ     r4,0x8000dc8 ; HAL_RCC_ClockConfig + 12
        0x08000dc4:    2001        .       MOVS     r0,#1
        0x08000dc6:    bd70        p.      POP      {r4-r6,pc}
        0x08000dc8:    485a        ZH      LDR      r0,[pc,#360] ; [0x8000f34] = 0x40022000
        0x08000dca:    6800        .h      LDR      r0,[r0,#0]
        0x08000dcc:    f0000007    ....    AND      r0,r0,#7
        0x08000dd0:    42a8        .B      CMP      r0,r5
        0x08000dd2:    d20e        ..      BCS      0x8000df2 ; HAL_RCC_ClockConfig + 54
        0x08000dd4:    4857        WH      LDR      r0,[pc,#348] ; [0x8000f34] = 0x40022000
        0x08000dd6:    6800        .h      LDR      r0,[r0,#0]
        0x08000dd8:    f0200007     ...    BIC      r0,r0,#7
        0x08000ddc:    4328        (C      ORRS     r0,r0,r5
        0x08000dde:    4955        UI      LDR      r1,[pc,#340] ; [0x8000f34] = 0x40022000
        0x08000de0:    6008        .`      STR      r0,[r1,#0]
        0x08000de2:    4608        .F      MOV      r0,r1
        0x08000de4:    6800        .h      LDR      r0,[r0,#0]
        0x08000de6:    f0000007    ....    AND      r0,r0,#7
        0x08000dea:    42a8        .B      CMP      r0,r5
        0x08000dec:    d001        ..      BEQ      0x8000df2 ; HAL_RCC_ClockConfig + 54
        0x08000dee:    2001        .       MOVS     r0,#1
        0x08000df0:    e7e9        ..      B        0x8000dc6 ; HAL_RCC_ClockConfig + 10
        0x08000df2:    7820         x      LDRB     r0,[r4,#0]
        0x08000df4:    f0000002    ....    AND      r0,r0,#2
        0x08000df8:    2802        .(      CMP      r0,#2
        0x08000dfa:    d11d        ..      BNE      0x8000e38 ; HAL_RCC_ClockConfig + 124
        0x08000dfc:    7820         x      LDRB     r0,[r4,#0]
        0x08000dfe:    f0000004    ....    AND      r0,r0,#4
        0x08000e02:    2804        .(      CMP      r0,#4
        0x08000e04:    d105        ..      BNE      0x8000e12 ; HAL_RCC_ClockConfig + 86
        0x08000e06:    484c        LH      LDR      r0,[pc,#304] ; [0x8000f38] = 0x40021000
        0x08000e08:    6840        @h      LDR      r0,[r0,#4]
        0x08000e0a:    f44060e0    @..`    ORR      r0,r0,#0x700
        0x08000e0e:    494a        JI      LDR      r1,[pc,#296] ; [0x8000f38] = 0x40021000
        0x08000e10:    6048        H`      STR      r0,[r1,#4]
        0x08000e12:    7820         x      LDRB     r0,[r4,#0]
        0x08000e14:    f0000008    ....    AND      r0,r0,#8
        0x08000e18:    2808        .(      CMP      r0,#8
        0x08000e1a:    d105        ..      BNE      0x8000e28 ; HAL_RCC_ClockConfig + 108
        0x08000e1c:    4846        FH      LDR      r0,[pc,#280] ; [0x8000f38] = 0x40021000
        0x08000e1e:    6840        @h      LDR      r0,[r0,#4]
        0x08000e20:    f4405060    @.`P    ORR      r0,r0,#0x3800
        0x08000e24:    4944        DI      LDR      r1,[pc,#272] ; [0x8000f38] = 0x40021000
        0x08000e26:    6048        H`      STR      r0,[r1,#4]
        0x08000e28:    4843        CH      LDR      r0,[pc,#268] ; [0x8000f38] = 0x40021000
        0x08000e2a:    6840        @h      LDR      r0,[r0,#4]
        0x08000e2c:    f02000f0     ...    BIC      r0,r0,#0xf0
        0x08000e30:    68a1        .h      LDR      r1,[r4,#8]
        0x08000e32:    4308        .C      ORRS     r0,r0,r1
        0x08000e34:    4940        @I      LDR      r1,[pc,#256] ; [0x8000f38] = 0x40021000
        0x08000e36:    6048        H`      STR      r0,[r1,#4]
        0x08000e38:    7820         x      LDRB     r0,[r4,#0]
        0x08000e3a:    f0000001    ....    AND      r0,r0,#1
        0x08000e3e:    b378        x.      CBZ      r0,0x8000ea0 ; HAL_RCC_ClockConfig + 228
        0x08000e40:    6860        `h      LDR      r0,[r4,#4]
        0x08000e42:    2801        .(      CMP      r0,#1
        0x08000e44:    d106        ..      BNE      0x8000e54 ; HAL_RCC_ClockConfig + 152
        0x08000e46:    483c        <H      LDR      r0,[pc,#240] ; [0x8000f38] = 0x40021000
        0x08000e48:    6800        .h      LDR      r0,[r0,#0]
        0x08000e4a:    f4003000    ...0    AND      r0,r0,#0x20000
        0x08000e4e:    b990        ..      CBNZ     r0,0x8000e76 ; HAL_RCC_ClockConfig + 186
        0x08000e50:    2001        .       MOVS     r0,#1
        0x08000e52:    e7b8        ..      B        0x8000dc6 ; HAL_RCC_ClockConfig + 10
        0x08000e54:    6860        `h      LDR      r0,[r4,#4]
        0x08000e56:    2802        .(      CMP      r0,#2
        0x08000e58:    d106        ..      BNE      0x8000e68 ; HAL_RCC_ClockConfig + 172
        0x08000e5a:    4837        7H      LDR      r0,[pc,#220] ; [0x8000f38] = 0x40021000
        0x08000e5c:    6800        .h      LDR      r0,[r0,#0]
        0x08000e5e:    f0007000    ...p    AND      r0,r0,#0x2000000
        0x08000e62:    b940        @.      CBNZ     r0,0x8000e76 ; HAL_RCC_ClockConfig + 186
        0x08000e64:    2001        .       MOVS     r0,#1
        0x08000e66:    e7ae        ..      B        0x8000dc6 ; HAL_RCC_ClockConfig + 10
        0x08000e68:    4833        3H      LDR      r0,[pc,#204] ; [0x8000f38] = 0x40021000
        0x08000e6a:    6800        .h      LDR      r0,[r0,#0]
        0x08000e6c:    f0000002    ....    AND      r0,r0,#2
        0x08000e70:    b908        ..      CBNZ     r0,0x8000e76 ; HAL_RCC_ClockConfig + 186
        0x08000e72:    2001        .       MOVS     r0,#1
        0x08000e74:    e7a7        ..      B        0x8000dc6 ; HAL_RCC_ClockConfig + 10
        0x08000e76:    4830        0H      LDR      r0,[pc,#192] ; [0x8000f38] = 0x40021000
        0x08000e78:    6840        @h      LDR      r0,[r0,#4]
        0x08000e7a:    f0200003     ...    BIC      r0,r0,#3
        0x08000e7e:    6861        ah      LDR      r1,[r4,#4]
        0x08000e80:    4308        .C      ORRS     r0,r0,r1
        0x08000e82:    492d        -I      LDR      r1,[pc,#180] ; [0x8000f38] = 0x40021000
        0x08000e84:    6048        H`      STR      r0,[r1,#4]
        0x08000e86:    f7fffe9d    ....    BL       HAL_GetTick ; 0x8000bc4
        0x08000e8a:    4606        .F      MOV      r6,r0
        0x08000e8c:    e009        ..      B        0x8000ea2 ; HAL_RCC_ClockConfig + 230
        0x08000e8e:    f7fffe99    ....    BL       HAL_GetTick ; 0x8000bc4
        0x08000e92:    1b80        ..      SUBS     r0,r0,r6
        0x08000e94:    f2413188    A..1    MOV      r1,#0x1388
        0x08000e98:    4288        .B      CMP      r0,r1
        0x08000e9a:    d902        ..      BLS      0x8000ea2 ; HAL_RCC_ClockConfig + 230
        0x08000e9c:    2003        .       MOVS     r0,#3
        0x08000e9e:    e792        ..      B        0x8000dc6 ; HAL_RCC_ClockConfig + 10
        0x08000ea0:    e007        ..      B        0x8000eb2 ; HAL_RCC_ClockConfig + 246
        0x08000ea2:    4825        %H      LDR      r0,[pc,#148] ; [0x8000f38] = 0x40021000
        0x08000ea4:    6840        @h      LDR      r0,[r0,#4]
        0x08000ea6:    f000000c    ....    AND      r0,r0,#0xc
        0x08000eaa:    6861        ah      LDR      r1,[r4,#4]
        0x08000eac:    ebb00f81    ....    CMP      r0,r1,LSL #2
        0x08000eb0:    d1ed        ..      BNE      0x8000e8e ; HAL_RCC_ClockConfig + 210
        0x08000eb2:    4820         H      LDR      r0,[pc,#128] ; [0x8000f34] = 0x40022000
        0x08000eb4:    6800        .h      LDR      r0,[r0,#0]
        0x08000eb6:    f0000007    ....    AND      r0,r0,#7
        0x08000eba:    42a8        .B      CMP      r0,r5
        0x08000ebc:    d90e        ..      BLS      0x8000edc ; HAL_RCC_ClockConfig + 288
        0x08000ebe:    481d        .H      LDR      r0,[pc,#116] ; [0x8000f34] = 0x40022000
        0x08000ec0:    6800        .h      LDR      r0,[r0,#0]
        0x08000ec2:    f0200007     ...    BIC      r0,r0,#7
        0x08000ec6:    4328        (C      ORRS     r0,r0,r5
        0x08000ec8:    491a        .I      LDR      r1,[pc,#104] ; [0x8000f34] = 0x40022000
        0x08000eca:    6008        .`      STR      r0,[r1,#0]
        0x08000ecc:    4608        .F      MOV      r0,r1
        0x08000ece:    6800        .h      LDR      r0,[r0,#0]
        0x08000ed0:    f0000007    ....    AND      r0,r0,#7
        0x08000ed4:    42a8        .B      CMP      r0,r5
        0x08000ed6:    d001        ..      BEQ      0x8000edc ; HAL_RCC_ClockConfig + 288
        0x08000ed8:    2001        .       MOVS     r0,#1
        0x08000eda:    e774        t.      B        0x8000dc6 ; HAL_RCC_ClockConfig + 10
        0x08000edc:    7820         x      LDRB     r0,[r4,#0]
        0x08000ede:    f0000004    ....    AND      r0,r0,#4
        0x08000ee2:    2804        .(      CMP      r0,#4
        0x08000ee4:    d107        ..      BNE      0x8000ef6 ; HAL_RCC_ClockConfig + 314
        0x08000ee6:    4814        .H      LDR      r0,[pc,#80] ; [0x8000f38] = 0x40021000
        0x08000ee8:    6840        @h      LDR      r0,[r0,#4]
        0x08000eea:    f42060e0     ..`    BIC      r0,r0,#0x700
        0x08000eee:    68e1        .h      LDR      r1,[r4,#0xc]
        0x08000ef0:    4308        .C      ORRS     r0,r0,r1
        0x08000ef2:    4911        .I      LDR      r1,[pc,#68] ; [0x8000f38] = 0x40021000
        0x08000ef4:    6048        H`      STR      r0,[r1,#4]
        0x08000ef6:    7820         x      LDRB     r0,[r4,#0]
        0x08000ef8:    f0000008    ....    AND      r0,r0,#8
        0x08000efc:    2808        .(      CMP      r0,#8
        0x08000efe:    d108        ..      BNE      0x8000f12 ; HAL_RCC_ClockConfig + 342
        0x08000f00:    480d        .H      LDR      r0,[pc,#52] ; [0x8000f38] = 0x40021000
        0x08000f02:    6840        @h      LDR      r0,[r0,#4]
        0x08000f04:    f4205060     .`P    BIC      r0,r0,#0x3800
        0x08000f08:    6921        !i      LDR      r1,[r4,#0x10]
        0x08000f0a:    ea4000c1    @...    ORR      r0,r0,r1,LSL #3
        0x08000f0e:    490a        .I      LDR      r1,[pc,#40] ; [0x8000f38] = 0x40021000
        0x08000f10:    6048        H`      STR      r0,[r1,#4]
        0x08000f12:    f000f861    ..a.    BL       HAL_RCC_GetSysClockFreq ; 0x8000fd8
        0x08000f16:    4908        .I      LDR      r1,[pc,#32] ; [0x8000f38] = 0x40021000
        0x08000f18:    6849        Ih      LDR      r1,[r1,#4]
        0x08000f1a:    f3c11103    ....    UBFX     r1,r1,#4,#4
        0x08000f1e:    4a07        .J      LDR      r2,[pc,#28] ; [0x8000f3c] = 0x8007f2c
        0x08000f20:    5c51        Q\      LDRB     r1,[r2,r1]
        0x08000f22:    40c8        .@      LSRS     r0,r0,r1
        0x08000f24:    4906        .I      LDR      r1,[pc,#24] ; [0x8000f40] = 0x20000010
        0x08000f26:    6008        .`      STR      r0,[r1,#0]
        0x08000f28:    4806        .H      LDR      r0,[pc,#24] ; [0x8000f44] = 0x20000008
        0x08000f2a:    6800        .h      LDR      r0,[r0,#0]
        0x08000f2c:    f7fffe70    ..p.    BL       HAL_InitTick ; 0x8000c10
        0x08000f30:    2000        .       MOVS     r0,#0
        0x08000f32:    e748        H.      B        0x8000dc6 ; HAL_RCC_ClockConfig + 10
    $d
        0x08000f34:    40022000    . .@    DCD    1073881088
        0x08000f38:    40021000    ...@    DCD    1073876992
        0x08000f3c:    08007f2c    ,...    DCD    134250284
        0x08000f40:    20000010    ...     DCD    536870928
        0x08000f44:    20000008    ...     DCD    536870920
    $t
    i.HAL_RCC_GetClockConfig
    HAL_RCC_GetClockConfig
        0x08000f48:    220f        ."      MOVS     r2,#0xf
        0x08000f4a:    6002        .`      STR      r2,[r0,#0]
        0x08000f4c:    4a0d        .J      LDR      r2,[pc,#52] ; [0x8000f84] = 0x40021000
        0x08000f4e:    6852        Rh      LDR      r2,[r2,#4]
        0x08000f50:    f0020203    ....    AND      r2,r2,#3
        0x08000f54:    6042        B`      STR      r2,[r0,#4]
        0x08000f56:    4a0b        .J      LDR      r2,[pc,#44] ; [0x8000f84] = 0x40021000
        0x08000f58:    6852        Rh      LDR      r2,[r2,#4]
        0x08000f5a:    f00202f0    ....    AND      r2,r2,#0xf0
        0x08000f5e:    6082        .`      STR      r2,[r0,#8]
        0x08000f60:    4a08        .J      LDR      r2,[pc,#32] ; [0x8000f84] = 0x40021000
        0x08000f62:    6852        Rh      LDR      r2,[r2,#4]
        0x08000f64:    f40262e0    ...b    AND      r2,r2,#0x700
        0x08000f68:    60c2        .`      STR      r2,[r0,#0xc]
        0x08000f6a:    4a06        .J      LDR      r2,[pc,#24] ; [0x8000f84] = 0x40021000
        0x08000f6c:    6852        Rh      LDR      r2,[r2,#4]
        0x08000f6e:    f4025260    ..`R    AND      r2,r2,#0x3800
        0x08000f72:    08d2        ..      LSRS     r2,r2,#3
        0x08000f74:    6102        .a      STR      r2,[r0,#0x10]
        0x08000f76:    4a04        .J      LDR      r2,[pc,#16] ; [0x8000f88] = 0x40022000
        0x08000f78:    6812        .h      LDR      r2,[r2,#0]
        0x08000f7a:    f0020207    ....    AND      r2,r2,#7
        0x08000f7e:    600a        .`      STR      r2,[r1,#0]
        0x08000f80:    4770        pG      BX       lr
    $d
        0x08000f82:    0000        ..      DCW    0
        0x08000f84:    40021000    ...@    DCD    1073876992
        0x08000f88:    40022000    . .@    DCD    1073881088
    $t
    i.HAL_RCC_GetHCLKFreq
    HAL_RCC_GetHCLKFreq
        0x08000f8c:    4801        .H      LDR      r0,[pc,#4] ; [0x8000f94] = 0x20000010
        0x08000f8e:    6800        .h      LDR      r0,[r0,#0]
        0x08000f90:    4770        pG      BX       lr
    $d
        0x08000f92:    0000        ..      DCW    0
        0x08000f94:    20000010    ...     DCD    536870928
    $t
    i.HAL_RCC_GetPCLK1Freq
    HAL_RCC_GetPCLK1Freq
        0x08000f98:    b500        ..      PUSH     {lr}
        0x08000f9a:    f7fffff7    ....    BL       HAL_RCC_GetHCLKFreq ; 0x8000f8c
        0x08000f9e:    4904        .I      LDR      r1,[pc,#16] ; [0x8000fb0] = 0x40021000
        0x08000fa0:    6849        Ih      LDR      r1,[r1,#4]
        0x08000fa2:    f3c12102    ...!    UBFX     r1,r1,#8,#3
        0x08000fa6:    4a03        .J      LDR      r2,[pc,#12] ; [0x8000fb4] = 0x8007f3c
        0x08000fa8:    5c51        Q\      LDRB     r1,[r2,r1]
        0x08000faa:    40c8        .@      LSRS     r0,r0,r1
        0x08000fac:    bd00        ..      POP      {pc}
    $d
        0x08000fae:    0000        ..      DCW    0
        0x08000fb0:    40021000    ...@    DCD    1073876992
        0x08000fb4:    08007f3c    <...    DCD    134250300
    $t
    i.HAL_RCC_GetPCLK2Freq
    HAL_RCC_GetPCLK2Freq
        0x08000fb8:    b500        ..      PUSH     {lr}
        0x08000fba:    f7ffffe7    ....    BL       HAL_RCC_GetHCLKFreq ; 0x8000f8c
        0x08000fbe:    4904        .I      LDR      r1,[pc,#16] ; [0x8000fd0] = 0x40021000
        0x08000fc0:    6849        Ih      LDR      r1,[r1,#4]
        0x08000fc2:    f3c121c2    ...!    UBFX     r1,r1,#11,#3
        0x08000fc6:    4a03        .J      LDR      r2,[pc,#12] ; [0x8000fd4] = 0x8007f3c
        0x08000fc8:    5c51        Q\      LDRB     r1,[r2,r1]
        0x08000fca:    40c8        .@      LSRS     r0,r0,r1
        0x08000fcc:    bd00        ..      POP      {pc}
    $d
        0x08000fce:    0000        ..      DCW    0
        0x08000fd0:    40021000    ...@    DCD    1073876992
        0x08000fd4:    08007f3c    <...    DCD    134250300
    $t
    i.HAL_RCC_GetSysClockFreq
    HAL_RCC_GetSysClockFreq
        0x08000fd8:    b5f0        ..      PUSH     {r4-r7,lr}
        0x08000fda:    b085        ..      SUB      sp,sp,#0x14
        0x08000fdc:    f20f0c6c    ..l.    ADR.W    r12,{pc}+0x70 ; 0x800104c
        0x08000fe0:    e89c10e0    ....    LDM      r12,{r5-r7,r12}
        0x08000fe4:    a801        ..      ADD      r0,sp,#4
        0x08000fe6:    e8a010e0    ....    STM      r0!,{r5-r7,r12}
        0x08000fea:    a51c        ..      ADR      r5,{pc}+0x72 ; 0x800105c
        0x08000fec:    682d        -h      LDR      r5,[r5,#0]
        0x08000fee:    9500        ..      STR      r5,[sp,#0]
        0x08000ff0:    2100        .!      MOVS     r1,#0
        0x08000ff2:    2200        ."      MOVS     r2,#0
        0x08000ff4:    2300        .#      MOVS     r3,#0
        0x08000ff6:    2400        .$      MOVS     r4,#0
        0x08000ff8:    2000        .       MOVS     r0,#0
        0x08000ffa:    4d19        .M      LDR      r5,[pc,#100] ; [0x8001060] = 0x40021000
        0x08000ffc:    6869        ih      LDR      r1,[r5,#4]
        0x08000ffe:    f001050c    ....    AND      r5,r1,#0xc
        0x08001002:    b1f5        ..      CBZ      r5,0x8001042 ; HAL_RCC_GetSysClockFreq + 106
        0x08001004:    2d04        .-      CMP      r5,#4
        0x08001006:    d002        ..      BEQ      0x800100e ; HAL_RCC_GetSysClockFreq + 54
        0x08001008:    2d08        .-      CMP      r5,#8
        0x0800100a:    d119        ..      BNE      0x8001040 ; HAL_RCC_GetSysClockFreq + 104
        0x0800100c:    e001        ..      B        0x8001012 ; HAL_RCC_GetSysClockFreq + 58
        0x0800100e:    4815        .H      LDR      r0,[pc,#84] ; [0x8001064] = 0x7a1200
        0x08001010:    e019        ..      B        0x8001046 ; HAL_RCC_GetSysClockFreq + 110
        0x08001012:    ad01        ..      ADD      r5,sp,#4
        0x08001014:    f3c14683    ...F    UBFX     r6,r1,#18,#4
        0x08001018:    5dac        .]      LDRB     r4,[r5,r6]
        0x0800101a:    f4013580    ...5    AND      r5,r1,#0x10000
        0x0800101e:    b155        U.      CBZ      r5,0x8001036 ; HAL_RCC_GetSysClockFreq + 94
        0x08001020:    4d0f        .M      LDR      r5,[pc,#60] ; [0x8001060] = 0x40021000
        0x08001022:    686d        mh      LDR      r5,[r5,#4]
        0x08001024:    f3c54540    ..@E    UBFX     r5,r5,#17,#1
        0x08001028:    f81d2005    ...     LDRB     r2,[sp,r5]
        0x0800102c:    4d0d        .M      LDR      r5,[pc,#52] ; [0x8001064] = 0x7a1200
        0x0800102e:    4365        eC      MULS     r5,r4,r5
        0x08001030:    fbb5f3f2    ....    UDIV     r3,r5,r2
        0x08001034:    e002        ..      B        0x800103c ; HAL_RCC_GetSysClockFreq + 100
        0x08001036:    4d0c        .M      LDR      r5,[pc,#48] ; [0x8001068] = 0x3d0900
        0x08001038:    fb04f305    ....    MUL      r3,r4,r5
        0x0800103c:    4618        .F      MOV      r0,r3
        0x0800103e:    e002        ..      B        0x8001046 ; HAL_RCC_GetSysClockFreq + 110
        0x08001040:    bf00        ..      NOP      
        0x08001042:    4808        .H      LDR      r0,[pc,#32] ; [0x8001064] = 0x7a1200
        0x08001044:    bf00        ..      NOP      
        0x08001046:    bf00        ..      NOP      
        0x08001048:    b005        ..      ADD      sp,sp,#0x14
        0x0800104a:    bdf0        ..      POP      {r4-r7,pc}
    $d
        0x0800104c:    05040302    ....    DCD    84148994
        0x08001050:    09080706    ....    DCD    151521030
        0x08001054:    0d0c0b0a    ....    DCD    218893066
        0x08001058:    10100f0e    ....    DCD    269487886
        0x0800105c:    00000201    ....    DCD    513
        0x08001060:    40021000    ...@    DCD    1073876992
        0x08001064:    007a1200    ..z.    DCD    8000000
        0x08001068:    003d0900    ..=.    DCD    4000000
    $t
    i.HAL_RCC_OscConfig
    HAL_RCC_OscConfig
        0x0800106c:    b5f8        ..      PUSH     {r3-r7,lr}
        0x0800106e:    4604        .F      MOV      r4,r0
        0x08001070:    b90c        ..      CBNZ     r4,0x8001076 ; HAL_RCC_OscConfig + 10
        0x08001072:    2001        .       MOVS     r0,#1
        0x08001074:    bdf8        ..      POP      {r3-r7,pc}
        0x08001076:    7820         x      LDRB     r0,[r4,#0]
        0x08001078:    f0000001    ....    AND      r0,r0,#1
        0x0800107c:    2800        .(      CMP      r0,#0
        0x0800107e:    d078        x.      BEQ      0x8001172 ; HAL_RCC_OscConfig + 262
        0x08001080:    48f8        .H      LDR      r0,[pc,#992] ; [0x8001464] = 0x40021000
        0x08001082:    6840        @h      LDR      r0,[r0,#4]
        0x08001084:    f000000c    ....    AND      r0,r0,#0xc
        0x08001088:    2804        .(      CMP      r0,#4
        0x0800108a:    d00c        ..      BEQ      0x80010a6 ; HAL_RCC_OscConfig + 58
        0x0800108c:    48f5        .H      LDR      r0,[pc,#980] ; [0x8001464] = 0x40021000
        0x0800108e:    6840        @h      LDR      r0,[r0,#4]
        0x08001090:    f000000c    ....    AND      r0,r0,#0xc
        0x08001094:    2808        .(      CMP      r0,#8
        0x08001096:    d111        ..      BNE      0x80010bc ; HAL_RCC_OscConfig + 80
        0x08001098:    48f2        .H      LDR      r0,[pc,#968] ; [0x8001464] = 0x40021000
        0x0800109a:    6840        @h      LDR      r0,[r0,#4]
        0x0800109c:    f4003080    ...0    AND      r0,r0,#0x10000
        0x080010a0:    f5b03f80    ...?    CMP      r0,#0x10000
        0x080010a4:    d10a        ..      BNE      0x80010bc ; HAL_RCC_OscConfig + 80
        0x080010a6:    48ef        .H      LDR      r0,[pc,#956] ; [0x8001464] = 0x40021000
        0x080010a8:    6800        .h      LDR      r0,[r0,#0]
        0x080010aa:    f4003000    ...0    AND      r0,r0,#0x20000
        0x080010ae:    2800        .(      CMP      r0,#0
        0x080010b0:    d05f        _.      BEQ      0x8001172 ; HAL_RCC_OscConfig + 262
        0x080010b2:    6860        `h      LDR      r0,[r4,#4]
        0x080010b4:    2800        .(      CMP      r0,#0
        0x080010b6:    d15c        \.      BNE      0x8001172 ; HAL_RCC_OscConfig + 262
        0x080010b8:    2001        .       MOVS     r0,#1
        0x080010ba:    e7db        ..      B        0x8001074 ; HAL_RCC_OscConfig + 8
        0x080010bc:    bf00        ..      NOP      
        0x080010be:    6860        `h      LDR      r0,[r4,#4]
        0x080010c0:    f5b03f80    ...?    CMP      r0,#0x10000
        0x080010c4:    d106        ..      BNE      0x80010d4 ; HAL_RCC_OscConfig + 104
        0x080010c6:    48e7        .H      LDR      r0,[pc,#924] ; [0x8001464] = 0x40021000
        0x080010c8:    6800        .h      LDR      r0,[r0,#0]
        0x080010ca:    f4403080    @..0    ORR      r0,r0,#0x10000
        0x080010ce:    49e5        .I      LDR      r1,[pc,#916] ; [0x8001464] = 0x40021000
        0x080010d0:    6008        .`      STR      r0,[r1,#0]
        0x080010d2:    e028        (.      B        0x8001126 ; HAL_RCC_OscConfig + 186
        0x080010d4:    6860        `h      LDR      r0,[r4,#4]
        0x080010d6:    b958        X.      CBNZ     r0,0x80010f0 ; HAL_RCC_OscConfig + 132
        0x080010d8:    48e2        .H      LDR      r0,[pc,#904] ; [0x8001464] = 0x40021000
        0x080010da:    6800        .h      LDR      r0,[r0,#0]
        0x080010dc:    f4203080     ..0    BIC      r0,r0,#0x10000
        0x080010e0:    49e0        .I      LDR      r1,[pc,#896] ; [0x8001464] = 0x40021000
        0x080010e2:    6008        .`      STR      r0,[r1,#0]
        0x080010e4:    4608        .F      MOV      r0,r1
        0x080010e6:    6800        .h      LDR      r0,[r0,#0]
        0x080010e8:    f4202080     ..     BIC      r0,r0,#0x40000
        0x080010ec:    6008        .`      STR      r0,[r1,#0]
        0x080010ee:    e01a        ..      B        0x8001126 ; HAL_RCC_OscConfig + 186
        0x080010f0:    6860        `h      LDR      r0,[r4,#4]
        0x080010f2:    f5b02fa0    .../    CMP      r0,#0x50000
        0x080010f6:    d10b        ..      BNE      0x8001110 ; HAL_RCC_OscConfig + 164
        0x080010f8:    48da        .H      LDR      r0,[pc,#872] ; [0x8001464] = 0x40021000
        0x080010fa:    6800        .h      LDR      r0,[r0,#0]
        0x080010fc:    f4402080    @..     ORR      r0,r0,#0x40000
        0x08001100:    49d8        .I      LDR      r1,[pc,#864] ; [0x8001464] = 0x40021000
        0x08001102:    6008        .`      STR      r0,[r1,#0]
        0x08001104:    4608        .F      MOV      r0,r1
        0x08001106:    6800        .h      LDR      r0,[r0,#0]
        0x08001108:    f4403080    @..0    ORR      r0,r0,#0x10000
        0x0800110c:    6008        .`      STR      r0,[r1,#0]
        0x0800110e:    e00a        ..      B        0x8001126 ; HAL_RCC_OscConfig + 186
        0x08001110:    48d4        .H      LDR      r0,[pc,#848] ; [0x8001464] = 0x40021000
        0x08001112:    6800        .h      LDR      r0,[r0,#0]
        0x08001114:    f4203080     ..0    BIC      r0,r0,#0x10000
        0x08001118:    49d2        .I      LDR      r1,[pc,#840] ; [0x8001464] = 0x40021000
        0x0800111a:    6008        .`      STR      r0,[r1,#0]
        0x0800111c:    4608        .F      MOV      r0,r1
        0x0800111e:    6800        .h      LDR      r0,[r0,#0]
        0x08001120:    f4202080     ..     BIC      r0,r0,#0x40000
        0x08001124:    6008        .`      STR      r0,[r1,#0]
        0x08001126:    bf00        ..      NOP      
        0x08001128:    6860        `h      LDR      r0,[r4,#4]
        0x0800112a:    b188        ..      CBZ      r0,0x8001150 ; HAL_RCC_OscConfig + 228
        0x0800112c:    f7fffd4a    ..J.    BL       HAL_GetTick ; 0x8000bc4
        0x08001130:    4605        .F      MOV      r5,r0
        0x08001132:    e006        ..      B        0x8001142 ; HAL_RCC_OscConfig + 214
        0x08001134:    f7fffd46    ..F.    BL       HAL_GetTick ; 0x8000bc4
        0x08001138:    1b40        @.      SUBS     r0,r0,r5
        0x0800113a:    2864        d(      CMP      r0,#0x64
        0x0800113c:    d901        ..      BLS      0x8001142 ; HAL_RCC_OscConfig + 214
        0x0800113e:    2003        .       MOVS     r0,#3
        0x08001140:    e798        ..      B        0x8001074 ; HAL_RCC_OscConfig + 8
        0x08001142:    48c8        .H      LDR      r0,[pc,#800] ; [0x8001464] = 0x40021000
        0x08001144:    6800        .h      LDR      r0,[r0,#0]
        0x08001146:    f4003000    ...0    AND      r0,r0,#0x20000
        0x0800114a:    2800        .(      CMP      r0,#0
        0x0800114c:    d0f2        ..      BEQ      0x8001134 ; HAL_RCC_OscConfig + 200
        0x0800114e:    e010        ..      B        0x8001172 ; HAL_RCC_OscConfig + 262
        0x08001150:    f7fffd38    ..8.    BL       HAL_GetTick ; 0x8000bc4
        0x08001154:    4605        .F      MOV      r5,r0
        0x08001156:    e006        ..      B        0x8001166 ; HAL_RCC_OscConfig + 250
        0x08001158:    f7fffd34    ..4.    BL       HAL_GetTick ; 0x8000bc4
        0x0800115c:    1b40        @.      SUBS     r0,r0,r5
        0x0800115e:    2864        d(      CMP      r0,#0x64
        0x08001160:    d901        ..      BLS      0x8001166 ; HAL_RCC_OscConfig + 250
        0x08001162:    2003        .       MOVS     r0,#3
        0x08001164:    e786        ..      B        0x8001074 ; HAL_RCC_OscConfig + 8
        0x08001166:    48bf        .H      LDR      r0,[pc,#764] ; [0x8001464] = 0x40021000
        0x08001168:    6800        .h      LDR      r0,[r0,#0]
        0x0800116a:    f4003000    ...0    AND      r0,r0,#0x20000
        0x0800116e:    2800        .(      CMP      r0,#0
        0x08001170:    d1f2        ..      BNE      0x8001158 ; HAL_RCC_OscConfig + 236
        0x08001172:    7820         x      LDRB     r0,[r4,#0]
        0x08001174:    f0000002    ....    AND      r0,r0,#2
        0x08001178:    2802        .(      CMP      r0,#2
        0x0800117a:    d157        W.      BNE      0x800122c ; HAL_RCC_OscConfig + 448
        0x0800117c:    48b9        .H      LDR      r0,[pc,#740] ; [0x8001464] = 0x40021000
        0x0800117e:    6840        @h      LDR      r0,[r0,#4]
        0x08001180:    f000000c    ....    AND      r0,r0,#0xc
        0x08001184:    b150        P.      CBZ      r0,0x800119c ; HAL_RCC_OscConfig + 304
        0x08001186:    48b7        .H      LDR      r0,[pc,#732] ; [0x8001464] = 0x40021000
        0x08001188:    6840        @h      LDR      r0,[r0,#4]
        0x0800118a:    f000000c    ....    AND      r0,r0,#0xc
        0x0800118e:    2808        .(      CMP      r0,#8
        0x08001190:    d118        ..      BNE      0x80011c4 ; HAL_RCC_OscConfig + 344
        0x08001192:    48b4        .H      LDR      r0,[pc,#720] ; [0x8001464] = 0x40021000
        0x08001194:    6840        @h      LDR      r0,[r0,#4]
        0x08001196:    f4003080    ...0    AND      r0,r0,#0x10000
        0x0800119a:    b998        ..      CBNZ     r0,0x80011c4 ; HAL_RCC_OscConfig + 344
        0x0800119c:    48b1        .H      LDR      r0,[pc,#708] ; [0x8001464] = 0x40021000
        0x0800119e:    6800        .h      LDR      r0,[r0,#0]
        0x080011a0:    f0000002    ....    AND      r0,r0,#2
        0x080011a4:    b120         .      CBZ      r0,0x80011b0 ; HAL_RCC_OscConfig + 324
        0x080011a6:    6920         i      LDR      r0,[r4,#0x10]
        0x080011a8:    2801        .(      CMP      r0,#1
        0x080011aa:    d001        ..      BEQ      0x80011b0 ; HAL_RCC_OscConfig + 324
        0x080011ac:    2001        .       MOVS     r0,#1
        0x080011ae:    e761        a.      B        0x8001074 ; HAL_RCC_OscConfig + 8
        0x080011b0:    48ac        .H      LDR      r0,[pc,#688] ; [0x8001464] = 0x40021000
        0x080011b2:    6800        .h      LDR      r0,[r0,#0]
        0x080011b4:    f02000f8     ...    BIC      r0,r0,#0xf8
        0x080011b8:    6961        ai      LDR      r1,[r4,#0x14]
        0x080011ba:    ea4000c1    @...    ORR      r0,r0,r1,LSL #3
        0x080011be:    49a9        .I      LDR      r1,[pc,#676] ; [0x8001464] = 0x40021000
        0x080011c0:    6008        .`      STR      r0,[r1,#0]
        0x080011c2:    e033        3.      B        0x800122c ; HAL_RCC_OscConfig + 448
        0x080011c4:    6920         i      LDR      r0,[r4,#0x10]
        0x080011c6:    b1e8        ..      CBZ      r0,0x8001204 ; HAL_RCC_OscConfig + 408
        0x080011c8:    2001        .       MOVS     r0,#1
        0x080011ca:    49a7        .I      LDR      r1,[pc,#668] ; [0x8001468] = 0x42420000
        0x080011cc:    6008        .`      STR      r0,[r1,#0]
        0x080011ce:    f7fffcf9    ....    BL       HAL_GetTick ; 0x8000bc4
        0x080011d2:    4605        .F      MOV      r5,r0
        0x080011d4:    e006        ..      B        0x80011e4 ; HAL_RCC_OscConfig + 376
        0x080011d6:    f7fffcf5    ....    BL       HAL_GetTick ; 0x8000bc4
        0x080011da:    1b40        @.      SUBS     r0,r0,r5
        0x080011dc:    2802        .(      CMP      r0,#2
        0x080011de:    d901        ..      BLS      0x80011e4 ; HAL_RCC_OscConfig + 376
        0x080011e0:    2003        .       MOVS     r0,#3
        0x080011e2:    e747        G.      B        0x8001074 ; HAL_RCC_OscConfig + 8
        0x080011e4:    489f        .H      LDR      r0,[pc,#636] ; [0x8001464] = 0x40021000
        0x080011e6:    6800        .h      LDR      r0,[r0,#0]
        0x080011e8:    f0000002    ....    AND      r0,r0,#2
        0x080011ec:    2800        .(      CMP      r0,#0
        0x080011ee:    d0f2        ..      BEQ      0x80011d6 ; HAL_RCC_OscConfig + 362
        0x080011f0:    489c        .H      LDR      r0,[pc,#624] ; [0x8001464] = 0x40021000
        0x080011f2:    6800        .h      LDR      r0,[r0,#0]
        0x080011f4:    f02000f8     ...    BIC      r0,r0,#0xf8
        0x080011f8:    6961        ai      LDR      r1,[r4,#0x14]
        0x080011fa:    ea4000c1    @...    ORR      r0,r0,r1,LSL #3
        0x080011fe:    4999        .I      LDR      r1,[pc,#612] ; [0x8001464] = 0x40021000
        0x08001200:    6008        .`      STR      r0,[r1,#0]
        0x08001202:    e013        ..      B        0x800122c ; HAL_RCC_OscConfig + 448
        0x08001204:    2000        .       MOVS     r0,#0
        0x08001206:    4998        .I      LDR      r1,[pc,#608] ; [0x8001468] = 0x42420000
        0x08001208:    6008        .`      STR      r0,[r1,#0]
        0x0800120a:    f7fffcdb    ....    BL       HAL_GetTick ; 0x8000bc4
        0x0800120e:    4605        .F      MOV      r5,r0
        0x08001210:    e006        ..      B        0x8001220 ; HAL_RCC_OscConfig + 436
        0x08001212:    f7fffcd7    ....    BL       HAL_GetTick ; 0x8000bc4
        0x08001216:    1b40        @.      SUBS     r0,r0,r5
        0x08001218:    2802        .(      CMP      r0,#2
        0x0800121a:    d901        ..      BLS      0x8001220 ; HAL_RCC_OscConfig + 436
        0x0800121c:    2003        .       MOVS     r0,#3
        0x0800121e:    e729        ).      B        0x8001074 ; HAL_RCC_OscConfig + 8
        0x08001220:    4890        .H      LDR      r0,[pc,#576] ; [0x8001464] = 0x40021000
        0x08001222:    6800        .h      LDR      r0,[r0,#0]
        0x08001224:    f0000002    ....    AND      r0,r0,#2
        0x08001228:    2800        .(      CMP      r0,#0
        0x0800122a:    d1f2        ..      BNE      0x8001212 ; HAL_RCC_OscConfig + 422
        0x0800122c:    7820         x      LDRB     r0,[r4,#0]
        0x0800122e:    f0000008    ....    AND      r0,r0,#8
        0x08001232:    2808        .(      CMP      r0,#8
        0x08001234:    d12d        -.      BNE      0x8001292 ; HAL_RCC_OscConfig + 550
        0x08001236:    69a0        .i      LDR      r0,[r4,#0x18]
        0x08001238:    b1b8        ..      CBZ      r0,0x800126a ; HAL_RCC_OscConfig + 510
        0x0800123a:    2001        .       MOVS     r0,#1
        0x0800123c:    498b        .I      LDR      r1,[pc,#556] ; [0x800146c] = 0x42420480
        0x0800123e:    6008        .`      STR      r0,[r1,#0]
        0x08001240:    f7fffcc0    ....    BL       HAL_GetTick ; 0x8000bc4
        0x08001244:    4605        .F      MOV      r5,r0
        0x08001246:    e006        ..      B        0x8001256 ; HAL_RCC_OscConfig + 490
        0x08001248:    f7fffcbc    ....    BL       HAL_GetTick ; 0x8000bc4
        0x0800124c:    1b40        @.      SUBS     r0,r0,r5
        0x0800124e:    2802        .(      CMP      r0,#2
        0x08001250:    d901        ..      BLS      0x8001256 ; HAL_RCC_OscConfig + 490
        0x08001252:    2003        .       MOVS     r0,#3
        0x08001254:    e70e        ..      B        0x8001074 ; HAL_RCC_OscConfig + 8
        0x08001256:    4883        .H      LDR      r0,[pc,#524] ; [0x8001464] = 0x40021000
        0x08001258:    6a40        @j      LDR      r0,[r0,#0x24]
        0x0800125a:    f0000002    ....    AND      r0,r0,#2
        0x0800125e:    2800        .(      CMP      r0,#0
        0x08001260:    d0f2        ..      BEQ      0x8001248 ; HAL_RCC_OscConfig + 476
        0x08001262:    2001        .       MOVS     r0,#1
        0x08001264:    f001fae0    ....    BL       RCC_Delay ; 0x8002828
        0x08001268:    e013        ..      B        0x8001292 ; HAL_RCC_OscConfig + 550
        0x0800126a:    2000        .       MOVS     r0,#0
        0x0800126c:    497f        .I      LDR      r1,[pc,#508] ; [0x800146c] = 0x42420480
        0x0800126e:    6008        .`      STR      r0,[r1,#0]
        0x08001270:    f7fffca8    ....    BL       HAL_GetTick ; 0x8000bc4
        0x08001274:    4605        .F      MOV      r5,r0
        0x08001276:    e006        ..      B        0x8001286 ; HAL_RCC_OscConfig + 538
        0x08001278:    f7fffca4    ....    BL       HAL_GetTick ; 0x8000bc4
        0x0800127c:    1b40        @.      SUBS     r0,r0,r5
        0x0800127e:    2802        .(      CMP      r0,#2
        0x08001280:    d901        ..      BLS      0x8001286 ; HAL_RCC_OscConfig + 538
        0x08001282:    2003        .       MOVS     r0,#3
        0x08001284:    e6f6        ..      B        0x8001074 ; HAL_RCC_OscConfig + 8
        0x08001286:    4877        wH      LDR      r0,[pc,#476] ; [0x8001464] = 0x40021000
        0x08001288:    6a40        @j      LDR      r0,[r0,#0x24]
        0x0800128a:    f0000002    ....    AND      r0,r0,#2
        0x0800128e:    2800        .(      CMP      r0,#0
        0x08001290:    d1f2        ..      BNE      0x8001278 ; HAL_RCC_OscConfig + 524
        0x08001292:    7820         x      LDRB     r0,[r4,#0]
        0x08001294:    f0000004    ....    AND      r0,r0,#4
        0x08001298:    2804        .(      CMP      r0,#4
        0x0800129a:    d173        s.      BNE      0x8001384 ; HAL_RCC_OscConfig + 792
        0x0800129c:    2700        .'      MOVS     r7,#0
        0x0800129e:    4871        qH      LDR      r0,[pc,#452] ; [0x8001464] = 0x40021000
        0x080012a0:    69c0        .i      LDR      r0,[r0,#0x1c]
        0x080012a2:    f0005080    ...P    AND      r0,r0,#0x10000000
        0x080012a6:    b970        p.      CBNZ     r0,0x80012c6 ; HAL_RCC_OscConfig + 602
        0x080012a8:    bf00        ..      NOP      
        0x080012aa:    486e        nH      LDR      r0,[pc,#440] ; [0x8001464] = 0x40021000
        0x080012ac:    69c0        .i      LDR      r0,[r0,#0x1c]
        0x080012ae:    f0405080    @..P    ORR      r0,r0,#0x10000000
        0x080012b2:    496c        lI      LDR      r1,[pc,#432] ; [0x8001464] = 0x40021000
        0x080012b4:    61c8        .a      STR      r0,[r1,#0x1c]
        0x080012b6:    4608        .F      MOV      r0,r1
        0x080012b8:    69c0        .i      LDR      r0,[r0,#0x1c]
        0x080012ba:    f0005080    ...P    AND      r0,r0,#0x10000000
        0x080012be:    9000        ..      STR      r0,[sp,#0]
        0x080012c0:    bf00        ..      NOP      
        0x080012c2:    bf00        ..      NOP      
        0x080012c4:    2701        .'      MOVS     r7,#1
        0x080012c6:    486a        jH      LDR      r0,[pc,#424] ; [0x8001470] = 0x40007000
        0x080012c8:    6800        .h      LDR      r0,[r0,#0]
        0x080012ca:    f4007080    ...p    AND      r0,r0,#0x100
        0x080012ce:    b9b0        ..      CBNZ     r0,0x80012fe ; HAL_RCC_OscConfig + 658
        0x080012d0:    4867        gH      LDR      r0,[pc,#412] ; [0x8001470] = 0x40007000
        0x080012d2:    6800        .h      LDR      r0,[r0,#0]
        0x080012d4:    f4407080    @..p    ORR      r0,r0,#0x100
        0x080012d8:    4965        eI      LDR      r1,[pc,#404] ; [0x8001470] = 0x40007000
        0x080012da:    6008        .`      STR      r0,[r1,#0]
        0x080012dc:    f7fffc72    ..r.    BL       HAL_GetTick ; 0x8000bc4
        0x080012e0:    4605        .F      MOV      r5,r0
        0x080012e2:    e006        ..      B        0x80012f2 ; HAL_RCC_OscConfig + 646
        0x080012e4:    f7fffc6e    ..n.    BL       HAL_GetTick ; 0x8000bc4
        0x080012e8:    1b40        @.      SUBS     r0,r0,r5
        0x080012ea:    2864        d(      CMP      r0,#0x64
        0x080012ec:    d901        ..      BLS      0x80012f2 ; HAL_RCC_OscConfig + 646
        0x080012ee:    2003        .       MOVS     r0,#3
        0x080012f0:    e6c0        ..      B        0x8001074 ; HAL_RCC_OscConfig + 8
        0x080012f2:    485f        _H      LDR      r0,[pc,#380] ; [0x8001470] = 0x40007000
        0x080012f4:    6800        .h      LDR      r0,[r0,#0]
        0x080012f6:    f4007080    ...p    AND      r0,r0,#0x100
        0x080012fa:    2800        .(      CMP      r0,#0
        0x080012fc:    d0f2        ..      BEQ      0x80012e4 ; HAL_RCC_OscConfig + 632
        0x080012fe:    bf00        ..      NOP      
        0x08001300:    68e0        .h      LDR      r0,[r4,#0xc]
        0x08001302:    2801        .(      CMP      r0,#1
        0x08001304:    d106        ..      BNE      0x8001314 ; HAL_RCC_OscConfig + 680
        0x08001306:    4857        WH      LDR      r0,[pc,#348] ; [0x8001464] = 0x40021000
        0x08001308:    6a00        .j      LDR      r0,[r0,#0x20]
        0x0800130a:    f0400001    @...    ORR      r0,r0,#1
        0x0800130e:    4955        UI      LDR      r1,[pc,#340] ; [0x8001464] = 0x40021000
        0x08001310:    6208        .b      STR      r0,[r1,#0x20]
        0x08001312:    e027        '.      B        0x8001364 ; HAL_RCC_OscConfig + 760
        0x08001314:    68e0        .h      LDR      r0,[r4,#0xc]
        0x08001316:    b958        X.      CBNZ     r0,0x8001330 ; HAL_RCC_OscConfig + 708
        0x08001318:    4852        RH      LDR      r0,[pc,#328] ; [0x8001464] = 0x40021000
        0x0800131a:    6a00        .j      LDR      r0,[r0,#0x20]
        0x0800131c:    f0200001     ...    BIC      r0,r0,#1
        0x08001320:    4950        PI      LDR      r1,[pc,#320] ; [0x8001464] = 0x40021000
        0x08001322:    6208        .b      STR      r0,[r1,#0x20]
        0x08001324:    4608        .F      MOV      r0,r1
        0x08001326:    6a00        .j      LDR      r0,[r0,#0x20]
        0x08001328:    f0200004     ...    BIC      r0,r0,#4
        0x0800132c:    6208        .b      STR      r0,[r1,#0x20]
        0x0800132e:    e019        ..      B        0x8001364 ; HAL_RCC_OscConfig + 760
        0x08001330:    68e0        .h      LDR      r0,[r4,#0xc]
        0x08001332:    2805        .(      CMP      r0,#5
        0x08001334:    d10b        ..      BNE      0x800134e ; HAL_RCC_OscConfig + 738
        0x08001336:    484b        KH      LDR      r0,[pc,#300] ; [0x8001464] = 0x40021000
        0x08001338:    6a00        .j      LDR      r0,[r0,#0x20]
        0x0800133a:    f0400004    @...    ORR      r0,r0,#4
        0x0800133e:    4949        II      LDR      r1,[pc,#292] ; [0x8001464] = 0x40021000
        0x08001340:    6208        .b      STR      r0,[r1,#0x20]
        0x08001342:    4608        .F      MOV      r0,r1
        0x08001344:    6a00        .j      LDR      r0,[r0,#0x20]
        0x08001346:    f0400001    @...    ORR      r0,r0,#1
        0x0800134a:    6208        .b      STR      r0,[r1,#0x20]
        0x0800134c:    e00a        ..      B        0x8001364 ; HAL_RCC_OscConfig + 760
        0x0800134e:    4845        EH      LDR      r0,[pc,#276] ; [0x8001464] = 0x40021000
        0x08001350:    6a00        .j      LDR      r0,[r0,#0x20]
        0x08001352:    f0200001     ...    BIC      r0,r0,#1
        0x08001356:    4943        CI      LDR      r1,[pc,#268] ; [0x8001464] = 0x40021000
        0x08001358:    6208        .b      STR      r0,[r1,#0x20]
        0x0800135a:    4608        .F      MOV      r0,r1
        0x0800135c:    6a00        .j      LDR      r0,[r0,#0x20]
        0x0800135e:    f0200004     ...    BIC      r0,r0,#4
        0x08001362:    6208        .b      STR      r0,[r1,#0x20]
        0x08001364:    bf00        ..      NOP      
        0x08001366:    68e0        .h      LDR      r0,[r4,#0xc]
        0x08001368:    b1a0        ..      CBZ      r0,0x8001394 ; HAL_RCC_OscConfig + 808
        0x0800136a:    f7fffc2b    ..+.    BL       HAL_GetTick ; 0x8000bc4
        0x0800136e:    4605        .F      MOV      r5,r0
        0x08001370:    e009        ..      B        0x8001386 ; HAL_RCC_OscConfig + 794
        0x08001372:    f7fffc27    ..'.    BL       HAL_GetTick ; 0x8000bc4
        0x08001376:    1b40        @.      SUBS     r0,r0,r5
        0x08001378:    f2413188    A..1    MOV      r1,#0x1388
        0x0800137c:    4288        .B      CMP      r0,r1
        0x0800137e:    d902        ..      BLS      0x8001386 ; HAL_RCC_OscConfig + 794
        0x08001380:    2003        .       MOVS     r0,#3
        0x08001382:    e677        w.      B        0x8001074 ; HAL_RCC_OscConfig + 8
        0x08001384:    e022        ".      B        0x80013cc ; HAL_RCC_OscConfig + 864
        0x08001386:    4837        7H      LDR      r0,[pc,#220] ; [0x8001464] = 0x40021000
        0x08001388:    6a00        .j      LDR      r0,[r0,#0x20]
        0x0800138a:    f0000002    ....    AND      r0,r0,#2
        0x0800138e:    2800        .(      CMP      r0,#0
        0x08001390:    d0ef        ..      BEQ      0x8001372 ; HAL_RCC_OscConfig + 774
        0x08001392:    e012        ..      B        0x80013ba ; HAL_RCC_OscConfig + 846
        0x08001394:    f7fffc16    ....    BL       HAL_GetTick ; 0x8000bc4
        0x08001398:    4605        .F      MOV      r5,r0
        0x0800139a:    e008        ..      B        0x80013ae ; HAL_RCC_OscConfig + 834
        0x0800139c:    f7fffc12    ....    BL       HAL_GetTick ; 0x8000bc4
        0x080013a0:    1b40        @.      SUBS     r0,r0,r5
        0x080013a2:    f2413188    A..1    MOV      r1,#0x1388
        0x080013a6:    4288        .B      CMP      r0,r1
        0x080013a8:    d901        ..      BLS      0x80013ae ; HAL_RCC_OscConfig + 834
        0x080013aa:    2003        .       MOVS     r0,#3
        0x080013ac:    e662        b.      B        0x8001074 ; HAL_RCC_OscConfig + 8
        0x080013ae:    482d        -H      LDR      r0,[pc,#180] ; [0x8001464] = 0x40021000
        0x080013b0:    6a00        .j      LDR      r0,[r0,#0x20]
        0x080013b2:    f0000002    ....    AND      r0,r0,#2
        0x080013b6:    2800        .(      CMP      r0,#0
        0x080013b8:    d1f0        ..      BNE      0x800139c ; HAL_RCC_OscConfig + 816
        0x080013ba:    2f01        ./      CMP      r7,#1
        0x080013bc:    d105        ..      BNE      0x80013ca ; HAL_RCC_OscConfig + 862
        0x080013be:    4829        )H      LDR      r0,[pc,#164] ; [0x8001464] = 0x40021000
        0x080013c0:    69c0        .i      LDR      r0,[r0,#0x1c]
        0x080013c2:    f0205080     ..P    BIC      r0,r0,#0x10000000
        0x080013c6:    4927        'I      LDR      r1,[pc,#156] ; [0x8001464] = 0x40021000
        0x080013c8:    61c8        .a      STR      r0,[r1,#0x1c]
        0x080013ca:    bf00        ..      NOP      
        0x080013cc:    69e0        .i      LDR      r0,[r4,#0x1c]
        0x080013ce:    b3c8        ..      CBZ      r0,0x8001444 ; HAL_RCC_OscConfig + 984
        0x080013d0:    4824        $H      LDR      r0,[pc,#144] ; [0x8001464] = 0x40021000
        0x080013d2:    6840        @h      LDR      r0,[r0,#4]
        0x080013d4:    f000000c    ....    AND      r0,r0,#0xc
        0x080013d8:    2808        .(      CMP      r0,#8
        0x080013da:    d060        `.      BEQ      0x800149e ; HAL_RCC_OscConfig + 1074
        0x080013dc:    69e0        .i      LDR      r0,[r4,#0x1c]
        0x080013de:    2802        .(      CMP      r0,#2
        0x080013e0:    d148        H.      BNE      0x8001474 ; HAL_RCC_OscConfig + 1032
        0x080013e2:    2000        .       MOVS     r0,#0
        0x080013e4:    4920         I      LDR      r1,[pc,#128] ; [0x8001468] = 0x42420000
        0x080013e6:    6608        .f      STR      r0,[r1,#0x60]
        0x080013e8:    f7fffbec    ....    BL       HAL_GetTick ; 0x8000bc4
        0x080013ec:    4605        .F      MOV      r5,r0
        0x080013ee:    e006        ..      B        0x80013fe ; HAL_RCC_OscConfig + 914
        0x080013f0:    f7fffbe8    ....    BL       HAL_GetTick ; 0x8000bc4
        0x080013f4:    1b40        @.      SUBS     r0,r0,r5
        0x080013f6:    2802        .(      CMP      r0,#2
        0x080013f8:    d901        ..      BLS      0x80013fe ; HAL_RCC_OscConfig + 914
        0x080013fa:    2003        .       MOVS     r0,#3
        0x080013fc:    e63a        :.      B        0x8001074 ; HAL_RCC_OscConfig + 8
        0x080013fe:    4819        .H      LDR      r0,[pc,#100] ; [0x8001464] = 0x40021000
        0x08001400:    6800        .h      LDR      r0,[r0,#0]
        0x08001402:    f0007000    ...p    AND      r0,r0,#0x2000000
        0x08001406:    2800        .(      CMP      r0,#0
        0x08001408:    d1f2        ..      BNE      0x80013f0 ; HAL_RCC_OscConfig + 900
        0x0800140a:    6a20         j      LDR      r0,[r4,#0x20]
        0x0800140c:    f5b03f80    ...?    CMP      r0,#0x10000
        0x08001410:    d107        ..      BNE      0x8001422 ; HAL_RCC_OscConfig + 950
        0x08001412:    4814        .H      LDR      r0,[pc,#80] ; [0x8001464] = 0x40021000
        0x08001414:    6840        @h      LDR      r0,[r0,#4]
        0x08001416:    f4203000     ..0    BIC      r0,r0,#0x20000
        0x0800141a:    68a1        .h      LDR      r1,[r4,#8]
        0x0800141c:    4308        .C      ORRS     r0,r0,r1
        0x0800141e:    4911        .I      LDR      r1,[pc,#68] ; [0x8001464] = 0x40021000
        0x08001420:    6048        H`      STR      r0,[r1,#4]
        0x08001422:    e9d40108    ....    LDRD     r0,r1,[r4,#0x20]
        0x08001426:    4308        .C      ORRS     r0,r0,r1
        0x08001428:    490e        .I      LDR      r1,[pc,#56] ; [0x8001464] = 0x40021000
        0x0800142a:    6849        Ih      LDR      r1,[r1,#4]
        0x0800142c:    f4211174    !.t.    BIC      r1,r1,#0x3d0000
        0x08001430:    4308        .C      ORRS     r0,r0,r1
        0x08001432:    490c        .I      LDR      r1,[pc,#48] ; [0x8001464] = 0x40021000
        0x08001434:    6048        H`      STR      r0,[r1,#4]
        0x08001436:    2001        .       MOVS     r0,#1
        0x08001438:    490b        .I      LDR      r1,[pc,#44] ; [0x8001468] = 0x42420000
        0x0800143a:    6608        .f      STR      r0,[r1,#0x60]
        0x0800143c:    f7fffbc2    ....    BL       HAL_GetTick ; 0x8000bc4
        0x08001440:    4605        .F      MOV      r5,r0
        0x08001442:    e007        ..      B        0x8001454 ; HAL_RCC_OscConfig + 1000
        0x08001444:    e03d        =.      B        0x80014c2 ; HAL_RCC_OscConfig + 1110
        0x08001446:    f7fffbbd    ....    BL       HAL_GetTick ; 0x8000bc4
        0x0800144a:    1b40        @.      SUBS     r0,r0,r5
        0x0800144c:    2802        .(      CMP      r0,#2
        0x0800144e:    d901        ..      BLS      0x8001454 ; HAL_RCC_OscConfig + 1000
        0x08001450:    2003        .       MOVS     r0,#3
        0x08001452:    e60f        ..      B        0x8001074 ; HAL_RCC_OscConfig + 8
        0x08001454:    4803        .H      LDR      r0,[pc,#12] ; [0x8001464] = 0x40021000
        0x08001456:    6800        .h      LDR      r0,[r0,#0]
        0x08001458:    f0007000    ...p    AND      r0,r0,#0x2000000
        0x0800145c:    2800        .(      CMP      r0,#0
        0x0800145e:    d0f2        ..      BEQ      0x8001446 ; HAL_RCC_OscConfig + 986
        0x08001460:    e02f        /.      B        0x80014c2 ; HAL_RCC_OscConfig + 1110
    $d
        0x08001462:    0000        ..      DCW    0
        0x08001464:    40021000    ...@    DCD    1073876992
        0x08001468:    42420000    ..BB    DCD    1111621632
        0x0800146c:    42420480    ..BB    DCD    1111622784
        0x08001470:    40007000    .p.@    DCD    1073770496
    $t
        0x08001474:    2000        .       MOVS     r0,#0
        0x08001476:    4914        .I      LDR      r1,[pc,#80] ; [0x80014c8] = 0x42420000
        0x08001478:    6608        .f      STR      r0,[r1,#0x60]
        0x0800147a:    f7fffba3    ....    BL       HAL_GetTick ; 0x8000bc4
        0x0800147e:    4605        .F      MOV      r5,r0
        0x08001480:    e006        ..      B        0x8001490 ; HAL_RCC_OscConfig + 1060
        0x08001482:    f7fffb9f    ....    BL       HAL_GetTick ; 0x8000bc4
        0x08001486:    1b40        @.      SUBS     r0,r0,r5
        0x08001488:    2802        .(      CMP      r0,#2
        0x0800148a:    d901        ..      BLS      0x8001490 ; HAL_RCC_OscConfig + 1060
        0x0800148c:    2003        .       MOVS     r0,#3
        0x0800148e:    e5f1        ..      B        0x8001074 ; HAL_RCC_OscConfig + 8
        0x08001490:    480e        .H      LDR      r0,[pc,#56] ; [0x80014cc] = 0x40021000
        0x08001492:    6800        .h      LDR      r0,[r0,#0]
        0x08001494:    f0007000    ...p    AND      r0,r0,#0x2000000
        0x08001498:    2800        .(      CMP      r0,#0
        0x0800149a:    d1f2        ..      BNE      0x8001482 ; HAL_RCC_OscConfig + 1046
        0x0800149c:    e011        ..      B        0x80014c2 ; HAL_RCC_OscConfig + 1110
        0x0800149e:    69e0        .i      LDR      r0,[r4,#0x1c]
        0x080014a0:    2801        .(      CMP      r0,#1
        0x080014a2:    d100        ..      BNE      0x80014a6 ; HAL_RCC_OscConfig + 1082
        0x080014a4:    e5e6        ..      B        0x8001074 ; HAL_RCC_OscConfig + 8
        0x080014a6:    4809        .H      LDR      r0,[pc,#36] ; [0x80014cc] = 0x40021000
        0x080014a8:    6846        Fh      LDR      r6,[r0,#4]
        0x080014aa:    f4063180    ...1    AND      r1,r6,#0x10000
        0x080014ae:    6a20         j      LDR      r0,[r4,#0x20]
        0x080014b0:    4281        .B      CMP      r1,r0
        0x080014b2:    d104        ..      BNE      0x80014be ; HAL_RCC_OscConfig + 1106
        0x080014b4:    f4061170    ..p.    AND      r1,r6,#0x3c0000
        0x080014b8:    6a60        `j      LDR      r0,[r4,#0x24]
        0x080014ba:    4281        .B      CMP      r1,r0
        0x080014bc:    d001        ..      BEQ      0x80014c2 ; HAL_RCC_OscConfig + 1110
        0x080014be:    2001        .       MOVS     r0,#1
        0x080014c0:    e5d8        ..      B        0x8001074 ; HAL_RCC_OscConfig + 8
        0x080014c2:    2000        .       MOVS     r0,#0
        0x080014c4:    e5d6        ..      B        0x8001074 ; HAL_RCC_OscConfig + 8
    $d
        0x080014c6:    0000        ..      DCW    0
        0x080014c8:    42420000    ..BB    DCD    1111621632
        0x080014cc:    40021000    ...@    DCD    1073876992
    $t
    i.HAL_TIMEx_BreakCallback
    HAL_TIMEx_BreakCallback
        0x080014d0:    4770        pG      BX       lr
    i.HAL_TIMEx_CommutCallback
    HAL_TIMEx_CommutCallback
        0x080014d2:    4770        pG      BX       lr
    i.HAL_TIM_Base_Init
    HAL_TIM_Base_Init
        0x080014d4:    b510        ..      PUSH     {r4,lr}
        0x080014d6:    4604        .F      MOV      r4,r0
        0x080014d8:    b90c        ..      CBNZ     r4,0x80014de ; HAL_TIM_Base_Init + 10
        0x080014da:    2001        .       MOVS     r0,#1
        0x080014dc:    bd10        ..      POP      {r4,pc}
        0x080014de:    f894003d    ..=.    LDRB     r0,[r4,#0x3d]
        0x080014e2:    b928        (.      CBNZ     r0,0x80014f0 ; HAL_TIM_Base_Init + 28
        0x080014e4:    2000        .       MOVS     r0,#0
        0x080014e6:    f884003c    ..<.    STRB     r0,[r4,#0x3c]
        0x080014ea:    4620         F      MOV      r0,r4
        0x080014ec:    f000f825    ..%.    BL       HAL_TIM_Base_MspInit ; 0x800153a
        0x080014f0:    2002        .       MOVS     r0,#2
        0x080014f2:    f884003d    ..=.    STRB     r0,[r4,#0x3d]
        0x080014f6:    1d21        !.      ADDS     r1,r4,#4
        0x080014f8:    6820         h      LDR      r0,[r4,#0]
        0x080014fa:    f001fa17    ....    BL       TIM_Base_SetConfig ; 0x800292c
        0x080014fe:    2001        .       MOVS     r0,#1
        0x08001500:    f8840046    ..F.    STRB     r0,[r4,#0x46]
        0x08001504:    bf00        ..      NOP      
        0x08001506:    f884003e    ..>.    STRB     r0,[r4,#0x3e]
        0x0800150a:    2101        .!      MOVS     r1,#1
        0x0800150c:    203f        ?       MOVS     r0,#0x3f
        0x0800150e:    5501        .U      STRB     r1,[r0,r4]
        0x08001510:    2040        @       MOVS     r0,#0x40
        0x08001512:    5501        .U      STRB     r1,[r0,r4]
        0x08001514:    2041        A       MOVS     r0,#0x41
        0x08001516:    5501        .U      STRB     r1,[r0,r4]
        0x08001518:    bf00        ..      NOP      
        0x0800151a:    bf00        ..      NOP      
        0x0800151c:    2001        .       MOVS     r0,#1
        0x0800151e:    f8840042    ..B.    STRB     r0,[r4,#0x42]
        0x08001522:    2043        C       MOVS     r0,#0x43
        0x08001524:    5501        .U      STRB     r1,[r0,r4]
        0x08001526:    2044        D       MOVS     r0,#0x44
        0x08001528:    5501        .U      STRB     r1,[r0,r4]
        0x0800152a:    2045        E       MOVS     r0,#0x45
        0x0800152c:    5501        .U      STRB     r1,[r0,r4]
        0x0800152e:    bf00        ..      NOP      
        0x08001530:    2001        .       MOVS     r0,#1
        0x08001532:    f884003d    ..=.    STRB     r0,[r4,#0x3d]
        0x08001536:    2000        .       MOVS     r0,#0
        0x08001538:    e7d0        ..      B        0x80014dc ; HAL_TIM_Base_Init + 8
    i.HAL_TIM_Base_MspInit
    HAL_TIM_Base_MspInit
        0x0800153a:    4770        pG      BX       lr
    i.HAL_TIM_Base_Start_IT
    HAL_TIM_Base_Start_IT
        0x0800153c:    4601        .F      MOV      r1,r0
        0x0800153e:    f891003d    ..=.    LDRB     r0,[r1,#0x3d]
        0x08001542:    2801        .(      CMP      r0,#1
        0x08001544:    d001        ..      BEQ      0x800154a ; HAL_TIM_Base_Start_IT + 14
        0x08001546:    2001        .       MOVS     r0,#1
        0x08001548:    4770        pG      BX       lr
        0x0800154a:    2002        .       MOVS     r0,#2
        0x0800154c:    f881003d    ..=.    STRB     r0,[r1,#0x3d]
        0x08001550:    6808        .h      LDR      r0,[r1,#0]
        0x08001552:    68c0        .h      LDR      r0,[r0,#0xc]
        0x08001554:    f0400001    @...    ORR      r0,r0,#1
        0x08001558:    680b        .h      LDR      r3,[r1,#0]
        0x0800155a:    60d8        .`      STR      r0,[r3,#0xc]
        0x0800155c:    4b16        .K      LDR      r3,[pc,#88] ; [0x80015b8] = 0x40012c00
        0x0800155e:    6808        .h      LDR      r0,[r1,#0]
        0x08001560:    4298        .B      CMP      r0,r3
        0x08001562:    d013        ..      BEQ      0x800158c ; HAL_TIM_Base_Start_IT + 80
        0x08001564:    4b15        .K      LDR      r3,[pc,#84] ; [0x80015bc] = 0x40013400
        0x08001566:    6808        .h      LDR      r0,[r1,#0]
        0x08001568:    4298        .B      CMP      r0,r3
        0x0800156a:    d00f        ..      BEQ      0x800158c ; HAL_TIM_Base_Start_IT + 80
        0x0800156c:    6808        .h      LDR      r0,[r1,#0]
        0x0800156e:    f1b04f80    ...O    CMP      r0,#0x40000000
        0x08001572:    d00b        ..      BEQ      0x800158c ; HAL_TIM_Base_Start_IT + 80
        0x08001574:    4b12        .K      LDR      r3,[pc,#72] ; [0x80015c0] = 0x40000400
        0x08001576:    6808        .h      LDR      r0,[r1,#0]
        0x08001578:    4298        .B      CMP      r0,r3
        0x0800157a:    d007        ..      BEQ      0x800158c ; HAL_TIM_Base_Start_IT + 80
        0x0800157c:    4b11        .K      LDR      r3,[pc,#68] ; [0x80015c4] = 0x40000800
        0x0800157e:    6808        .h      LDR      r0,[r1,#0]
        0x08001580:    4298        .B      CMP      r0,r3
        0x08001582:    d003        ..      BEQ      0x800158c ; HAL_TIM_Base_Start_IT + 80
        0x08001584:    4b10        .K      LDR      r3,[pc,#64] ; [0x80015c8] = 0x40000c00
        0x08001586:    6808        .h      LDR      r0,[r1,#0]
        0x08001588:    4298        .B      CMP      r0,r3
        0x0800158a:    d10c        ..      BNE      0x80015a6 ; HAL_TIM_Base_Start_IT + 106
        0x0800158c:    6808        .h      LDR      r0,[r1,#0]
        0x0800158e:    6880        .h      LDR      r0,[r0,#8]
        0x08001590:    f0000207    ....    AND      r2,r0,#7
        0x08001594:    2a06        .*      CMP      r2,#6
        0x08001596:    d00c        ..      BEQ      0x80015b2 ; HAL_TIM_Base_Start_IT + 118
        0x08001598:    6808        .h      LDR      r0,[r1,#0]
        0x0800159a:    6800        .h      LDR      r0,[r0,#0]
        0x0800159c:    f0400001    @...    ORR      r0,r0,#1
        0x080015a0:    680b        .h      LDR      r3,[r1,#0]
        0x080015a2:    6018        .`      STR      r0,[r3,#0]
        0x080015a4:    e005        ..      B        0x80015b2 ; HAL_TIM_Base_Start_IT + 118
        0x080015a6:    6808        .h      LDR      r0,[r1,#0]
        0x080015a8:    6800        .h      LDR      r0,[r0,#0]
        0x080015aa:    f0400001    @...    ORR      r0,r0,#1
        0x080015ae:    680b        .h      LDR      r3,[r1,#0]
        0x080015b0:    6018        .`      STR      r0,[r3,#0]
        0x080015b2:    2000        .       MOVS     r0,#0
        0x080015b4:    e7c8        ..      B        0x8001548 ; HAL_TIM_Base_Start_IT + 12
    $d
        0x080015b6:    0000        ..      DCW    0
        0x080015b8:    40012c00    .,.@    DCD    1073818624
        0x080015bc:    40013400    .4.@    DCD    1073820672
        0x080015c0:    40000400    ...@    DCD    1073742848
        0x080015c4:    40000800    ...@    DCD    1073743872
        0x080015c8:    40000c00    ...@    DCD    1073744896
    $t
    i.HAL_TIM_IC_CaptureCallback
    HAL_TIM_IC_CaptureCallback
        0x080015cc:    4770        pG      BX       lr
    i.HAL_TIM_IRQHandler
    HAL_TIM_IRQHandler
        0x080015ce:    b510        ..      PUSH     {r4,lr}
        0x080015d0:    4604        .F      MOV      r4,r0
        0x080015d2:    6820         h      LDR      r0,[r4,#0]
        0x080015d4:    6900        .i      LDR      r0,[r0,#0x10]
        0x080015d6:    f3c00040    ..@.    UBFX     r0,r0,#1,#1
        0x080015da:    b1d8        ..      CBZ      r0,0x8001614 ; HAL_TIM_IRQHandler + 70
        0x080015dc:    6820         h      LDR      r0,[r4,#0]
        0x080015de:    68c0        .h      LDR      r0,[r0,#0xc]
        0x080015e0:    f3c00040    ..@.    UBFX     r0,r0,#1,#1
        0x080015e4:    b1b0        ..      CBZ      r0,0x8001614 ; HAL_TIM_IRQHandler + 70
        0x080015e6:    f06f0002    o...    MVN      r0,#2
        0x080015ea:    6821        !h      LDR      r1,[r4,#0]
        0x080015ec:    6108        .a      STR      r0,[r1,#0x10]
        0x080015ee:    2001        .       MOVS     r0,#1
        0x080015f0:    7720         w      STRB     r0,[r4,#0x1c]
        0x080015f2:    6820         h      LDR      r0,[r4,#0]
        0x080015f4:    6980        .i      LDR      r0,[r0,#0x18]
        0x080015f6:    f0000003    ....    AND      r0,r0,#3
        0x080015fa:    b118        ..      CBZ      r0,0x8001604 ; HAL_TIM_IRQHandler + 54
        0x080015fc:    4620         F      MOV      r0,r4
        0x080015fe:    f7ffffe5    ....    BL       HAL_TIM_IC_CaptureCallback ; 0x80015cc
        0x08001602:    e005        ..      B        0x8001610 ; HAL_TIM_IRQHandler + 66
        0x08001604:    4620         F      MOV      r0,r4
        0x08001606:    f000f8ad    ....    BL       HAL_TIM_OC_DelayElapsedCallback ; 0x8001764
        0x0800160a:    4620         F      MOV      r0,r4
        0x0800160c:    f000f8ab    ....    BL       HAL_TIM_PWM_PulseFinishedCallback ; 0x8001766
        0x08001610:    2000        .       MOVS     r0,#0
        0x08001612:    7720         w      STRB     r0,[r4,#0x1c]
        0x08001614:    6820         h      LDR      r0,[r4,#0]
        0x08001616:    6900        .i      LDR      r0,[r0,#0x10]
        0x08001618:    f3c00080    ....    UBFX     r0,r0,#2,#1
        0x0800161c:    b1d8        ..      CBZ      r0,0x8001656 ; HAL_TIM_IRQHandler + 136
        0x0800161e:    6820         h      LDR      r0,[r4,#0]
        0x08001620:    68c0        .h      LDR      r0,[r0,#0xc]
        0x08001622:    f3c00080    ....    UBFX     r0,r0,#2,#1
        0x08001626:    b1b0        ..      CBZ      r0,0x8001656 ; HAL_TIM_IRQHandler + 136
        0x08001628:    f06f0004    o...    MVN      r0,#4
        0x0800162c:    6821        !h      LDR      r1,[r4,#0]
        0x0800162e:    6108        .a      STR      r0,[r1,#0x10]
        0x08001630:    2002        .       MOVS     r0,#2
        0x08001632:    7720         w      STRB     r0,[r4,#0x1c]
        0x08001634:    6820         h      LDR      r0,[r4,#0]
        0x08001636:    6980        .i      LDR      r0,[r0,#0x18]
        0x08001638:    f4007040    ..@p    AND      r0,r0,#0x300
        0x0800163c:    b118        ..      CBZ      r0,0x8001646 ; HAL_TIM_IRQHandler + 120
        0x0800163e:    4620         F      MOV      r0,r4
        0x08001640:    f7ffffc4    ....    BL       HAL_TIM_IC_CaptureCallback ; 0x80015cc
        0x08001644:    e005        ..      B        0x8001652 ; HAL_TIM_IRQHandler + 132
        0x08001646:    4620         F      MOV      r0,r4
        0x08001648:    f000f88c    ....    BL       HAL_TIM_OC_DelayElapsedCallback ; 0x8001764
        0x0800164c:    4620         F      MOV      r0,r4
        0x0800164e:    f000f88a    ....    BL       HAL_TIM_PWM_PulseFinishedCallback ; 0x8001766
        0x08001652:    2000        .       MOVS     r0,#0
        0x08001654:    7720         w      STRB     r0,[r4,#0x1c]
        0x08001656:    6820         h      LDR      r0,[r4,#0]
        0x08001658:    6900        .i      LDR      r0,[r0,#0x10]
        0x0800165a:    f3c000c0    ....    UBFX     r0,r0,#3,#1
        0x0800165e:    b1d8        ..      CBZ      r0,0x8001698 ; HAL_TIM_IRQHandler + 202
        0x08001660:    6820         h      LDR      r0,[r4,#0]
        0x08001662:    68c0        .h      LDR      r0,[r0,#0xc]
        0x08001664:    f3c000c0    ....    UBFX     r0,r0,#3,#1
        0x08001668:    b1b0        ..      CBZ      r0,0x8001698 ; HAL_TIM_IRQHandler + 202
        0x0800166a:    f06f0008    o...    MVN      r0,#8
        0x0800166e:    6821        !h      LDR      r1,[r4,#0]
        0x08001670:    6108        .a      STR      r0,[r1,#0x10]
        0x08001672:    2004        .       MOVS     r0,#4
        0x08001674:    7720         w      STRB     r0,[r4,#0x1c]
        0x08001676:    6820         h      LDR      r0,[r4,#0]
        0x08001678:    69c0        .i      LDR      r0,[r0,#0x1c]
        0x0800167a:    f0000003    ....    AND      r0,r0,#3
        0x0800167e:    b118        ..      CBZ      r0,0x8001688 ; HAL_TIM_IRQHandler + 186
        0x08001680:    4620         F      MOV      r0,r4
        0x08001682:    f7ffffa3    ....    BL       HAL_TIM_IC_CaptureCallback ; 0x80015cc
        0x08001686:    e005        ..      B        0x8001694 ; HAL_TIM_IRQHandler + 198
        0x08001688:    4620         F      MOV      r0,r4
        0x0800168a:    f000f86b    ..k.    BL       HAL_TIM_OC_DelayElapsedCallback ; 0x8001764
        0x0800168e:    4620         F      MOV      r0,r4
        0x08001690:    f000f869    ..i.    BL       HAL_TIM_PWM_PulseFinishedCallback ; 0x8001766
        0x08001694:    2000        .       MOVS     r0,#0
        0x08001696:    7720         w      STRB     r0,[r4,#0x1c]
        0x08001698:    6820         h      LDR      r0,[r4,#0]
        0x0800169a:    6900        .i      LDR      r0,[r0,#0x10]
        0x0800169c:    f3c01000    ....    UBFX     r0,r0,#4,#1
        0x080016a0:    b1d8        ..      CBZ      r0,0x80016da ; HAL_TIM_IRQHandler + 268
        0x080016a2:    6820         h      LDR      r0,[r4,#0]
        0x080016a4:    68c0        .h      LDR      r0,[r0,#0xc]
        0x080016a6:    f3c01000    ....    UBFX     r0,r0,#4,#1
        0x080016aa:    b1b0        ..      CBZ      r0,0x80016da ; HAL_TIM_IRQHandler + 268
        0x080016ac:    f06f0010    o...    MVN      r0,#0x10
        0x080016b0:    6821        !h      LDR      r1,[r4,#0]
        0x080016b2:    6108        .a      STR      r0,[r1,#0x10]
        0x080016b4:    2008        .       MOVS     r0,#8
        0x080016b6:    7720         w      STRB     r0,[r4,#0x1c]
        0x080016b8:    6820         h      LDR      r0,[r4,#0]
        0x080016ba:    69c0        .i      LDR      r0,[r0,#0x1c]
        0x080016bc:    f4007040    ..@p    AND      r0,r0,#0x300
        0x080016c0:    b118        ..      CBZ      r0,0x80016ca ; HAL_TIM_IRQHandler + 252
        0x080016c2:    4620         F      MOV      r0,r4
        0x080016c4:    f7ffff82    ....    BL       HAL_TIM_IC_CaptureCallback ; 0x80015cc
        0x080016c8:    e005        ..      B        0x80016d6 ; HAL_TIM_IRQHandler + 264
        0x080016ca:    4620         F      MOV      r0,r4
        0x080016cc:    f000f84a    ..J.    BL       HAL_TIM_OC_DelayElapsedCallback ; 0x8001764
        0x080016d0:    4620         F      MOV      r0,r4
        0x080016d2:    f000f848    ..H.    BL       HAL_TIM_PWM_PulseFinishedCallback ; 0x8001766
        0x080016d6:    2000        .       MOVS     r0,#0
        0x080016d8:    7720         w      STRB     r0,[r4,#0x1c]
        0x080016da:    6820         h      LDR      r0,[r4,#0]
        0x080016dc:    6900        .i      LDR      r0,[r0,#0x10]
        0x080016de:    f0000001    ....    AND      r0,r0,#1
        0x080016e2:    b158        X.      CBZ      r0,0x80016fc ; HAL_TIM_IRQHandler + 302
        0x080016e4:    6820         h      LDR      r0,[r4,#0]
        0x080016e6:    68c0        .h      LDR      r0,[r0,#0xc]
        0x080016e8:    f0000001    ....    AND      r0,r0,#1
        0x080016ec:    b130        0.      CBZ      r0,0x80016fc ; HAL_TIM_IRQHandler + 302
        0x080016ee:    f06f0001    o...    MVN      r0,#1
        0x080016f2:    6821        !h      LDR      r1,[r4,#0]
        0x080016f4:    6108        .a      STR      r0,[r1,#0x10]
        0x080016f6:    4620         F      MOV      r0,r4
        0x080016f8:    f000f836    ..6.    BL       HAL_TIM_PeriodElapsedCallback ; 0x8001768
        0x080016fc:    6820         h      LDR      r0,[r4,#0]
        0x080016fe:    6900        .i      LDR      r0,[r0,#0x10]
        0x08001700:    f3c010c0    ....    UBFX     r0,r0,#7,#1
        0x08001704:    b158        X.      CBZ      r0,0x800171e ; HAL_TIM_IRQHandler + 336
        0x08001706:    6820         h      LDR      r0,[r4,#0]
        0x08001708:    68c0        .h      LDR      r0,[r0,#0xc]
        0x0800170a:    f3c010c0    ....    UBFX     r0,r0,#7,#1
        0x0800170e:    b130        0.      CBZ      r0,0x800171e ; HAL_TIM_IRQHandler + 336
        0x08001710:    f06f0080    o...    MVN      r0,#0x80
        0x08001714:    6821        !h      LDR      r1,[r4,#0]
        0x08001716:    6108        .a      STR      r0,[r1,#0x10]
        0x08001718:    4620         F      MOV      r0,r4
        0x0800171a:    f7fffed9    ....    BL       HAL_TIMEx_BreakCallback ; 0x80014d0
        0x0800171e:    6820         h      LDR      r0,[r4,#0]
        0x08001720:    6900        .i      LDR      r0,[r0,#0x10]
        0x08001722:    f3c01080    ....    UBFX     r0,r0,#6,#1
        0x08001726:    b158        X.      CBZ      r0,0x8001740 ; HAL_TIM_IRQHandler + 370
        0x08001728:    6820         h      LDR      r0,[r4,#0]
        0x0800172a:    68c0        .h      LDR      r0,[r0,#0xc]
        0x0800172c:    f3c01080    ....    UBFX     r0,r0,#6,#1
        0x08001730:    b130        0.      CBZ      r0,0x8001740 ; HAL_TIM_IRQHandler + 370
        0x08001732:    f06f0040    o.@.    MVN      r0,#0x40
        0x08001736:    6821        !h      LDR      r1,[r4,#0]
        0x08001738:    6108        .a      STR      r0,[r1,#0x10]
        0x0800173a:    4620         F      MOV      r0,r4
        0x0800173c:    f000f820    .. .    BL       HAL_TIM_TriggerCallback ; 0x8001780
        0x08001740:    6820         h      LDR      r0,[r4,#0]
        0x08001742:    6900        .i      LDR      r0,[r0,#0x10]
        0x08001744:    f3c01040    ..@.    UBFX     r0,r0,#5,#1
        0x08001748:    b158        X.      CBZ      r0,0x8001762 ; HAL_TIM_IRQHandler + 404
        0x0800174a:    6820         h      LDR      r0,[r4,#0]
        0x0800174c:    68c0        .h      LDR      r0,[r0,#0xc]
        0x0800174e:    f3c01040    ..@.    UBFX     r0,r0,#5,#1
        0x08001752:    b130        0.      CBZ      r0,0x8001762 ; HAL_TIM_IRQHandler + 404
        0x08001754:    f06f0020    o. .    MVN      r0,#0x20
        0x08001758:    6821        !h      LDR      r1,[r4,#0]
        0x0800175a:    6108        .a      STR      r0,[r1,#0x10]
        0x0800175c:    4620         F      MOV      r0,r4
        0x0800175e:    f7fffeb8    ....    BL       HAL_TIMEx_CommutCallback ; 0x80014d2
        0x08001762:    bd10        ..      POP      {r4,pc}
    i.HAL_TIM_OC_DelayElapsedCallback
    HAL_TIM_OC_DelayElapsedCallback
        0x08001764:    4770        pG      BX       lr
    i.HAL_TIM_PWM_PulseFinishedCallback
    HAL_TIM_PWM_PulseFinishedCallback
        0x08001766:    4770        pG      BX       lr
    i.HAL_TIM_PeriodElapsedCallback
    HAL_TIM_PeriodElapsedCallback
        0x08001768:    b510        ..      PUSH     {r4,lr}
        0x0800176a:    4604        .F      MOV      r4,r0
        0x0800176c:    4903        .I      LDR      r1,[pc,#12] ; [0x800177c] = 0x40013400
        0x0800176e:    6820         h      LDR      r0,[r4,#0]
        0x08001770:    4288        .B      CMP      r0,r1
        0x08001772:    d101        ..      BNE      0x8001778 ; HAL_TIM_PeriodElapsedCallback + 16
        0x08001774:    f7fffa2c    ..,.    BL       HAL_IncTick ; 0x8000bd0
        0x08001778:    bd10        ..      POP      {r4,pc}
    $d
        0x0800177a:    0000        ..      DCW    0
        0x0800177c:    40013400    .4.@    DCD    1073820672
    $t
    i.HAL_TIM_TriggerCallback
    HAL_TIM_TriggerCallback
        0x08001780:    4770        pG      BX       lr
    i.HAL_UARTEx_RxEventCallback
    HAL_UARTEx_RxEventCallback
        0x08001782:    4770        pG      BX       lr
    i.HAL_UART_ErrorCallback
    HAL_UART_ErrorCallback
        0x08001784:    4770        pG      BX       lr
        0x08001786:    0000        ..      MOVS     r0,r0
    i.HAL_UART_IRQHandler
    HAL_UART_IRQHandler
        0x08001788:    e92d4ff8    -..O    PUSH     {r3-r11,lr}
        0x0800178c:    4604        .F      MOV      r4,r0
        0x0800178e:    6820         h      LDR      r0,[r4,#0]
        0x08001790:    6805        .h      LDR      r5,[r0,#0]
        0x08001792:    6820         h      LDR      r0,[r4,#0]
        0x08001794:    68c6        .h      LDR      r6,[r0,#0xc]
        0x08001796:    6820         h      LDR      r0,[r4,#0]
        0x08001798:    6947        Gi      LDR      r7,[r0,#0x14]
        0x0800179a:    f04f0900    O...    MOV      r9,#0
        0x0800179e:    46ca        .F      MOV      r10,r9
        0x080017a0:    f005090f    ....    AND      r9,r5,#0xf
        0x080017a4:    f1b90f00    ....    CMP      r9,#0
        0x080017a8:    d10a        ..      BNE      0x80017c0 ; HAL_UART_IRQHandler + 56
        0x080017aa:    f0050020    .. .    AND      r0,r5,#0x20
        0x080017ae:    b138        8.      CBZ      r0,0x80017c0 ; HAL_UART_IRQHandler + 56
        0x080017b0:    f0060020    .. .    AND      r0,r6,#0x20
        0x080017b4:    b120         .      CBZ      r0,0x80017c0 ; HAL_UART_IRQHandler + 56
        0x080017b6:    4620         F      MOV      r0,r4
        0x080017b8:    f001f94b    ..K.    BL       UART_Receive_IT ; 0x8002a52
        0x080017bc:    e8bd8ff8    ....    POP      {r3-r11,pc}
        0x080017c0:    f1b90f00    ....    CMP      r9,#0
        0x080017c4:    d071        q.      BEQ      0x80018aa ; HAL_UART_IRQHandler + 290
        0x080017c6:    f0070001    ....    AND      r0,r7,#1
        0x080017ca:    b918        ..      CBNZ     r0,0x80017d4 ; HAL_UART_IRQHandler + 76
        0x080017cc:    f4067090    ...p    AND      r0,r6,#0x120
        0x080017d0:    2800        .(      CMP      r0,#0
        0x080017d2:    d06a        j.      BEQ      0x80018aa ; HAL_UART_IRQHandler + 290
        0x080017d4:    f0050001    ....    AND      r0,r5,#1
        0x080017d8:    b130        0.      CBZ      r0,0x80017e8 ; HAL_UART_IRQHandler + 96
        0x080017da:    f4067080    ...p    AND      r0,r6,#0x100
        0x080017de:    b118        ..      CBZ      r0,0x80017e8 ; HAL_UART_IRQHandler + 96
        0x080017e0:    6c20         l      LDR      r0,[r4,#0x40]
        0x080017e2:    f0400001    @...    ORR      r0,r0,#1
        0x080017e6:    6420         d      STR      r0,[r4,#0x40]
        0x080017e8:    f0050004    ....    AND      r0,r5,#4
        0x080017ec:    b130        0.      CBZ      r0,0x80017fc ; HAL_UART_IRQHandler + 116
        0x080017ee:    f0070001    ....    AND      r0,r7,#1
        0x080017f2:    b118        ..      CBZ      r0,0x80017fc ; HAL_UART_IRQHandler + 116
        0x080017f4:    6c20         l      LDR      r0,[r4,#0x40]
        0x080017f6:    f0400002    @...    ORR      r0,r0,#2
        0x080017fa:    6420         d      STR      r0,[r4,#0x40]
        0x080017fc:    f0050002    ....    AND      r0,r5,#2
        0x08001800:    b130        0.      CBZ      r0,0x8001810 ; HAL_UART_IRQHandler + 136
        0x08001802:    f0070001    ....    AND      r0,r7,#1
        0x08001806:    b118        ..      CBZ      r0,0x8001810 ; HAL_UART_IRQHandler + 136
        0x08001808:    6c20         l      LDR      r0,[r4,#0x40]
        0x0800180a:    f0400004    @...    ORR      r0,r0,#4
        0x0800180e:    6420         d      STR      r0,[r4,#0x40]
        0x08001810:    f0050008    ....    AND      r0,r5,#8
        0x08001814:    b148        H.      CBZ      r0,0x800182a ; HAL_UART_IRQHandler + 162
        0x08001816:    f0060020    .. .    AND      r0,r6,#0x20
        0x0800181a:    b910        ..      CBNZ     r0,0x8001822 ; HAL_UART_IRQHandler + 154
        0x0800181c:    f0070001    ....    AND      r0,r7,#1
        0x08001820:    b118        ..      CBZ      r0,0x800182a ; HAL_UART_IRQHandler + 162
        0x08001822:    6c20         l      LDR      r0,[r4,#0x40]
        0x08001824:    f0400008    @...    ORR      r0,r0,#8
        0x08001828:    6420         d      STR      r0,[r4,#0x40]
        0x0800182a:    6c20         l      LDR      r0,[r4,#0x40]
        0x0800182c:    b368        h.      CBZ      r0,0x800188a ; HAL_UART_IRQHandler + 258
        0x0800182e:    f0050020    .. .    AND      r0,r5,#0x20
        0x08001832:    b128        (.      CBZ      r0,0x8001840 ; HAL_UART_IRQHandler + 184
        0x08001834:    f0060020    .. .    AND      r0,r6,#0x20
        0x08001838:    b110        ..      CBZ      r0,0x8001840 ; HAL_UART_IRQHandler + 184
        0x0800183a:    4620         F      MOV      r0,r4
        0x0800183c:    f001f909    ....    BL       UART_Receive_IT ; 0x8002a52
        0x08001840:    6820         h      LDR      r0,[r4,#0]
        0x08001842:    6940        @i      LDR      r0,[r0,#0x14]
        0x08001844:    f3c01a80    ....    UBFX     r10,r0,#6,#1
        0x08001848:    6c20         l      LDR      r0,[r4,#0x40]
        0x0800184a:    f0000008    ....    AND      r0,r0,#8
        0x0800184e:    b910        ..      CBNZ     r0,0x8001856 ; HAL_UART_IRQHandler + 206
        0x08001850:    f1ba0f00    ....    CMP      r10,#0
        0x08001854:    d022        ".      BEQ      0x800189c ; HAL_UART_IRQHandler + 276
        0x08001856:    4620         F      MOV      r0,r4
        0x08001858:    f001f8d0    ....    BL       UART_EndRxTransfer ; 0x80029fc
        0x0800185c:    6820         h      LDR      r0,[r4,#0]
        0x0800185e:    6940        @i      LDR      r0,[r0,#0x14]
        0x08001860:    f0000040    ..@.    AND      r0,r0,#0x40
        0x08001864:    b1b0        ..      CBZ      r0,0x8001894 ; HAL_UART_IRQHandler + 268
        0x08001866:    6820         h      LDR      r0,[r4,#0]
        0x08001868:    6940        @i      LDR      r0,[r0,#0x14]
        0x0800186a:    f0200040     .@.    BIC      r0,r0,#0x40
        0x0800186e:    6821        !h      LDR      r1,[r4,#0]
        0x08001870:    6148        Ha      STR      r0,[r1,#0x14]
        0x08001872:    6ba0        .k      LDR      r0,[r4,#0x38]
        0x08001874:    b150        P.      CBZ      r0,0x800188c ; HAL_UART_IRQHandler + 260
        0x08001876:    4856        VH      LDR      r0,[pc,#344] ; [0x80019d0] = 0x80029e9
        0x08001878:    6ba1        .k      LDR      r1,[r4,#0x38]
        0x0800187a:    6348        Hc      STR      r0,[r1,#0x34]
        0x0800187c:    6ba0        .k      LDR      r0,[r4,#0x38]
        0x0800187e:    f7fefef3    ....    BL       HAL_DMA_Abort_IT ; 0x8000668
        0x08001882:    b110        ..      CBZ      r0,0x800188a ; HAL_UART_IRQHandler + 258
        0x08001884:    6ba0        .k      LDR      r0,[r4,#0x38]
        0x08001886:    6b41        Ak      LDR      r1,[r0,#0x34]
        0x08001888:    4788        .G      BLX      r1
        0x0800188a:    e00c        ..      B        0x80018a6 ; HAL_UART_IRQHandler + 286
        0x0800188c:    4620         F      MOV      r0,r4
        0x0800188e:    f7ffff79    ..y.    BL       HAL_UART_ErrorCallback ; 0x8001784
        0x08001892:    e008        ..      B        0x80018a6 ; HAL_UART_IRQHandler + 286
        0x08001894:    4620         F      MOV      r0,r4
        0x08001896:    f7ffff75    ..u.    BL       HAL_UART_ErrorCallback ; 0x8001784
        0x0800189a:    e004        ..      B        0x80018a6 ; HAL_UART_IRQHandler + 286
        0x0800189c:    4620         F      MOV      r0,r4
        0x0800189e:    f7ffff71    ..q.    BL       HAL_UART_ErrorCallback ; 0x8001784
        0x080018a2:    2000        .       MOVS     r0,#0
        0x080018a4:    6420         d      STR      r0,[r4,#0x40]
        0x080018a6:    e789        ..      B        0x80017bc ; HAL_UART_IRQHandler + 52
        0x080018a8:    e7ff        ..      B        0x80018aa ; HAL_UART_IRQHandler + 290
        0x080018aa:    6b20         k      LDR      r0,[r4,#0x30]
        0x080018ac:    2801        .(      CMP      r0,#1
        0x080018ae:    d178        x.      BNE      0x80019a2 ; HAL_UART_IRQHandler + 538
        0x080018b0:    f0050010    ....    AND      r0,r5,#0x10
        0x080018b4:    2800        .(      CMP      r0,#0
        0x080018b6:    d074        t.      BEQ      0x80019a2 ; HAL_UART_IRQHandler + 538
        0x080018b8:    f0060010    ....    AND      r0,r6,#0x10
        0x080018bc:    2800        .(      CMP      r0,#0
        0x080018be:    d070        p.      BEQ      0x80019a2 ; HAL_UART_IRQHandler + 538
        0x080018c0:    bf00        ..      NOP      
        0x080018c2:    2000        .       MOVS     r0,#0
        0x080018c4:    9000        ..      STR      r0,[sp,#0]
        0x080018c6:    6820         h      LDR      r0,[r4,#0]
        0x080018c8:    6800        .h      LDR      r0,[r0,#0]
        0x080018ca:    9000        ..      STR      r0,[sp,#0]
        0x080018cc:    6820         h      LDR      r0,[r4,#0]
        0x080018ce:    6840        @h      LDR      r0,[r0,#4]
        0x080018d0:    9000        ..      STR      r0,[sp,#0]
        0x080018d2:    bf00        ..      NOP      
        0x080018d4:    bf00        ..      NOP      
        0x080018d6:    6820         h      LDR      r0,[r4,#0]
        0x080018d8:    6940        @i      LDR      r0,[r0,#0x14]
        0x080018da:    f0000040    ..@.    AND      r0,r0,#0x40
        0x080018de:    b3c0        ..      CBZ      r0,0x8001952 ; HAL_UART_IRQHandler + 458
        0x080018e0:    6ba0        .k      LDR      r0,[r4,#0x38]
        0x080018e2:    6800        .h      LDR      r0,[r0,#0]
        0x080018e4:    6840        @h      LDR      r0,[r0,#4]
        0x080018e6:    fa1ff880    ....    UXTH     r8,r0
        0x080018ea:    f1b80f00    ....    CMP      r8,#0
        0x080018ee:    d02f        /.      BEQ      0x8001950 ; HAL_UART_IRQHandler + 456
        0x080018f0:    8da0        ..      LDRH     r0,[r4,#0x2c]
        0x080018f2:    4540        @E      CMP      r0,r8
        0x080018f4:    dd2c        ,.      BLE      0x8001950 ; HAL_UART_IRQHandler + 456
        0x080018f6:    f8a4802e    ....    STRH     r8,[r4,#0x2e]
        0x080018fa:    6ba0        .k      LDR      r0,[r4,#0x38]
        0x080018fc:    6980        .i      LDR      r0,[r0,#0x18]
        0x080018fe:    2820         (      CMP      r0,#0x20
        0x08001900:    d01f        ..      BEQ      0x8001942 ; HAL_UART_IRQHandler + 442
        0x08001902:    6820         h      LDR      r0,[r4,#0]
        0x08001904:    68c0        .h      LDR      r0,[r0,#0xc]
        0x08001906:    f4207080     ..p    BIC      r0,r0,#0x100
        0x0800190a:    6821        !h      LDR      r1,[r4,#0]
        0x0800190c:    60c8        .`      STR      r0,[r1,#0xc]
        0x0800190e:    6820         h      LDR      r0,[r4,#0]
        0x08001910:    6940        @i      LDR      r0,[r0,#0x14]
        0x08001912:    f0200001     ...    BIC      r0,r0,#1
        0x08001916:    6821        !h      LDR      r1,[r4,#0]
        0x08001918:    6148        Ha      STR      r0,[r1,#0x14]
        0x0800191a:    6820         h      LDR      r0,[r4,#0]
        0x0800191c:    6940        @i      LDR      r0,[r0,#0x14]
        0x0800191e:    f0200040     .@.    BIC      r0,r0,#0x40
        0x08001922:    6821        !h      LDR      r1,[r4,#0]
        0x08001924:    6148        Ha      STR      r0,[r1,#0x14]
        0x08001926:    2020                MOVS     r0,#0x20
        0x08001928:    f884003e    ..>.    STRB     r0,[r4,#0x3e]
        0x0800192c:    2000        .       MOVS     r0,#0
        0x0800192e:    6320         c      STR      r0,[r4,#0x30]
        0x08001930:    6820         h      LDR      r0,[r4,#0]
        0x08001932:    68c0        .h      LDR      r0,[r0,#0xc]
        0x08001934:    f0200010     ...    BIC      r0,r0,#0x10
        0x08001938:    6821        !h      LDR      r1,[r4,#0]
        0x0800193a:    60c8        .`      STR      r0,[r1,#0xc]
        0x0800193c:    6ba0        .k      LDR      r0,[r4,#0x38]
        0x0800193e:    f7fefe67    ..g.    BL       HAL_DMA_Abort ; 0x8000610
        0x08001942:    8da0        ..      LDRH     r0,[r4,#0x2c]
        0x08001944:    8de2        ..      LDRH     r2,[r4,#0x2e]
        0x08001946:    1a80        ..      SUBS     r0,r0,r2
        0x08001948:    b281        ..      UXTH     r1,r0
        0x0800194a:    4620         F      MOV      r0,r4
        0x0800194c:    f7ffff19    ....    BL       HAL_UARTEx_RxEventCallback ; 0x8001782
        0x08001950:    e734        4.      B        0x80017bc ; HAL_UART_IRQHandler + 52
        0x08001952:    e7ff        ..      B        0x8001954 ; HAL_UART_IRQHandler + 460
        0x08001954:    8da0        ..      LDRH     r0,[r4,#0x2c]
        0x08001956:    8de1        ..      LDRH     r1,[r4,#0x2e]
        0x08001958:    1a40        @.      SUBS     r0,r0,r1
        0x0800195a:    fa1ff880    ....    UXTH     r8,r0
        0x0800195e:    8de0        ..      LDRH     r0,[r4,#0x2e]
        0x08001960:    b1e8        ..      CBZ      r0,0x800199e ; HAL_UART_IRQHandler + 534
        0x08001962:    f1b80f00    ....    CMP      r8,#0
        0x08001966:    d01a        ..      BEQ      0x800199e ; HAL_UART_IRQHandler + 534
        0x08001968:    6820         h      LDR      r0,[r4,#0]
        0x0800196a:    68c0        .h      LDR      r0,[r0,#0xc]
        0x0800196c:    f4207090     ..p    BIC      r0,r0,#0x120
        0x08001970:    6821        !h      LDR      r1,[r4,#0]
        0x08001972:    60c8        .`      STR      r0,[r1,#0xc]
        0x08001974:    6820         h      LDR      r0,[r4,#0]
        0x08001976:    6940        @i      LDR      r0,[r0,#0x14]
        0x08001978:    f0200001     ...    BIC      r0,r0,#1
        0x0800197c:    6821        !h      LDR      r1,[r4,#0]
        0x0800197e:    6148        Ha      STR      r0,[r1,#0x14]
        0x08001980:    2020                MOVS     r0,#0x20
        0x08001982:    f884003e    ..>.    STRB     r0,[r4,#0x3e]
        0x08001986:    2000        .       MOVS     r0,#0
        0x08001988:    6320         c      STR      r0,[r4,#0x30]
        0x0800198a:    6820         h      LDR      r0,[r4,#0]
        0x0800198c:    68c0        .h      LDR      r0,[r0,#0xc]
        0x0800198e:    f0200010     ...    BIC      r0,r0,#0x10
        0x08001992:    6821        !h      LDR      r1,[r4,#0]
        0x08001994:    60c8        .`      STR      r0,[r1,#0xc]
        0x08001996:    4641        AF      MOV      r1,r8
        0x08001998:    4620         F      MOV      r0,r4
        0x0800199a:    f7fffef2    ....    BL       HAL_UARTEx_RxEventCallback ; 0x8001782
        0x0800199e:    e70d        ..      B        0x80017bc ; HAL_UART_IRQHandler + 52
        0x080019a0:    e7ff        ..      B        0x80019a2 ; HAL_UART_IRQHandler + 538
        0x080019a2:    f0050080    ....    AND      r0,r5,#0x80
        0x080019a6:    b130        0.      CBZ      r0,0x80019b6 ; HAL_UART_IRQHandler + 558
        0x080019a8:    f0060080    ....    AND      r0,r6,#0x80
        0x080019ac:    b118        ..      CBZ      r0,0x80019b6 ; HAL_UART_IRQHandler + 558
        0x080019ae:    4620         F      MOV      r0,r4
        0x080019b0:    f001f940    ..@.    BL       UART_Transmit_IT ; 0x8002c34
        0x080019b4:    e702        ..      B        0x80017bc ; HAL_UART_IRQHandler + 52
        0x080019b6:    f0050040    ..@.    AND      r0,r5,#0x40
        0x080019ba:    b130        0.      CBZ      r0,0x80019ca ; HAL_UART_IRQHandler + 578
        0x080019bc:    f0060040    ..@.    AND      r0,r6,#0x40
        0x080019c0:    b118        ..      CBZ      r0,0x80019ca ; HAL_UART_IRQHandler + 578
        0x080019c2:    4620         F      MOV      r0,r4
        0x080019c4:    f001f835    ..5.    BL       UART_EndTransmit_IT ; 0x8002a32
        0x080019c8:    e6f8        ..      B        0x80017bc ; HAL_UART_IRQHandler + 52
        0x080019ca:    bf00        ..      NOP      
        0x080019cc:    e6f6        ..      B        0x80017bc ; HAL_UART_IRQHandler + 52
    $d
        0x080019ce:    0000        ..      DCW    0
        0x080019d0:    080029e9    .)..    DCD    134228457
    $t
    i.HAL_UART_Init
    HAL_UART_Init
        0x080019d4:    b510        ..      PUSH     {r4,lr}
        0x080019d6:    4604        .F      MOV      r4,r0
        0x080019d8:    b90c        ..      CBNZ     r4,0x80019de ; HAL_UART_Init + 10
        0x080019da:    2001        .       MOVS     r0,#1
        0x080019dc:    bd10        ..      POP      {r4,pc}
        0x080019de:    69a0        .i      LDR      r0,[r4,#0x18]
        0x080019e0:    b100        ..      CBZ      r0,0x80019e4 ; HAL_UART_Init + 16
        0x080019e2:    e000        ..      B        0x80019e6 ; HAL_UART_Init + 18
        0x080019e4:    bf00        ..      NOP      
        0x080019e6:    f894003d    ..=.    LDRB     r0,[r4,#0x3d]
        0x080019ea:    b928        (.      CBNZ     r0,0x80019f8 ; HAL_UART_Init + 36
        0x080019ec:    2000        .       MOVS     r0,#0
        0x080019ee:    f884003c    ..<.    STRB     r0,[r4,#0x3c]
        0x080019f2:    4620         F      MOV      r0,r4
        0x080019f4:    f000f828    ..(.    BL       HAL_UART_MspInit ; 0x8001a48
        0x080019f8:    2024        $       MOVS     r0,#0x24
        0x080019fa:    f884003d    ..=.    STRB     r0,[r4,#0x3d]
        0x080019fe:    6820         h      LDR      r0,[r4,#0]
        0x08001a00:    68c0        .h      LDR      r0,[r0,#0xc]
        0x08001a02:    f4205000     ..P    BIC      r0,r0,#0x2000
        0x08001a06:    6821        !h      LDR      r1,[r4,#0]
        0x08001a08:    60c8        .`      STR      r0,[r1,#0xc]
        0x08001a0a:    4620         F      MOV      r0,r4
        0x08001a0c:    f001f894    ....    BL       UART_SetConfig ; 0x8002b38
        0x08001a10:    6820         h      LDR      r0,[r4,#0]
        0x08001a12:    6900        .i      LDR      r0,[r0,#0x10]
        0x08001a14:    f4204090     ..@    BIC      r0,r0,#0x4800
        0x08001a18:    6821        !h      LDR      r1,[r4,#0]
        0x08001a1a:    6108        .a      STR      r0,[r1,#0x10]
        0x08001a1c:    6820         h      LDR      r0,[r4,#0]
        0x08001a1e:    6940        @i      LDR      r0,[r0,#0x14]
        0x08001a20:    f020002a     .*.    BIC      r0,r0,#0x2a
        0x08001a24:    6821        !h      LDR      r1,[r4,#0]
        0x08001a26:    6148        Ha      STR      r0,[r1,#0x14]
        0x08001a28:    6820         h      LDR      r0,[r4,#0]
        0x08001a2a:    68c0        .h      LDR      r0,[r0,#0xc]
        0x08001a2c:    f4405000    @..P    ORR      r0,r0,#0x2000
        0x08001a30:    6821        !h      LDR      r1,[r4,#0]
        0x08001a32:    60c8        .`      STR      r0,[r1,#0xc]
        0x08001a34:    2000        .       MOVS     r0,#0
        0x08001a36:    6420         d      STR      r0,[r4,#0x40]
        0x08001a38:    2020                MOVS     r0,#0x20
        0x08001a3a:    f884003d    ..=.    STRB     r0,[r4,#0x3d]
        0x08001a3e:    f884003e    ..>.    STRB     r0,[r4,#0x3e]
        0x08001a42:    2000        .       MOVS     r0,#0
        0x08001a44:    e7ca        ..      B        0x80019dc ; HAL_UART_Init + 8
        0x08001a46:    0000        ..      MOVS     r0,r0
    i.HAL_UART_MspInit
    HAL_UART_MspInit
        0x08001a48:    b510        ..      PUSH     {r4,lr}
        0x08001a4a:    b086        ..      SUB      sp,sp,#0x18
        0x08001a4c:    4604        .F      MOV      r4,r0
        0x08001a4e:    2000        .       MOVS     r0,#0
        0x08001a50:    9002        ..      STR      r0,[sp,#8]
        0x08001a52:    9003        ..      STR      r0,[sp,#0xc]
        0x08001a54:    9004        ..      STR      r0,[sp,#0x10]
        0x08001a56:    9005        ..      STR      r0,[sp,#0x14]
        0x08001a58:    493e        >I      LDR      r1,[pc,#248] ; [0x8001b54] = 0x40013800
        0x08001a5a:    6820         h      LDR      r0,[r4,#0]
        0x08001a5c:    4288        .B      CMP      r0,r1
        0x08001a5e:    d130        0.      BNE      0x8001ac2 ; HAL_UART_MspInit + 122
        0x08001a60:    bf00        ..      NOP      
        0x08001a62:    483d        =H      LDR      r0,[pc,#244] ; [0x8001b58] = 0x40021000
        0x08001a64:    6980        .i      LDR      r0,[r0,#0x18]
        0x08001a66:    f4404080    @..@    ORR      r0,r0,#0x4000
        0x08001a6a:    493b        ;I      LDR      r1,[pc,#236] ; [0x8001b58] = 0x40021000
        0x08001a6c:    6188        .a      STR      r0,[r1,#0x18]
        0x08001a6e:    4608        .F      MOV      r0,r1
        0x08001a70:    6980        .i      LDR      r0,[r0,#0x18]
        0x08001a72:    f4004080    ...@    AND      r0,r0,#0x4000
        0x08001a76:    9001        ..      STR      r0,[sp,#4]
        0x08001a78:    bf00        ..      NOP      
        0x08001a7a:    bf00        ..      NOP      
        0x08001a7c:    bf00        ..      NOP      
        0x08001a7e:    4608        .F      MOV      r0,r1
        0x08001a80:    6980        .i      LDR      r0,[r0,#0x18]
        0x08001a82:    f0400004    @...    ORR      r0,r0,#4
        0x08001a86:    6188        .a      STR      r0,[r1,#0x18]
        0x08001a88:    4608        .F      MOV      r0,r1
        0x08001a8a:    6980        .i      LDR      r0,[r0,#0x18]
        0x08001a8c:    f0000004    ....    AND      r0,r0,#4
        0x08001a90:    9001        ..      STR      r0,[sp,#4]
        0x08001a92:    bf00        ..      NOP      
        0x08001a94:    bf00        ..      NOP      
        0x08001a96:    1548        H.      ASRS     r0,r1,#21
        0x08001a98:    9002        ..      STR      r0,[sp,#8]
        0x08001a9a:    2002        .       MOVS     r0,#2
        0x08001a9c:    9003        ..      STR      r0,[sp,#0xc]
        0x08001a9e:    2003        .       MOVS     r0,#3
        0x08001aa0:    9005        ..      STR      r0,[sp,#0x14]
        0x08001aa2:    a902        ..      ADD      r1,sp,#8
        0x08001aa4:    482d        -H      LDR      r0,[pc,#180] ; [0x8001b5c] = 0x40010800
        0x08001aa6:    f7fefedf    ....    BL       HAL_GPIO_Init ; 0x8000868
        0x08001aaa:    f44f6080    O..`    MOV      r0,#0x400
        0x08001aae:    9002        ..      STR      r0,[sp,#8]
        0x08001ab0:    2000        .       MOVS     r0,#0
        0x08001ab2:    9003        ..      STR      r0,[sp,#0xc]
        0x08001ab4:    2001        .       MOVS     r0,#1
        0x08001ab6:    9004        ..      STR      r0,[sp,#0x10]
        0x08001ab8:    a902        ..      ADD      r1,sp,#8
        0x08001aba:    4828        (H      LDR      r0,[pc,#160] ; [0x8001b5c] = 0x40010800
        0x08001abc:    f7fefed4    ....    BL       HAL_GPIO_Init ; 0x8000868
        0x08001ac0:    e045        E.      B        0x8001b4e ; HAL_UART_MspInit + 262
        0x08001ac2:    4927        'I      LDR      r1,[pc,#156] ; [0x8001b60] = 0x40004800
        0x08001ac4:    6820         h      LDR      r0,[r4,#0]
        0x08001ac6:    4288        .B      CMP      r0,r1
        0x08001ac8:    d141        A.      BNE      0x8001b4e ; HAL_UART_MspInit + 262
        0x08001aca:    bf00        ..      NOP      
        0x08001acc:    4822        "H      LDR      r0,[pc,#136] ; [0x8001b58] = 0x40021000
        0x08001ace:    69c0        .i      LDR      r0,[r0,#0x1c]
        0x08001ad0:    f4402080    @..     ORR      r0,r0,#0x40000
        0x08001ad4:    4920         I      LDR      r1,[pc,#128] ; [0x8001b58] = 0x40021000
        0x08001ad6:    61c8        .a      STR      r0,[r1,#0x1c]
        0x08001ad8:    4608        .F      MOV      r0,r1
        0x08001ada:    69c0        .i      LDR      r0,[r0,#0x1c]
        0x08001adc:    f4002080    ...     AND      r0,r0,#0x40000
        0x08001ae0:    9001        ..      STR      r0,[sp,#4]
        0x08001ae2:    bf00        ..      NOP      
        0x08001ae4:    bf00        ..      NOP      
        0x08001ae6:    bf00        ..      NOP      
        0x08001ae8:    4608        .F      MOV      r0,r1
        0x08001aea:    6980        .i      LDR      r0,[r0,#0x18]
        0x08001aec:    f0400020    @. .    ORR      r0,r0,#0x20
        0x08001af0:    6188        .a      STR      r0,[r1,#0x18]
        0x08001af2:    4608        .F      MOV      r0,r1
        0x08001af4:    6980        .i      LDR      r0,[r0,#0x18]
        0x08001af6:    f0000020    .. .    AND      r0,r0,#0x20
        0x08001afa:    9001        ..      STR      r0,[sp,#4]
        0x08001afc:    bf00        ..      NOP      
        0x08001afe:    bf00        ..      NOP      
        0x08001b00:    1588        ..      ASRS     r0,r1,#22
        0x08001b02:    9002        ..      STR      r0,[sp,#8]
        0x08001b04:    2002        .       MOVS     r0,#2
        0x08001b06:    9003        ..      STR      r0,[sp,#0xc]
        0x08001b08:    2003        .       MOVS     r0,#3
        0x08001b0a:    9005        ..      STR      r0,[sp,#0x14]
        0x08001b0c:    a902        ..      ADD      r1,sp,#8
        0x08001b0e:    4815        .H      LDR      r0,[pc,#84] ; [0x8001b64] = 0x40011400
        0x08001b10:    f7fefeaa    ....    BL       HAL_GPIO_Init ; 0x8000868
        0x08001b14:    f44f7000    O..p    MOV      r0,#0x200
        0x08001b18:    9002        ..      STR      r0,[sp,#8]
        0x08001b1a:    2000        .       MOVS     r0,#0
        0x08001b1c:    9003        ..      STR      r0,[sp,#0xc]
        0x08001b1e:    9004        ..      STR      r0,[sp,#0x10]
        0x08001b20:    a902        ..      ADD      r1,sp,#8
        0x08001b22:    4810        .H      LDR      r0,[pc,#64] ; [0x8001b64] = 0x40011400
        0x08001b24:    f7fefea0    ....    BL       HAL_GPIO_Init ; 0x8000868
        0x08001b28:    bf00        ..      NOP      
        0x08001b2a:    490f        .I      LDR      r1,[pc,#60] ; [0x8001b68] = 0x40010000
        0x08001b2c:    6848        Hh      LDR      r0,[r1,#4]
        0x08001b2e:    f0200030     .0.    BIC      r0,r0,#0x30
        0x08001b32:    f04060e0    @..`    ORR      r0,r0,#0x7000000
        0x08001b36:    f0400030    @.0.    ORR      r0,r0,#0x30
        0x08001b3a:    6048        H`      STR      r0,[r1,#4]
        0x08001b3c:    bf00        ..      NOP      
        0x08001b3e:    2200        ."      MOVS     r2,#0
        0x08001b40:    2105        .!      MOVS     r1,#5
        0x08001b42:    2027        '       MOVS     r0,#0x27
        0x08001b44:    f7fff8e8    ....    BL       HAL_NVIC_SetPriority ; 0x8000d18
        0x08001b48:    2027        '       MOVS     r0,#0x27
        0x08001b4a:    f7fff8d5    ....    BL       HAL_NVIC_EnableIRQ ; 0x8000cf8
        0x08001b4e:    b006        ..      ADD      sp,sp,#0x18
        0x08001b50:    bd10        ..      POP      {r4,pc}
    $d
        0x08001b52:    0000        ..      DCW    0
        0x08001b54:    40013800    .8.@    DCD    1073821696
        0x08001b58:    40021000    ...@    DCD    1073876992
        0x08001b5c:    40010800    ...@    DCD    1073809408
        0x08001b60:    40004800    .H.@    DCD    1073760256
        0x08001b64:    40011400    ...@    DCD    1073812480
        0x08001b68:    40010000    ...@    DCD    1073807360
    $t
    i.HAL_UART_RxCpltCallback
    HAL_UART_RxCpltCallback
        0x08001b6c:    4a03        .J      LDR      r2,[pc,#12] ; [0x8001b7c] = 0x40013800
        0x08001b6e:    6801        .h      LDR      r1,[r0,#0]
        0x08001b70:    4291        .B      CMP      r1,r2
        0x08001b72:    d102        ..      BNE      0x8001b7a ; HAL_UART_RxCpltCallback + 14
        0x08001b74:    2101        .!      MOVS     r1,#1
        0x08001b76:    4a02        .J      LDR      r2,[pc,#8] ; [0x8001b80] = 0x20000015
        0x08001b78:    7011        .p      STRB     r1,[r2,#0]
        0x08001b7a:    4770        pG      BX       lr
    $d
        0x08001b7c:    40013800    .8.@    DCD    1073821696
        0x08001b80:    20000015    ...     DCD    536870933
    $t
    i.HAL_UART_Transmit_IT
    HAL_UART_Transmit_IT
        0x08001b84:    b510        ..      PUSH     {r4,lr}
        0x08001b86:    4603        .F      MOV      r3,r0
        0x08001b88:    f893003d    ..=.    LDRB     r0,[r3,#0x3d]
        0x08001b8c:    2820         (      CMP      r0,#0x20
        0x08001b8e:    d123        #.      BNE      0x8001bd8 ; HAL_UART_Transmit_IT + 84
        0x08001b90:    b101        ..      CBZ      r1,0x8001b94 ; HAL_UART_Transmit_IT + 16
        0x08001b92:    b90a        ..      CBNZ     r2,0x8001b98 ; HAL_UART_Transmit_IT + 20
        0x08001b94:    2001        .       MOVS     r0,#1
        0x08001b96:    bd10        ..      POP      {r4,pc}
        0x08001b98:    bf00        ..      NOP      
        0x08001b9a:    f893003c    ..<.    LDRB     r0,[r3,#0x3c]
        0x08001b9e:    2801        .(      CMP      r0,#1
        0x08001ba0:    d101        ..      BNE      0x8001ba6 ; HAL_UART_Transmit_IT + 34
        0x08001ba2:    2002        .       MOVS     r0,#2
        0x08001ba4:    e7f7        ..      B        0x8001b96 ; HAL_UART_Transmit_IT + 18
        0x08001ba6:    2001        .       MOVS     r0,#1
        0x08001ba8:    f883003c    ..<.    STRB     r0,[r3,#0x3c]
        0x08001bac:    bf00        ..      NOP      
        0x08001bae:    6219        .b      STR      r1,[r3,#0x20]
        0x08001bb0:    849a        ..      STRH     r2,[r3,#0x24]
        0x08001bb2:    84da        ..      STRH     r2,[r3,#0x26]
        0x08001bb4:    2000        .       MOVS     r0,#0
        0x08001bb6:    6418        .d      STR      r0,[r3,#0x40]
        0x08001bb8:    2021        !       MOVS     r0,#0x21
        0x08001bba:    f883003d    ..=.    STRB     r0,[r3,#0x3d]
        0x08001bbe:    bf00        ..      NOP      
        0x08001bc0:    2000        .       MOVS     r0,#0
        0x08001bc2:    f883003c    ..<.    STRB     r0,[r3,#0x3c]
        0x08001bc6:    bf00        ..      NOP      
        0x08001bc8:    6818        .h      LDR      r0,[r3,#0]
        0x08001bca:    68c0        .h      LDR      r0,[r0,#0xc]
        0x08001bcc:    f0400080    @...    ORR      r0,r0,#0x80
        0x08001bd0:    681c        .h      LDR      r4,[r3,#0]
        0x08001bd2:    60e0        .`      STR      r0,[r4,#0xc]
        0x08001bd4:    2000        .       MOVS     r0,#0
        0x08001bd6:    e7de        ..      B        0x8001b96 ; HAL_UART_Transmit_IT + 18
        0x08001bd8:    2002        .       MOVS     r0,#2
        0x08001bda:    e7dc        ..      B        0x8001b96 ; HAL_UART_Transmit_IT + 18
    i.HAL_UART_TxCpltCallback
    HAL_UART_TxCpltCallback
        0x08001bdc:    4a03        .J      LDR      r2,[pc,#12] ; [0x8001bec] = 0x40013800
        0x08001bde:    6801        .h      LDR      r1,[r0,#0]
        0x08001be0:    4291        .B      CMP      r1,r2
        0x08001be2:    d102        ..      BNE      0x8001bea ; HAL_UART_TxCpltCallback + 14
        0x08001be4:    2101        .!      MOVS     r1,#1
        0x08001be6:    4a02        .J      LDR      r2,[pc,#8] ; [0x8001bf0] = 0x20000014
        0x08001be8:    7011        .p      STRB     r1,[r2,#0]
        0x08001bea:    4770        pG      BX       lr
    $d
        0x08001bec:    40013800    .8.@    DCD    1073821696
        0x08001bf0:    20000014    ...     DCD    536870932
    $t
    i.HardFault_Handler
    HardFault_Handler
        0x08001bf4:    bf00        ..      NOP      
        0x08001bf6:    e7fe        ..      B        0x8001bf6 ; HardFault_Handler + 2
    i.KEY_GPIO_ReInit
    KEY_GPIO_ReInit
        0x08001bf8:    b500        ..      PUSH     {lr}
        0x08001bfa:    b085        ..      SUB      sp,sp,#0x14
        0x08001bfc:    2000        .       MOVS     r0,#0
        0x08001bfe:    9001        ..      STR      r0,[sp,#4]
        0x08001c00:    9002        ..      STR      r0,[sp,#8]
        0x08001c02:    9003        ..      STR      r0,[sp,#0xc]
        0x08001c04:    9004        ..      STR      r0,[sp,#0x10]
        0x08001c06:    bf00        ..      NOP      
        0x08001c08:    481a        .H      LDR      r0,[pc,#104] ; [0x8001c74] = 0x40021000
        0x08001c0a:    6980        .i      LDR      r0,[r0,#0x18]
        0x08001c0c:    f0400040    @.@.    ORR      r0,r0,#0x40
        0x08001c10:    4918        .I      LDR      r1,[pc,#96] ; [0x8001c74] = 0x40021000
        0x08001c12:    6188        .a      STR      r0,[r1,#0x18]
        0x08001c14:    4608        .F      MOV      r0,r1
        0x08001c16:    6980        .i      LDR      r0,[r0,#0x18]
        0x08001c18:    f0000040    ..@.    AND      r0,r0,#0x40
        0x08001c1c:    9000        ..      STR      r0,[sp,#0]
        0x08001c1e:    bf00        ..      NOP      
        0x08001c20:    bf00        ..      NOP      
        0x08001c22:    bf00        ..      NOP      
        0x08001c24:    4608        .F      MOV      r0,r1
        0x08001c26:    6980        .i      LDR      r0,[r0,#0x18]
        0x08001c28:    f0400040    @.@.    ORR      r0,r0,#0x40
        0x08001c2c:    6188        .a      STR      r0,[r1,#0x18]
        0x08001c2e:    4608        .F      MOV      r0,r1
        0x08001c30:    6980        .i      LDR      r0,[r0,#0x18]
        0x08001c32:    f0000040    ..@.    AND      r0,r0,#0x40
        0x08001c36:    9000        ..      STR      r0,[sp,#0]
        0x08001c38:    bf00        ..      NOP      
        0x08001c3a:    bf00        ..      NOP      
        0x08001c3c:    480e        .H      LDR      r0,[pc,#56] ; [0x8001c78] = 0x10310000
        0x08001c3e:    9002        ..      STR      r0,[sp,#8]
        0x08001c40:    2001        .       MOVS     r0,#1
        0x08001c42:    9003        ..      STR      r0,[sp,#0xc]
        0x08001c44:    0380        ..      LSLS     r0,r0,#14
        0x08001c46:    9001        ..      STR      r0,[sp,#4]
        0x08001c48:    a901        ..      ADD      r1,sp,#4
        0x08001c4a:    480c        .H      LDR      r0,[pc,#48] ; [0x8001c7c] = 0x40011800
        0x08001c4c:    f7fefe0c    ....    BL       HAL_GPIO_Init ; 0x8000868
        0x08001c50:    f44f4000    O..@    MOV      r0,#0x8000
        0x08001c54:    9001        ..      STR      r0,[sp,#4]
        0x08001c56:    a901        ..      ADD      r1,sp,#4
        0x08001c58:    4808        .H      LDR      r0,[pc,#32] ; [0x8001c7c] = 0x40011800
        0x08001c5a:    f7fefe05    ....    BL       HAL_GPIO_Init ; 0x8000868
        0x08001c5e:    2202        ."      MOVS     r2,#2
        0x08001c60:    2100        .!      MOVS     r1,#0
        0x08001c62:    2028        (       MOVS     r0,#0x28
        0x08001c64:    f7fff858    ..X.    BL       HAL_NVIC_SetPriority ; 0x8000d18
        0x08001c68:    2028        (       MOVS     r0,#0x28
        0x08001c6a:    f7fff845    ..E.    BL       HAL_NVIC_EnableIRQ ; 0x8000cf8
        0x08001c6e:    b005        ..      ADD      sp,sp,#0x14
        0x08001c70:    bd00        ..      POP      {pc}
    $d
        0x08001c72:    0000        ..      DCW    0
        0x08001c74:    40021000    ...@    DCD    1073876992
        0x08001c78:    10310000    ..1.    DCD    271646720
        0x08001c7c:    40011800    ...@    DCD    1073813504
    $t
    i.MQTTDeserialize_ack
    MQTTDeserialize_ack
        0x08001c80:    e92d4ffe    -..O    PUSH     {r1-r11,lr}
        0x08001c84:    4604        .F      MOV      r4,r0
        0x08001c86:    460d        .F      MOV      r5,r1
        0x08001c88:    4616        .F      MOV      r6,r2
        0x08001c8a:    461f        .F      MOV      r7,r3
        0x08001c8c:    f8dda030    ..0.    LDR      r10,[sp,#0x30]
        0x08001c90:    2000        .       MOVS     r0,#0
        0x08001c92:    9002        ..      STR      r0,[sp,#8]
        0x08001c94:    9701        ..      STR      r7,[sp,#4]
        0x08001c96:    4680        .F      MOV      r8,r0
        0x08001c98:    4681        .F      MOV      r9,r0
        0x08001c9a:    a801        ..      ADD      r0,sp,#4
        0x08001c9c:    f004fbf0    ....    BL       readChar ; 0x8006480
        0x08001ca0:    f88d0008    ....    STRB     r0,[sp,#8]
        0x08001ca4:    9802        ..      LDR      r0,[sp,#8]
        0x08001ca6:    f3c000c0    ....    UBFX     r0,r0,#3,#1
        0x08001caa:    7028        (p      STRB     r0,[r5,#0]
        0x08001cac:    9802        ..      LDR      r0,[sp,#8]
        0x08001cae:    f3c01003    ....    UBFX     r0,r0,#4,#4
        0x08001cb2:    7020         p      STRB     r0,[r4,#0]
        0x08001cb4:    4669        iF      MOV      r1,sp
        0x08001cb6:    9801        ..      LDR      r0,[sp,#4]
        0x08001cb8:    f000f934    ..4.    BL       MQTTPacket_decodeBuf ; 0x8001f24
        0x08001cbc:    4681        .F      MOV      r9,r0
        0x08001cbe:    9901        ..      LDR      r1,[sp,#4]
        0x08001cc0:    4408        .D      ADD      r0,r0,r1
        0x08001cc2:    9001        ..      STR      r0,[sp,#4]
        0x08001cc4:    e9dd1000    ....    LDRD     r1,r0,[sp,#0]
        0x08001cc8:    eb000801    ....    ADD      r8,r0,r1
        0x08001ccc:    9801        ..      LDR      r0,[sp,#4]
        0x08001cce:    eba80000    ....    SUB      r0,r8,r0
        0x08001cd2:    2802        .(      CMP      r0,#2
        0x08001cd4:    da00        ..      BGE      0x8001cd8 ; MQTTDeserialize_ack + 88
        0x08001cd6:    e006        ..      B        0x8001ce6 ; MQTTDeserialize_ack + 102
        0x08001cd8:    a801        ..      ADD      r0,sp,#4
        0x08001cda:    f004fbd8    ....    BL       readInt ; 0x800648e
        0x08001cde:    8030        0.      STRH     r0,[r6,#0]
        0x08001ce0:    f04f0901    O...    MOV      r9,#1
        0x08001ce4:    bf00        ..      NOP      
        0x08001ce6:    4648        HF      MOV      r0,r9
        0x08001ce8:    e8bd8ffe    ....    POP      {r1-r11,pc}
    i.MQTTDeserialize_connack
    MQTTDeserialize_connack
        0x08001cec:    e92d47ff    -..G    PUSH     {r0-r10,lr}
        0x08001cf0:    4604        .F      MOV      r4,r0
        0x08001cf2:    460d        .F      MOV      r5,r1
        0x08001cf4:    4616        .F      MOV      r6,r2
        0x08001cf6:    4699        .F      MOV      r9,r3
        0x08001cf8:    2000        .       MOVS     r0,#0
        0x08001cfa:    9003        ..      STR      r0,[sp,#0xc]
        0x08001cfc:    9602        ..      STR      r6,[sp,#8]
        0x08001cfe:    2700        .'      MOVS     r7,#0
        0x08001d00:    4680        .F      MOV      r8,r0
        0x08001d02:    9000        ..      STR      r0,[sp,#0]
        0x08001d04:    a802        ..      ADD      r0,sp,#8
        0x08001d06:    f004fbbb    ....    BL       readChar ; 0x8006480
        0x08001d0a:    f88d000c    ....    STRB     r0,[sp,#0xc]
        0x08001d0e:    9803        ..      LDR      r0,[sp,#0xc]
        0x08001d10:    f3c01003    ....    UBFX     r0,r0,#4,#4
        0x08001d14:    2802        .(      CMP      r0,#2
        0x08001d16:    d000        ..      BEQ      0x8001d1a ; MQTTDeserialize_connack + 46
        0x08001d18:    e01f        ..      B        0x8001d5a ; MQTTDeserialize_connack + 110
        0x08001d1a:    a901        ..      ADD      r1,sp,#4
        0x08001d1c:    9802        ..      LDR      r0,[sp,#8]
        0x08001d1e:    f000f901    ....    BL       MQTTPacket_decodeBuf ; 0x8001f24
        0x08001d22:    4680        .F      MOV      r8,r0
        0x08001d24:    9902        ..      LDR      r1,[sp,#8]
        0x08001d26:    4408        .D      ADD      r0,r0,r1
        0x08001d28:    9002        ..      STR      r0,[sp,#8]
        0x08001d2a:    e9dd1001    ....    LDRD     r1,r0,[sp,#4]
        0x08001d2e:    1847        G.      ADDS     r7,r0,r1
        0x08001d30:    9802        ..      LDR      r0,[sp,#8]
        0x08001d32:    1a38        8.      SUBS     r0,r7,r0
        0x08001d34:    2802        .(      CMP      r0,#2
        0x08001d36:    da00        ..      BGE      0x8001d3a ; MQTTDeserialize_connack + 78
        0x08001d38:    e00f        ..      B        0x8001d5a ; MQTTDeserialize_connack + 110
        0x08001d3a:    a802        ..      ADD      r0,sp,#8
        0x08001d3c:    f004fba0    ....    BL       readChar ; 0x8006480
        0x08001d40:    f88d0000    ....    STRB     r0,[sp,#0]
        0x08001d44:    9800        ..      LDR      r0,[sp,#0]
        0x08001d46:    f0000001    ....    AND      r0,r0,#1
        0x08001d4a:    7020         p      STRB     r0,[r4,#0]
        0x08001d4c:    a802        ..      ADD      r0,sp,#8
        0x08001d4e:    f004fb97    ....    BL       readChar ; 0x8006480
        0x08001d52:    7028        (p      STRB     r0,[r5,#0]
        0x08001d54:    f04f0801    O...    MOV      r8,#1
        0x08001d58:    bf00        ..      NOP      
        0x08001d5a:    4640        @F      MOV      r0,r8
        0x08001d5c:    b004        ..      ADD      sp,sp,#0x10
        0x08001d5e:    e8bd87f0    ....    POP      {r4-r10,pc}
    i.MQTTDeserialize_publish
    MQTTDeserialize_publish
        0x08001d62:    e92d5fff    -.._    PUSH     {r0-r12,lr}
        0x08001d66:    4606        .F      MOV      r6,r0
        0x08001d68:    460c        .F      MOV      r4,r1
        0x08001d6a:    4617        .F      MOV      r7,r2
        0x08001d6c:    4698        .F      MOV      r8,r3
        0x08001d6e:    e9ddab0f    ....    LDRD     r10,r11,[sp,#0x3c]
        0x08001d72:    f8dd9038    ..8.    LDR      r9,[sp,#0x38]
        0x08001d76:    2000        .       MOVS     r0,#0
        0x08001d78:    9003        ..      STR      r0,[sp,#0xc]
        0x08001d7a:    9811        ..      LDR      r0,[sp,#0x44]
        0x08001d7c:    9002        ..      STR      r0,[sp,#8]
        0x08001d7e:    2500        .%      MOVS     r5,#0
        0x08001d80:    2000        .       MOVS     r0,#0
        0x08001d82:    9001        ..      STR      r0,[sp,#4]
        0x08001d84:    9000        ..      STR      r0,[sp,#0]
        0x08001d86:    a802        ..      ADD      r0,sp,#8
        0x08001d88:    f004fb7a    ..z.    BL       readChar ; 0x8006480
        0x08001d8c:    f88d000c    ....    STRB     r0,[sp,#0xc]
        0x08001d90:    9803        ..      LDR      r0,[sp,#0xc]
        0x08001d92:    f3c01003    ....    UBFX     r0,r0,#4,#4
        0x08001d96:    2803        .(      CMP      r0,#3
        0x08001d98:    d000        ..      BEQ      0x8001d9c ; MQTTDeserialize_publish + 58
        0x08001d9a:    e032        2.      B        0x8001e02 ; MQTTDeserialize_publish + 160
        0x08001d9c:    9803        ..      LDR      r0,[sp,#0xc]
        0x08001d9e:    f3c000c0    ....    UBFX     r0,r0,#3,#1
        0x08001da2:    7030        0p      STRB     r0,[r6,#0]
        0x08001da4:    9803        ..      LDR      r0,[sp,#0xc]
        0x08001da6:    f3c00041    ..A.    UBFX     r0,r0,#1,#2
        0x08001daa:    6020         `      STR      r0,[r4,#0]
        0x08001dac:    9803        ..      LDR      r0,[sp,#0xc]
        0x08001dae:    f0000001    ....    AND      r0,r0,#1
        0x08001db2:    7038        8p      STRB     r0,[r7,#0]
        0x08001db4:    4669        iF      MOV      r1,sp
        0x08001db6:    9802        ..      LDR      r0,[sp,#8]
        0x08001db8:    f000f8b4    ....    BL       MQTTPacket_decodeBuf ; 0x8001f24
        0x08001dbc:    9001        ..      STR      r0,[sp,#4]
        0x08001dbe:    9902        ..      LDR      r1,[sp,#8]
        0x08001dc0:    4408        .D      ADD      r0,r0,r1
        0x08001dc2:    9002        ..      STR      r0,[sp,#8]
        0x08001dc4:    9900        ..      LDR      r1,[sp,#0]
        0x08001dc6:    9802        ..      LDR      r0,[sp,#8]
        0x08001dc8:    1845        E.      ADDS     r5,r0,r1
        0x08001dca:    462a        *F      MOV      r2,r5
        0x08001dcc:    a902        ..      ADD      r1,sp,#8
        0x08001dce:    4648        HF      MOV      r0,r9
        0x08001dd0:    f004fb6a    ..j.    BL       readMQTTLenString ; 0x80064a8
        0x08001dd4:    b110        ..      CBZ      r0,0x8001ddc ; MQTTDeserialize_publish + 122
        0x08001dd6:    9802        ..      LDR      r0,[sp,#8]
        0x08001dd8:    1a28        (.      SUBS     r0,r5,r0
        0x08001dda:    d500        ..      BPL      0x8001dde ; MQTTDeserialize_publish + 124
        0x08001ddc:    e011        ..      B        0x8001e02 ; MQTTDeserialize_publish + 160
        0x08001dde:    6820         h      LDR      r0,[r4,#0]
        0x08001de0:    2800        .(      CMP      r0,#0
        0x08001de2:    dd04        ..      BLE      0x8001dee ; MQTTDeserialize_publish + 140
        0x08001de4:    a802        ..      ADD      r0,sp,#8
        0x08001de6:    f004fb52    ..R.    BL       readInt ; 0x800648e
        0x08001dea:    f8a80000    ....    STRH     r0,[r8,#0]
        0x08001dee:    9802        ..      LDR      r0,[sp,#8]
        0x08001df0:    1a28        (.      SUBS     r0,r5,r0
        0x08001df2:    f8cb0000    ....    STR      r0,[r11,#0]
        0x08001df6:    9802        ..      LDR      r0,[sp,#8]
        0x08001df8:    f8ca0000    ....    STR      r0,[r10,#0]
        0x08001dfc:    2001        .       MOVS     r0,#1
        0x08001dfe:    9001        ..      STR      r0,[sp,#4]
        0x08001e00:    bf00        ..      NOP      
        0x08001e02:    9801        ..      LDR      r0,[sp,#4]
        0x08001e04:    b004        ..      ADD      sp,sp,#0x10
        0x08001e06:    e8bd9ff0    ....    POP      {r4-r12,pc}
    i.MQTTDeserialize_suback
    MQTTDeserialize_suback
        0x08001e0a:    e92d4ffe    -..O    PUSH     {r1-r11,lr}
        0x08001e0e:    4605        .F      MOV      r5,r0
        0x08001e10:    460e        .F      MOV      r6,r1
        0x08001e12:    4614        .F      MOV      r4,r2
        0x08001e14:    461f        .F      MOV      r7,r3
        0x08001e16:    e9dd9b0c    ....    LDRD     r9,r11,[sp,#0x30]
        0x08001e1a:    2000        .       MOVS     r0,#0
        0x08001e1c:    9002        ..      STR      r0,[sp,#8]
        0x08001e1e:    f8cd9004    ....    STR      r9,[sp,#4]
        0x08001e22:    4680        .F      MOV      r8,r0
        0x08001e24:    4682        .F      MOV      r10,r0
        0x08001e26:    a801        ..      ADD      r0,sp,#4
        0x08001e28:    f004fb2a    ..*.    BL       readChar ; 0x8006480
        0x08001e2c:    f88d0008    ....    STRB     r0,[sp,#8]
        0x08001e30:    9802        ..      LDR      r0,[sp,#8]
        0x08001e32:    f3c01003    ....    UBFX     r0,r0,#4,#4
        0x08001e36:    2809        .(      CMP      r0,#9
        0x08001e38:    d000        ..      BEQ      0x8001e3c ; MQTTDeserialize_suback + 50
        0x08001e3a:    e02c        ,.      B        0x8001e96 ; MQTTDeserialize_suback + 140
        0x08001e3c:    4669        iF      MOV      r1,sp
        0x08001e3e:    9801        ..      LDR      r0,[sp,#4]
        0x08001e40:    f000f870    ..p.    BL       MQTTPacket_decodeBuf ; 0x8001f24
        0x08001e44:    4682        .F      MOV      r10,r0
        0x08001e46:    9901        ..      LDR      r1,[sp,#4]
        0x08001e48:    4408        .D      ADD      r0,r0,r1
        0x08001e4a:    9001        ..      STR      r0,[sp,#4]
        0x08001e4c:    e9dd1000    ....    LDRD     r1,r0,[sp,#0]
        0x08001e50:    eb000801    ....    ADD      r8,r0,r1
        0x08001e54:    9801        ..      LDR      r0,[sp,#4]
        0x08001e56:    eba80000    ....    SUB      r0,r8,r0
        0x08001e5a:    2802        .(      CMP      r0,#2
        0x08001e5c:    da00        ..      BGE      0x8001e60 ; MQTTDeserialize_suback + 86
        0x08001e5e:    e01a        ..      B        0x8001e96 ; MQTTDeserialize_suback + 140
        0x08001e60:    a801        ..      ADD      r0,sp,#4
        0x08001e62:    f004fb14    ....    BL       readInt ; 0x800648e
        0x08001e66:    8028        (.      STRH     r0,[r5,#0]
        0x08001e68:    2000        .       MOVS     r0,#0
        0x08001e6a:    6020         `      STR      r0,[r4,#0]
        0x08001e6c:    e00d        ..      B        0x8001e8a ; MQTTDeserialize_suback + 128
        0x08001e6e:    6820         h      LDR      r0,[r4,#0]
        0x08001e70:    42b0        .B      CMP      r0,r6
        0x08001e72:    dd02        ..      BLE      0x8001e7a ; MQTTDeserialize_suback + 112
        0x08001e74:    f04f3aff    O..:    MOV      r10,#0xffffffff
        0x08001e78:    e00d        ..      B        0x8001e96 ; MQTTDeserialize_suback + 140
        0x08001e7a:    a801        ..      ADD      r0,sp,#4
        0x08001e7c:    f004fb00    ....    BL       readChar ; 0x8006480
        0x08001e80:    6822        "h      LDR      r2,[r4,#0]
        0x08001e82:    1c51        Q.      ADDS     r1,r2,#1
        0x08001e84:    6021        !`      STR      r1,[r4,#0]
        0x08001e86:    f8470022    G.".    STR      r0,[r7,r2,LSL #2]
        0x08001e8a:    9801        ..      LDR      r0,[sp,#4]
        0x08001e8c:    4540        @E      CMP      r0,r8
        0x08001e8e:    d3ee        ..      BCC      0x8001e6e ; MQTTDeserialize_suback + 100
        0x08001e90:    f04f0a01    O...    MOV      r10,#1
        0x08001e94:    bf00        ..      NOP      
        0x08001e96:    4650        PF      MOV      r0,r10
        0x08001e98:    e8bd8ffe    ....    POP      {r1-r11,pc}
    i.MQTTDeserialize_unsuback
    MQTTDeserialize_unsuback
        0x08001e9c:    b5fe        ..      PUSH     {r1-r7,lr}
        0x08001e9e:    4604        .F      MOV      r4,r0
        0x08001ea0:    460d        .F      MOV      r5,r1
        0x08001ea2:    4616        .F      MOV      r6,r2
        0x08001ea4:    2000        .       MOVS     r0,#0
        0x08001ea6:    9002        ..      STR      r0,[sp,#8]
        0x08001ea8:    9001        ..      STR      r0,[sp,#4]
        0x08001eaa:    2700        .'      MOVS     r7,#0
        0x08001eac:    462b        +F      MOV      r3,r5
        0x08001eae:    4622        "F      MOV      r2,r4
        0x08001eb0:    a901        ..      ADD      r1,sp,#4
        0x08001eb2:    a802        ..      ADD      r0,sp,#8
        0x08001eb4:    9600        ..      STR      r6,[sp,#0]
        0x08001eb6:    f7fffee3    ....    BL       MQTTDeserialize_ack ; 0x8001c80
        0x08001eba:    4607        .F      MOV      r7,r0
        0x08001ebc:    f89d0008    ....    LDRB     r0,[sp,#8]
        0x08001ec0:    280b        .(      CMP      r0,#0xb
        0x08001ec2:    d100        ..      BNE      0x8001ec6 ; MQTTDeserialize_unsuback + 42
        0x08001ec4:    2701        .'      MOVS     r7,#1
        0x08001ec6:    4638        8F      MOV      r0,r7
        0x08001ec8:    bdfe        ..      POP      {r1-r7,pc}
    i.MQTTPacket_decode
    MQTTPacket_decode
        0x08001eca:    e92d43f8    -..C    PUSH     {r3-r9,lr}
        0x08001ece:    4605        .F      MOV      r5,r0
        0x08001ed0:    460c        .F      MOV      r4,r1
        0x08001ed2:    2601        .&      MOVS     r6,#1
        0x08001ed4:    2700        .'      MOVS     r7,#0
        0x08001ed6:    2000        .       MOVS     r0,#0
        0x08001ed8:    6020         `      STR      r0,[r4,#0]
        0x08001eda:    bf00        ..      NOP      
        0x08001edc:    f04f38ff    O..8    MOV      r8,#0xffffffff
        0x08001ee0:    1c78        x.      ADDS     r0,r7,#1
        0x08001ee2:    4607        .F      MOV      r7,r0
        0x08001ee4:    2804        .(      CMP      r0,#4
        0x08001ee6:    dd01        ..      BLE      0x8001eec ; MQTTPacket_decode + 34
        0x08001ee8:    bf00        ..      NOP      
        0x08001eea:    e017        ..      B        0x8001f1c ; MQTTPacket_decode + 82
        0x08001eec:    2101        .!      MOVS     r1,#1
        0x08001eee:    4668        hF      MOV      r0,sp
        0x08001ef0:    47a8        .G      BLX      r5
        0x08001ef2:    4680        .F      MOV      r8,r0
        0x08001ef4:    f1b80f01    ....    CMP      r8,#1
        0x08001ef8:    d000        ..      BEQ      0x8001efc ; MQTTPacket_decode + 50
        0x08001efa:    e00f        ..      B        0x8001f1c ; MQTTPacket_decode + 82
        0x08001efc:    f89d1000    ....    LDRB     r1,[sp,#0]
        0x08001f00:    f001017f    ....    AND      r1,r1,#0x7f
        0x08001f04:    6820         h      LDR      r0,[r4,#0]
        0x08001f06:    fb010006    ....    MLA      r0,r1,r6,r0
        0x08001f0a:    6020         `      STR      r0,[r4,#0]
        0x08001f0c:    01f6        ..      LSLS     r6,r6,#7
        0x08001f0e:    f89d0000    ....    LDRB     r0,[sp,#0]
        0x08001f12:    f0000080    ....    AND      r0,r0,#0x80
        0x08001f16:    2800        .(      CMP      r0,#0
        0x08001f18:    d1e0        ..      BNE      0x8001edc ; MQTTPacket_decode + 18
        0x08001f1a:    bf00        ..      NOP      
        0x08001f1c:    4638        8F      MOV      r0,r7
        0x08001f1e:    e8bd83f8    ....    POP      {r3-r9,pc}
        0x08001f22:    0000        ..      MOVS     r0,r0
    i.MQTTPacket_decodeBuf
    MQTTPacket_decodeBuf
        0x08001f24:    b570        p.      PUSH     {r4-r6,lr}
        0x08001f26:    4604        .F      MOV      r4,r0
        0x08001f28:    460d        .F      MOV      r5,r1
        0x08001f2a:    4803        .H      LDR      r0,[pc,#12] ; [0x8001f38] = 0x20000098
        0x08001f2c:    6004        .`      STR      r4,[r0,#0]
        0x08001f2e:    4629        )F      MOV      r1,r5
        0x08001f30:    4802        .H      LDR      r0,[pc,#8] ; [0x8001f3c] = 0x8003295
        0x08001f32:    f7ffffca    ....    BL       MQTTPacket_decode ; 0x8001eca
        0x08001f36:    bd70        p.      POP      {r4-r6,pc}
    $d
        0x08001f38:    20000098    ...     DCD    536871064
        0x08001f3c:    08003295    .2..    DCD    134230677
    $t
    i.MQTTPacket_encode
    MQTTPacket_encode
        0x08001f40:    b530        0.      PUSH     {r4,r5,lr}
        0x08001f42:    4602        .F      MOV      r2,r0
        0x08001f44:    2300        .#      MOVS     r3,#0
        0x08001f46:    bf00        ..      NOP      
        0x08001f48:    4608        .F      MOV      r0,r1
        0x08001f4a:    17cd        ..      ASRS     r5,r1,#31
        0x08001f4c:    eb016555    ..Ue    ADD      r5,r1,r5,LSR #25
        0x08001f50:    11ed        ..      ASRS     r5,r5,#7
        0x08001f52:    eba115c5    ....    SUB      r5,r1,r5,LSL #7
        0x08001f56:    b2ec        ..      UXTB     r4,r5
        0x08001f58:    17cd        ..      ASRS     r5,r1,#31
        0x08001f5a:    eb016555    ..Ue    ADD      r5,r1,r5,LSR #25
        0x08001f5e:    11e9        ..      ASRS     r1,r5,#7
        0x08001f60:    2900        .)      CMP      r1,#0
        0x08001f62:    dd01        ..      BLE      0x8001f68 ; MQTTPacket_encode + 40
        0x08001f64:    f0440480    D...    ORR      r4,r4,#0x80
        0x08001f68:    4618        .F      MOV      r0,r3
        0x08001f6a:    1c5b        [.      ADDS     r3,r3,#1
        0x08001f6c:    5414        .T      STRB     r4,[r2,r0]
        0x08001f6e:    2900        .)      CMP      r1,#0
        0x08001f70:    dcea        ..      BGT      0x8001f48 ; MQTTPacket_encode + 8
        0x08001f72:    4618        .F      MOV      r0,r3
        0x08001f74:    bd30        0.      POP      {r4,r5,pc}
    i.MQTTPacket_equals
    MQTTPacket_equals
        0x08001f76:    e92d41f0    -..A    PUSH     {r4-r8,lr}
        0x08001f7a:    4604        .F      MOV      r4,r0
        0x08001f7c:    460e        .F      MOV      r6,r1
        0x08001f7e:    2700        .'      MOVS     r7,#0
        0x08001f80:    46b8        .F      MOV      r8,r7
        0x08001f82:    6820         h      LDR      r0,[r4,#0]
        0x08001f84:    b128        (.      CBZ      r0,0x8001f92 ; MQTTPacket_equals + 28
        0x08001f86:    6825        %h      LDR      r5,[r4,#0]
        0x08001f88:    6820         h      LDR      r0,[r4,#0]
        0x08001f8a:    f7fef993    ....    BL       strlen ; 0x80002b4
        0x08001f8e:    4607        .F      MOV      r7,r0
        0x08001f90:    e001        ..      B        0x8001f96 ; MQTTPacket_equals + 32
        0x08001f92:    68a5        .h      LDR      r5,[r4,#8]
        0x08001f94:    6867        gh      LDR      r7,[r4,#4]
        0x08001f96:    4630        0F      MOV      r0,r6
        0x08001f98:    f7fef98c    ....    BL       strlen ; 0x80002b4
        0x08001f9c:    4680        .F      MOV      r8,r0
        0x08001f9e:    4547        GE      CMP      r7,r8
        0x08001fa0:    d108        ..      BNE      0x8001fb4 ; MQTTPacket_equals + 62
        0x08001fa2:    463a        :F      MOV      r2,r7
        0x08001fa4:    4631        1F      MOV      r1,r6
        0x08001fa6:    4628        (F      MOV      r0,r5
        0x08001fa8:    f7fef98b    ....    BL       strncmp ; 0x80002c2
        0x08001fac:    b910        ..      CBNZ     r0,0x8001fb4 ; MQTTPacket_equals + 62
        0x08001fae:    2001        .       MOVS     r0,#1
        0x08001fb0:    e8bd81f0    ....    POP      {r4-r8,pc}
        0x08001fb4:    2000        .       MOVS     r0,#0
        0x08001fb6:    e7fb        ..      B        0x8001fb0 ; MQTTPacket_equals + 58
    i.MQTTPacket_len
    MQTTPacket_len
        0x08001fb8:    1c40        @.      ADDS     r0,r0,#1
        0x08001fba:    2880        .(      CMP      r0,#0x80
        0x08001fbc:    da01        ..      BGE      0x8001fc2 ; MQTTPacket_len + 10
        0x08001fbe:    1c40        @.      ADDS     r0,r0,#1
        0x08001fc0:    e00a        ..      B        0x8001fd8 ; MQTTPacket_len + 32
        0x08001fc2:    f5b04f80    ...O    CMP      r0,#0x4000
        0x08001fc6:    da01        ..      BGE      0x8001fcc ; MQTTPacket_len + 20
        0x08001fc8:    1c80        ..      ADDS     r0,r0,#2
        0x08001fca:    e005        ..      B        0x8001fd8 ; MQTTPacket_len + 32
        0x08001fcc:    4903        .I      LDR      r1,[pc,#12] ; [0x8001fdc] = 0x1fffff
        0x08001fce:    4288        .B      CMP      r0,r1
        0x08001fd0:    da01        ..      BGE      0x8001fd6 ; MQTTPacket_len + 30
        0x08001fd2:    1cc0        ..      ADDS     r0,r0,#3
        0x08001fd4:    e000        ..      B        0x8001fd8 ; MQTTPacket_len + 32
        0x08001fd6:    1d00        ..      ADDS     r0,r0,#4
        0x08001fd8:    4770        pG      BX       lr
    $d
        0x08001fda:    0000        ..      DCW    0
        0x08001fdc:    001fffff    ....    DCD    2097151
    $t
    i.MQTTSerialize_ack
    MQTTSerialize_ack
        0x08001fe0:    e92d47fc    -..G    PUSH     {r2-r10,lr}
        0x08001fe4:    4604        .F      MOV      r4,r0
        0x08001fe6:    460e        .F      MOV      r6,r1
        0x08001fe8:    4615        .F      MOV      r5,r2
        0x08001fea:    461f        .F      MOV      r7,r3
        0x08001fec:    f8dd8028    ..(.    LDR      r8,[sp,#0x28]
        0x08001ff0:    2000        .       MOVS     r0,#0
        0x08001ff2:    9001        ..      STR      r0,[sp,#4]
        0x08001ff4:    4681        .F      MOV      r9,r0
        0x08001ff6:    9400        ..      STR      r4,[sp,#0]
        0x08001ff8:    2e04        ..      CMP      r6,#4
        0x08001ffa:    da02        ..      BGE      0x8002002 ; MQTTSerialize_ack + 34
        0x08001ffc:    f06f0901    o...    MVN      r9,#1
        0x08002000:    e024        $.      B        0x800204c ; MQTTSerialize_ack + 108
        0x08002002:    9801        ..      LDR      r0,[sp,#4]
        0x08002004:    f3651007    e...    BFI      r0,r5,#4,#4
        0x08002008:    9001        ..      STR      r0,[sp,#4]
        0x0800200a:    9801        ..      LDR      r0,[sp,#4]
        0x0800200c:    f36700c3    g...    BFI      r0,r7,#3,#1
        0x08002010:    9001        ..      STR      r0,[sp,#4]
        0x08002012:    2d06        .-      CMP      r5,#6
        0x08002014:    d101        ..      BNE      0x800201a ; MQTTSerialize_ack + 58
        0x08002016:    2101        .!      MOVS     r1,#1
        0x08002018:    e000        ..      B        0x800201c ; MQTTSerialize_ack + 60
        0x0800201a:    2100        .!      MOVS     r1,#0
        0x0800201c:    9801        ..      LDR      r0,[sp,#4]
        0x0800201e:    f3610042    a.B.    BFI      r0,r1,#1,#2
        0x08002022:    9001        ..      STR      r0,[sp,#4]
        0x08002024:    f89d1004    ....    LDRB     r1,[sp,#4]
        0x08002028:    4668        hF      MOV      r0,sp
        0x0800202a:    f004fefd    ....    BL       writeChar ; 0x8006e28
        0x0800202e:    2102        .!      MOVS     r1,#2
        0x08002030:    9800        ..      LDR      r0,[sp,#0]
        0x08002032:    f7ffff85    ....    BL       MQTTPacket_encode ; 0x8001f40
        0x08002036:    9900        ..      LDR      r1,[sp,#0]
        0x08002038:    4408        .D      ADD      r0,r0,r1
        0x0800203a:    9000        ..      STR      r0,[sp,#0]
        0x0800203c:    4641        AF      MOV      r1,r8
        0x0800203e:    4668        hF      MOV      r0,sp
        0x08002040:    f004fef8    ....    BL       writeInt ; 0x8006e34
        0x08002044:    9800        ..      LDR      r0,[sp,#0]
        0x08002046:    eba00904    ....    SUB      r9,r0,r4
        0x0800204a:    bf00        ..      NOP      
        0x0800204c:    4648        HF      MOV      r0,r9
        0x0800204e:    e8bd87fc    ....    POP      {r2-r10,pc}
        0x08002052:    0000        ..      MOVS     r0,r0
    i.MQTTSerialize_connect
    MQTTSerialize_connect
        0x08002054:    e92d43fe    -..C    PUSH     {r1-r9,lr}
        0x08002058:    4605        .F      MOV      r5,r0
        0x0800205a:    460e        .F      MOV      r6,r1
        0x0800205c:    4614        .F      MOV      r4,r2
        0x0800205e:    9502        ..      STR      r5,[sp,#8]
        0x08002060:    2000        .       MOVS     r0,#0
        0x08002062:    9001        ..      STR      r0,[sp,#4]
        0x08002064:    9000        ..      STR      r0,[sp,#0]
        0x08002066:    2700        .'      MOVS     r7,#0
        0x08002068:    f04f38ff    O..8    MOV      r8,#0xffffffff
        0x0800206c:    4620         F      MOV      r0,r4
        0x0800206e:    f000f8a5    ....    BL       MQTTSerialize_connectLength ; 0x80021bc
        0x08002072:    4607        .F      MOV      r7,r0
        0x08002074:    4681        .F      MOV      r9,r0
        0x08002076:    f7ffff9f    ....    BL       MQTTPacket_len ; 0x8001fb8
        0x0800207a:    42b0        .B      CMP      r0,r6
        0x0800207c:    dd02        ..      BLE      0x8002084 ; MQTTSerialize_connect + 48
        0x0800207e:    f06f0801    o...    MVN      r8,#1
        0x08002082:    e08f        ..      B        0x80021a4 ; MQTTSerialize_connect + 336
        0x08002084:    2000        .       MOVS     r0,#0
        0x08002086:    f88d0004    ....    STRB     r0,[sp,#4]
        0x0800208a:    9801        ..      LDR      r0,[sp,#4]
        0x0800208c:    f02000f0     ...    BIC      r0,r0,#0xf0
        0x08002090:    3010        .0      ADDS     r0,r0,#0x10
        0x08002092:    9001        ..      STR      r0,[sp,#4]
        0x08002094:    f89d1004    ....    LDRB     r1,[sp,#4]
        0x08002098:    a802        ..      ADD      r0,sp,#8
        0x0800209a:    f004fec5    ....    BL       writeChar ; 0x8006e28
        0x0800209e:    4639        9F      MOV      r1,r7
        0x080020a0:    9802        ..      LDR      r0,[sp,#8]
        0x080020a2:    f7ffff4d    ..M.    BL       MQTTPacket_encode ; 0x8001f40
        0x080020a6:    9902        ..      LDR      r1,[sp,#8]
        0x080020a8:    4408        .D      ADD      r0,r0,r1
        0x080020aa:    9002        ..      STR      r0,[sp,#8]
        0x080020ac:    7a20         z      LDRB     r0,[r4,#8]
        0x080020ae:    2804        .(      CMP      r0,#4
        0x080020b0:    d108        ..      BNE      0x80020c4 ; MQTTSerialize_connect + 112
        0x080020b2:    a13e        >.      ADR      r1,{pc}+0xfa ; 0x80021ac
        0x080020b4:    a802        ..      ADD      r0,sp,#8
        0x080020b6:    f004fea3    ....    BL       writeCString ; 0x8006e00
        0x080020ba:    2104        .!      MOVS     r1,#4
        0x080020bc:    a802        ..      ADD      r0,sp,#8
        0x080020be:    f004feb3    ....    BL       writeChar ; 0x8006e28
        0x080020c2:    e007        ..      B        0x80020d4 ; MQTTSerialize_connect + 128
        0x080020c4:    a13b        ;.      ADR      r1,{pc}+0xf0 ; 0x80021b4
        0x080020c6:    a802        ..      ADD      r0,sp,#8
        0x080020c8:    f004fe9a    ....    BL       writeCString ; 0x8006e00
        0x080020cc:    2103        .!      MOVS     r1,#3
        0x080020ce:    a802        ..      ADD      r0,sp,#8
        0x080020d0:    f004feaa    ....    BL       writeChar ; 0x8006e28
        0x080020d4:    2000        .       MOVS     r0,#0
        0x080020d6:    f88d0000    ....    STRB     r0,[sp,#0]
        0x080020da:    7ea1        .~      LDRB     r1,[r4,#0x1a]
        0x080020dc:    9800        ..      LDR      r0,[sp,#0]
        0x080020de:    f3610041    a.A.    BFI      r0,r1,#1,#1
        0x080020e2:    9000        ..      STR      r0,[sp,#0]
        0x080020e4:    7ee0        .~      LDRB     r0,[r4,#0x1b]
        0x080020e6:    b108        ..      CBZ      r0,0x80020ec ; MQTTSerialize_connect + 152
        0x080020e8:    2101        .!      MOVS     r1,#1
        0x080020ea:    e000        ..      B        0x80020ee ; MQTTSerialize_connect + 154
        0x080020ec:    2100        .!      MOVS     r1,#0
        0x080020ee:    9800        ..      LDR      r0,[sp,#0]
        0x080020f0:    f3610082    a...    BFI      r0,r1,#2,#1
        0x080020f4:    9000        ..      STR      r0,[sp,#0]
        0x080020f6:    9800        ..      LDR      r0,[sp,#0]
        0x080020f8:    f3c00080    ....    UBFX     r0,r0,#2,#1
        0x080020fc:    b158        X.      CBZ      r0,0x8002116 ; MQTTSerialize_connect + 194
        0x080020fe:    f894103d    ..=.    LDRB     r1,[r4,#0x3d]
        0x08002102:    9800        ..      LDR      r0,[sp,#0]
        0x08002104:    f36100c4    a...    BFI      r0,r1,#3,#2
        0x08002108:    9000        ..      STR      r0,[sp,#0]
        0x0800210a:    f894103c    ..<.    LDRB     r1,[r4,#0x3c]
        0x0800210e:    9800        ..      LDR      r0,[sp,#0]
        0x08002110:    f3611045    a.E.    BFI      r0,r1,#5,#1
        0x08002114:    9000        ..      STR      r0,[sp,#0]
        0x08002116:    6c20         l      LDR      r0,[r4,#0x40]
        0x08002118:    b908        ..      CBNZ     r0,0x800211e ; MQTTSerialize_connect + 202
        0x0800211a:    6ca0        .l      LDR      r0,[r4,#0x48]
        0x0800211c:    b120         .      CBZ      r0,0x8002128 ; MQTTSerialize_connect + 212
        0x0800211e:    9800        ..      LDR      r0,[sp,#0]
        0x08002120:    f0200080     ...    BIC      r0,r0,#0x80
        0x08002124:    3080        .0      ADDS     r0,r0,#0x80
        0x08002126:    9000        ..      STR      r0,[sp,#0]
        0x08002128:    6ce0        .l      LDR      r0,[r4,#0x4c]
        0x0800212a:    b908        ..      CBNZ     r0,0x8002130 ; MQTTSerialize_connect + 220
        0x0800212c:    6d60        `m      LDR      r0,[r4,#0x54]
        0x0800212e:    b120         .      CBZ      r0,0x800213a ; MQTTSerialize_connect + 230
        0x08002130:    9800        ..      LDR      r0,[sp,#0]
        0x08002132:    f0200040     .@.    BIC      r0,r0,#0x40
        0x08002136:    3040        @0      ADDS     r0,r0,#0x40
        0x08002138:    9000        ..      STR      r0,[sp,#0]
        0x0800213a:    f89d1000    ....    LDRB     r1,[sp,#0]
        0x0800213e:    a802        ..      ADD      r0,sp,#8
        0x08002140:    f004fe72    ..r.    BL       writeChar ; 0x8006e28
        0x08002144:    8b21        !.      LDRH     r1,[r4,#0x18]
        0x08002146:    a802        ..      ADD      r0,sp,#8
        0x08002148:    f004fe74    ..t.    BL       writeInt ; 0x8006e34
        0x0800214c:    a802        ..      ADD      r0,sp,#8
        0x0800214e:    e9d42304    ...#    LDRD     r2,r3,[r4,#0x10]
        0x08002152:    68e1        .h      LDR      r1,[r4,#0xc]
        0x08002154:    f004fe86    ....    BL       writeMQTTString ; 0x8006e64
        0x08002158:    7ee0        .~      LDRB     r0,[r4,#0x1b]
        0x0800215a:    b158        X.      CBZ      r0,0x8002174 ; MQTTSerialize_connect + 288
        0x0800215c:    a802        ..      ADD      r0,sp,#8
        0x0800215e:    e9d4230a    ...#    LDRD     r2,r3,[r4,#0x28]
        0x08002162:    6a61        aj      LDR      r1,[r4,#0x24]
        0x08002164:    f004fe7e    ..~.    BL       writeMQTTString ; 0x8006e64
        0x08002168:    a802        ..      ADD      r0,sp,#8
        0x0800216a:    e9d4230d    ...#    LDRD     r2,r3,[r4,#0x34]
        0x0800216e:    6b21        !k      LDR      r1,[r4,#0x30]
        0x08002170:    f004fe78    ..x.    BL       writeMQTTString ; 0x8006e64
        0x08002174:    9800        ..      LDR      r0,[sp,#0]
        0x08002176:    f3c010c0    ....    UBFX     r0,r0,#7,#1
        0x0800217a:    b128        (.      CBZ      r0,0x8002188 ; MQTTSerialize_connect + 308
        0x0800217c:    a802        ..      ADD      r0,sp,#8
        0x0800217e:    e9d42311    ...#    LDRD     r2,r3,[r4,#0x44]
        0x08002182:    6c21        !l      LDR      r1,[r4,#0x40]
        0x08002184:    f004fe6e    ..n.    BL       writeMQTTString ; 0x8006e64
        0x08002188:    9800        ..      LDR      r0,[sp,#0]
        0x0800218a:    f3c01080    ....    UBFX     r0,r0,#6,#1
        0x0800218e:    b128        (.      CBZ      r0,0x800219c ; MQTTSerialize_connect + 328
        0x08002190:    a802        ..      ADD      r0,sp,#8
        0x08002192:    e9d42314    ...#    LDRD     r2,r3,[r4,#0x50]
        0x08002196:    6ce1        .l      LDR      r1,[r4,#0x4c]
        0x08002198:    f004fe64    ..d.    BL       writeMQTTString ; 0x8006e64
        0x0800219c:    9802        ..      LDR      r0,[sp,#8]
        0x0800219e:    eba00805    ....    SUB      r8,r0,r5
        0x080021a2:    bf00        ..      NOP      
        0x080021a4:    4640        @F      MOV      r0,r8
        0x080021a6:    e8bd83fe    ....    POP      {r1-r9,pc}
    $d
        0x080021aa:    0000        ..      DCW    0
        0x080021ac:    5454514d    MQTT    DCD    1414811981
        0x080021b0:    00000000    ....    DCD    0
        0x080021b4:    7349514d    MQIs    DCD    1934184781
        0x080021b8:    00007064    dp..    DCD    28772
    $t
    i.MQTTSerialize_connectLength
    MQTTSerialize_connectLength
        0x080021bc:    b570        p.      PUSH     {r4-r6,lr}
        0x080021be:    4604        .F      MOV      r4,r0
        0x080021c0:    2500        .%      MOVS     r5,#0
        0x080021c2:    7a20         z      LDRB     r0,[r4,#8]
        0x080021c4:    2803        .(      CMP      r0,#3
        0x080021c6:    d101        ..      BNE      0x80021cc ; MQTTSerialize_connectLength + 16
        0x080021c8:    250c        .%      MOVS     r5,#0xc
        0x080021ca:    e003        ..      B        0x80021d4 ; MQTTSerialize_connectLength + 24
        0x080021cc:    7a20         z      LDRB     r0,[r4,#8]
        0x080021ce:    2804        .(      CMP      r0,#4
        0x080021d0:    d100        ..      BNE      0x80021d4 ; MQTTSerialize_connectLength + 24
        0x080021d2:    250a        .%      MOVS     r5,#0xa
        0x080021d4:    e9d41204    ....    LDRD     r1,r2,[r4,#0x10]
        0x080021d8:    68e0        .h      LDR      r0,[r4,#0xc]
        0x080021da:    f000f9ff    ....    BL       MQTTstrlen ; 0x80025dc
        0x080021de:    1c80        ..      ADDS     r0,r0,#2
        0x080021e0:    4405        .D      ADD      r5,r5,r0
        0x080021e2:    7ee0        .~      LDRB     r0,[r4,#0x1b]
        0x080021e4:    b168        h.      CBZ      r0,0x8002202 ; MQTTSerialize_connectLength + 70
        0x080021e6:    e9d4120a    ....    LDRD     r1,r2,[r4,#0x28]
        0x080021ea:    6a60        `j      LDR      r0,[r4,#0x24]
        0x080021ec:    f000f9f6    ....    BL       MQTTstrlen ; 0x80025dc
        0x080021f0:    1c86        ..      ADDS     r6,r0,#2
        0x080021f2:    e9d4120d    ....    LDRD     r1,r2,[r4,#0x34]
        0x080021f6:    6b20         k      LDR      r0,[r4,#0x30]
        0x080021f8:    f000f9f0    ....    BL       MQTTstrlen ; 0x80025dc
        0x080021fc:    4430        0D      ADD      r0,r0,r6
        0x080021fe:    1c80        ..      ADDS     r0,r0,#2
        0x08002200:    4405        .D      ADD      r5,r5,r0
        0x08002202:    6c20         l      LDR      r0,[r4,#0x40]
        0x08002204:    b908        ..      CBNZ     r0,0x800220a ; MQTTSerialize_connectLength + 78
        0x08002206:    6ca0        .l      LDR      r0,[r4,#0x48]
        0x08002208:    b130        0.      CBZ      r0,0x8002218 ; MQTTSerialize_connectLength + 92
        0x0800220a:    e9d41211    ....    LDRD     r1,r2,[r4,#0x44]
        0x0800220e:    6c20         l      LDR      r0,[r4,#0x40]
        0x08002210:    f000f9e4    ....    BL       MQTTstrlen ; 0x80025dc
        0x08002214:    1c80        ..      ADDS     r0,r0,#2
        0x08002216:    4405        .D      ADD      r5,r5,r0
        0x08002218:    6ce0        .l      LDR      r0,[r4,#0x4c]
        0x0800221a:    b908        ..      CBNZ     r0,0x8002220 ; MQTTSerialize_connectLength + 100
        0x0800221c:    6d60        `m      LDR      r0,[r4,#0x54]
        0x0800221e:    b130        0.      CBZ      r0,0x800222e ; MQTTSerialize_connectLength + 114
        0x08002220:    e9d41214    ....    LDRD     r1,r2,[r4,#0x50]
        0x08002224:    6ce0        .l      LDR      r0,[r4,#0x4c]
        0x08002226:    f000f9d9    ....    BL       MQTTstrlen ; 0x80025dc
        0x0800222a:    1c80        ..      ADDS     r0,r0,#2
        0x0800222c:    4405        .D      ADD      r5,r5,r0
        0x0800222e:    4628        (F      MOV      r0,r5
        0x08002230:    bd70        p.      POP      {r4-r6,pc}
    i.MQTTSerialize_pingreq
    MQTTSerialize_pingreq
        0x08002232:    b570        p.      PUSH     {r4-r6,lr}
        0x08002234:    4604        .F      MOV      r4,r0
        0x08002236:    460d        .F      MOV      r5,r1
        0x08002238:    220c        ."      MOVS     r2,#0xc
        0x0800223a:    4629        )F      MOV      r1,r5
        0x0800223c:    4620         F      MOV      r0,r4
        0x0800223e:    f000f8d9    ....    BL       MQTTSerialize_zero ; 0x80023f4
        0x08002242:    bd70        p.      POP      {r4-r6,pc}
    i.MQTTSerialize_publish
    MQTTSerialize_publish
        0x08002244:    e92d4ff0    -..O    PUSH     {r4-r11,lr}
        0x08002248:    b087        ..      SUB      sp,sp,#0x1c
        0x0800224a:    4605        .F      MOV      r5,r0
        0x0800224c:    460f        .F      MOV      r7,r1
        0x0800224e:    4690        .F      MOV      r8,r2
        0x08002250:    461c        .F      MOV      r4,r3
        0x08002252:    e9ddb615    ....    LDRD     r11,r6,[sp,#0x54]
        0x08002256:    e9dd9a10    ....    LDRD     r9,r10,[sp,#0x40]
        0x0800225a:    9506        ..      STR      r5,[sp,#0x18]
        0x0800225c:    2000        .       MOVS     r0,#0
        0x0800225e:    9005        ..      STR      r0,[sp,#0x14]
        0x08002260:    9004        ..      STR      r0,[sp,#0x10]
        0x08002262:    9003        ..      STR      r0,[sp,#0xc]
        0x08002264:    9600        ..      STR      r6,[sp,#0]
        0x08002266:    4620         F      MOV      r0,r4
        0x08002268:    a912        ..      ADD      r1,sp,#0x48
        0x0800226a:    c90e        ..      LDM      r1,{r1-r3}
        0x0800226c:    f000f842    ..B.    BL       MQTTSerialize_publishLength ; 0x80022f4
        0x08002270:    9004        ..      STR      r0,[sp,#0x10]
        0x08002272:    9002        ..      STR      r0,[sp,#8]
        0x08002274:    f7fffea0    ....    BL       MQTTPacket_len ; 0x8001fb8
        0x08002278:    42b8        .B      CMP      r0,r7
        0x0800227a:    dd03        ..      BLE      0x8002284 ; MQTTSerialize_publish + 64
        0x0800227c:    f06f0001    o...    MVN      r0,#1
        0x08002280:    9003        ..      STR      r0,[sp,#0xc]
        0x08002282:    e033        3.      B        0x80022ec ; MQTTSerialize_publish + 168
        0x08002284:    9805        ..      LDR      r0,[sp,#0x14]
        0x08002286:    f02000f0     ...    BIC      r0,r0,#0xf0
        0x0800228a:    3030        00      ADDS     r0,r0,#0x30
        0x0800228c:    9005        ..      STR      r0,[sp,#0x14]
        0x0800228e:    9805        ..      LDR      r0,[sp,#0x14]
        0x08002290:    f36800c3    h...    BFI      r0,r8,#3,#1
        0x08002294:    9005        ..      STR      r0,[sp,#0x14]
        0x08002296:    9805        ..      LDR      r0,[sp,#0x14]
        0x08002298:    f3640042    d.B.    BFI      r0,r4,#1,#2
        0x0800229c:    9005        ..      STR      r0,[sp,#0x14]
        0x0800229e:    9805        ..      LDR      r0,[sp,#0x14]
        0x080022a0:    f3690000    i...    BFI      r0,r9,#0,#1
        0x080022a4:    9005        ..      STR      r0,[sp,#0x14]
        0x080022a6:    f89d1014    ....    LDRB     r1,[sp,#0x14]
        0x080022aa:    a806        ..      ADD      r0,sp,#0x18
        0x080022ac:    f004fdbc    ....    BL       writeChar ; 0x8006e28
        0x080022b0:    9904        ..      LDR      r1,[sp,#0x10]
        0x080022b2:    9806        ..      LDR      r0,[sp,#0x18]
        0x080022b4:    f7fffe44    ..D.    BL       MQTTPacket_encode ; 0x8001f40
        0x080022b8:    9906        ..      LDR      r1,[sp,#0x18]
        0x080022ba:    4408        .D      ADD      r0,r0,r1
        0x080022bc:    9006        ..      STR      r0,[sp,#0x18]
        0x080022be:    a806        ..      ADD      r0,sp,#0x18
        0x080022c0:    a912        ..      ADD      r1,sp,#0x48
        0x080022c2:    c90e        ..      LDM      r1,{r1-r3}
        0x080022c4:    f004fdce    ....    BL       writeMQTTString ; 0x8006e64
        0x080022c8:    2c00        .,      CMP      r4,#0
        0x080022ca:    dd03        ..      BLE      0x80022d4 ; MQTTSerialize_publish + 144
        0x080022cc:    4651        QF      MOV      r1,r10
        0x080022ce:    a806        ..      ADD      r0,sp,#0x18
        0x080022d0:    f004fdb0    ....    BL       writeInt ; 0x8006e34
        0x080022d4:    4632        2F      MOV      r2,r6
        0x080022d6:    4659        YF      MOV      r1,r11
        0x080022d8:    9806        ..      LDR      r0,[sp,#0x18]
        0x080022da:    f7fdffb5    ....    BL       __aeabi_memcpy ; 0x8000248
        0x080022de:    9806        ..      LDR      r0,[sp,#0x18]
        0x080022e0:    4430        0D      ADD      r0,r0,r6
        0x080022e2:    9006        ..      STR      r0,[sp,#0x18]
        0x080022e4:    9806        ..      LDR      r0,[sp,#0x18]
        0x080022e6:    1b40        @.      SUBS     r0,r0,r5
        0x080022e8:    9003        ..      STR      r0,[sp,#0xc]
        0x080022ea:    bf00        ..      NOP      
        0x080022ec:    9803        ..      LDR      r0,[sp,#0xc]
        0x080022ee:    b007        ..      ADD      sp,sp,#0x1c
        0x080022f0:    e8bd8ff0    ....    POP      {r4-r11,pc}
    i.MQTTSerialize_publishLength
    MQTTSerialize_publishLength
        0x080022f4:    b57f        ..      PUSH     {r0-r6,lr}
        0x080022f6:    4605        .F      MOV      r5,r0
        0x080022f8:    9e08        ..      LDR      r6,[sp,#0x20]
        0x080022fa:    2400        .$      MOVS     r4,#0
        0x080022fc:    a801        ..      ADD      r0,sp,#4
        0x080022fe:    c807        ..      LDM      r0,{r0-r2}
        0x08002300:    f000f96c    ..l.    BL       MQTTstrlen ; 0x80025dc
        0x08002304:    1c80        ..      ADDS     r0,r0,#2
        0x08002306:    4430        0D      ADD      r0,r0,r6
        0x08002308:    4404        .D      ADD      r4,r4,r0
        0x0800230a:    2d00        .-      CMP      r5,#0
        0x0800230c:    dd00        ..      BLE      0x8002310 ; MQTTSerialize_publishLength + 28
        0x0800230e:    1ca4        ..      ADDS     r4,r4,#2
        0x08002310:    4620         F      MOV      r0,r4
        0x08002312:    b004        ..      ADD      sp,sp,#0x10
        0x08002314:    bd70        p.      POP      {r4-r6,pc}
    i.MQTTSerialize_subscribe
    MQTTSerialize_subscribe
        0x08002316:    e92d5fff    -.._    PUSH     {r0-r12,lr}
        0x0800231a:    4605        .F      MOV      r5,r0
        0x0800231c:    460e        .F      MOV      r6,r1
        0x0800231e:    4617        .F      MOV      r7,r2
        0x08002320:    4698        .F      MOV      r8,r3
        0x08002322:    e9dd9a0e    ....    LDRD     r9,r10,[sp,#0x38]
        0x08002326:    9503        ..      STR      r5,[sp,#0xc]
        0x08002328:    2000        .       MOVS     r0,#0
        0x0800232a:    9002        ..      STR      r0,[sp,#8]
        0x0800232c:    9001        ..      STR      r0,[sp,#4]
        0x0800232e:    9000        ..      STR      r0,[sp,#0]
        0x08002330:    2400        .$      MOVS     r4,#0
        0x08002332:    4651        QF      MOV      r1,r10
        0x08002334:    4648        HF      MOV      r0,r9
        0x08002336:    f000f846    ..F.    BL       MQTTSerialize_subscribeLength ; 0x80023c6
        0x0800233a:    4683        .F      MOV      r11,r0
        0x0800233c:    9001        ..      STR      r0,[sp,#4]
        0x0800233e:    f7fffe3b    ..;.    BL       MQTTPacket_len ; 0x8001fb8
        0x08002342:    42b0        .B      CMP      r0,r6
        0x08002344:    dd02        ..      BLE      0x800234c ; MQTTSerialize_subscribe + 54
        0x08002346:    1ea0        ..      SUBS     r0,r4,#2
        0x08002348:    9000        ..      STR      r0,[sp,#0]
        0x0800234a:    e038        8.      B        0x80023be ; MQTTSerialize_subscribe + 168
        0x0800234c:    2000        .       MOVS     r0,#0
        0x0800234e:    f88d0008    ....    STRB     r0,[sp,#8]
        0x08002352:    9802        ..      LDR      r0,[sp,#8]
        0x08002354:    f02000f0     ...    BIC      r0,r0,#0xf0
        0x08002358:    3080        .0      ADDS     r0,r0,#0x80
        0x0800235a:    9002        ..      STR      r0,[sp,#8]
        0x0800235c:    9802        ..      LDR      r0,[sp,#8]
        0x0800235e:    f36700c3    g...    BFI      r0,r7,#3,#1
        0x08002362:    9002        ..      STR      r0,[sp,#8]
        0x08002364:    9802        ..      LDR      r0,[sp,#8]
        0x08002366:    f0200006     ...    BIC      r0,r0,#6
        0x0800236a:    1c80        ..      ADDS     r0,r0,#2
        0x0800236c:    9002        ..      STR      r0,[sp,#8]
        0x0800236e:    f89d1008    ....    LDRB     r1,[sp,#8]
        0x08002372:    a803        ..      ADD      r0,sp,#0xc
        0x08002374:    f004fd58    ..X.    BL       writeChar ; 0x8006e28
        0x08002378:    9901        ..      LDR      r1,[sp,#4]
        0x0800237a:    9803        ..      LDR      r0,[sp,#0xc]
        0x0800237c:    f7fffde0    ....    BL       MQTTPacket_encode ; 0x8001f40
        0x08002380:    9903        ..      LDR      r1,[sp,#0xc]
        0x08002382:    4408        .D      ADD      r0,r0,r1
        0x08002384:    9003        ..      STR      r0,[sp,#0xc]
        0x08002386:    4641        AF      MOV      r1,r8
        0x08002388:    a803        ..      ADD      r0,sp,#0xc
        0x0800238a:    f004fd53    ..S.    BL       writeInt ; 0x8006e34
        0x0800238e:    2400        .$      MOVS     r4,#0
        0x08002390:    e00f        ..      B        0x80023b2 ; MQTTSerialize_subscribe + 156
        0x08002392:    eb040044    ..D.    ADD      r0,r4,r4,LSL #1
        0x08002396:    eb0a0c80    ....    ADD      r12,r10,r0,LSL #2
        0x0800239a:    a803        ..      ADD      r0,sp,#0xc
        0x0800239c:    e89c000e    ....    LDM      r12,{r1-r3}
        0x080023a0:    f004fd60    ..`.    BL       writeMQTTString ; 0x8006e64
        0x080023a4:    9810        ..      LDR      r0,[sp,#0x40]
        0x080023a6:    f8101024    ..$.    LDRB     r1,[r0,r4,LSL #2]
        0x080023aa:    a803        ..      ADD      r0,sp,#0xc
        0x080023ac:    f004fd3c    ..<.    BL       writeChar ; 0x8006e28
        0x080023b0:    1c64        d.      ADDS     r4,r4,#1
        0x080023b2:    454c        LE      CMP      r4,r9
        0x080023b4:    dbed        ..      BLT      0x8002392 ; MQTTSerialize_subscribe + 124
        0x080023b6:    9803        ..      LDR      r0,[sp,#0xc]
        0x080023b8:    1b40        @.      SUBS     r0,r0,r5
        0x080023ba:    9000        ..      STR      r0,[sp,#0]
        0x080023bc:    bf00        ..      NOP      
        0x080023be:    9800        ..      LDR      r0,[sp,#0]
        0x080023c0:    b004        ..      ADD      sp,sp,#0x10
        0x080023c2:    e8bd9ff0    ....    POP      {r4-r12,pc}
    i.MQTTSerialize_subscribeLength
    MQTTSerialize_subscribeLength
        0x080023c6:    e92d41f0    -..A    PUSH     {r4-r8,lr}
        0x080023ca:    4605        .F      MOV      r5,r0
        0x080023cc:    460e        .F      MOV      r6,r1
        0x080023ce:    2702        .'      MOVS     r7,#2
        0x080023d0:    2400        .$      MOVS     r4,#0
        0x080023d2:    e00a        ..      B        0x80023ea ; MQTTSerialize_subscribeLength + 36
        0x080023d4:    eb040044    ..D.    ADD      r0,r4,r4,LSL #1
        0x080023d8:    eb060380    ....    ADD      r3,r6,r0,LSL #2
        0x080023dc:    e8930007    ....    LDM      r3,{r0-r2}
        0x080023e0:    f000f8fc    ....    BL       MQTTstrlen ; 0x80025dc
        0x080023e4:    1cc0        ..      ADDS     r0,r0,#3
        0x080023e6:    4407        .D      ADD      r7,r7,r0
        0x080023e8:    1c64        d.      ADDS     r4,r4,#1
        0x080023ea:    42ac        .B      CMP      r4,r5
        0x080023ec:    dbf2        ..      BLT      0x80023d4 ; MQTTSerialize_subscribeLength + 14
        0x080023ee:    4638        8F      MOV      r0,r7
        0x080023f0:    e8bd81f0    ....    POP      {r4-r8,pc}
    i.MQTTSerialize_zero
    MQTTSerialize_zero
        0x080023f4:    e92d41fc    -..A    PUSH     {r2-r8,lr}
        0x080023f8:    4604        .F      MOV      r4,r0
        0x080023fa:    460d        .F      MOV      r5,r1
        0x080023fc:    4616        .F      MOV      r6,r2
        0x080023fe:    2000        .       MOVS     r0,#0
        0x08002400:    9001        ..      STR      r0,[sp,#4]
        0x08002402:    1e47        G.      SUBS     r7,r0,#1
        0x08002404:    9400        ..      STR      r4,[sp,#0]
        0x08002406:    2d02        .-      CMP      r5,#2
        0x08002408:    da01        ..      BGE      0x800240e ; MQTTSerialize_zero + 26
        0x0800240a:    1e87        ..      SUBS     r7,r0,#2
        0x0800240c:    e015        ..      B        0x800243a ; MQTTSerialize_zero + 70
        0x0800240e:    2000        .       MOVS     r0,#0
        0x08002410:    f88d0004    ....    STRB     r0,[sp,#4]
        0x08002414:    9801        ..      LDR      r0,[sp,#4]
        0x08002416:    f3661007    f...    BFI      r0,r6,#4,#4
        0x0800241a:    9001        ..      STR      r0,[sp,#4]
        0x0800241c:    f89d1004    ....    LDRB     r1,[sp,#4]
        0x08002420:    4668        hF      MOV      r0,sp
        0x08002422:    f004fd01    ....    BL       writeChar ; 0x8006e28
        0x08002426:    2100        .!      MOVS     r1,#0
        0x08002428:    9800        ..      LDR      r0,[sp,#0]
        0x0800242a:    f7fffd89    ....    BL       MQTTPacket_encode ; 0x8001f40
        0x0800242e:    9900        ..      LDR      r1,[sp,#0]
        0x08002430:    4408        .D      ADD      r0,r0,r1
        0x08002432:    9000        ..      STR      r0,[sp,#0]
        0x08002434:    9800        ..      LDR      r0,[sp,#0]
        0x08002436:    1b07        ..      SUBS     r7,r0,r4
        0x08002438:    bf00        ..      NOP      
        0x0800243a:    4638        8F      MOV      r0,r7
        0x0800243c:    e8bd81fc    ....    POP      {r2-r8,pc}
    i.MQTT_Client_Task
    MQTT_Client_Task
        0x08002440:    b08a        ..      SUB      sp,sp,#0x28
        0x08002442:    2500        .%      MOVS     r5,#0
        0x08002444:    2600        .&      MOVS     r6,#0
        0x08002446:    2000        .       MOVS     r0,#0
        0x08002448:    9001        ..      STR      r0,[sp,#4]
        0x0800244a:    9002        ..      STR      r0,[sp,#8]
        0x0800244c:    9003        ..      STR      r0,[sp,#0xc]
        0x0800244e:    9004        ..      STR      r0,[sp,#0x10]
        0x08002450:    f001fc9c    ....    BL       mqtt_lease ; 0x8003d8c
        0x08002454:    4606        .F      MOV      r6,r0
        0x08002456:    a134        4.      ADR      r1,{pc}+0xd2 ; 0x8002528
        0x08002458:    4630        0F      MOV      r0,r6
        0x0800245a:    f002fa17    ....    BL       mqtt_set_port ; 0x800488c
        0x0800245e:    a134        4.      ADR      r1,{pc}+0xd2 ; 0x8002530
        0x08002460:    4630        0F      MOV      r0,r6
        0x08002462:    f002f99b    ....    BL       mqtt_set_host ; 0x800479c
        0x08002466:    200a        .       MOVS     r0,#0xa
        0x08002468:    f003ffa2    ....    BL       random_string ; 0x80063b0
        0x0800246c:    4607        .F      MOV      r7,r0
        0x0800246e:    4639        9F      MOV      r1,r7
        0x08002470:    4630        0F      MOV      r0,r6
        0x08002472:    f002f949    ..I.    BL       mqtt_set_client_id ; 0x8004708
        0x08002476:    200a        .       MOVS     r0,#0xa
        0x08002478:    f003ff9a    ....    BL       random_string ; 0x80063b0
        0x0800247c:    4607        .F      MOV      r7,r0
        0x0800247e:    4639        9F      MOV      r1,r7
        0x08002480:    4630        0F      MOV      r0,r6
        0x08002482:    f002fa65    ..e.    BL       mqtt_set_user_name ; 0x8004950
        0x08002486:    200a        .       MOVS     r0,#0xa
        0x08002488:    f003ff92    ....    BL       random_string ; 0x80063b0
        0x0800248c:    4607        .F      MOV      r7,r0
        0x0800248e:    4639        9F      MOV      r1,r7
        0x08002490:    4630        0F      MOV      r0,r6
        0x08002492:    f002f9bf    ....    BL       mqtt_set_password ; 0x8004814
        0x08002496:    2101        .!      MOVS     r1,#1
        0x08002498:    4630        0F      MOV      r0,r6
        0x0800249a:    f002f8f3    ....    BL       mqtt_set_clean_session ; 0x8004684
        0x0800249e:    4630        0F      MOV      r0,r6
        0x080024a0:    f001f961    ..a.    BL       mqtt_connect ; 0x8003766
        0x080024a4:    b128        (.      CBZ      r0,0x80024b2 ; MQTT_Client_Task + 114
        0x080024a6:    a026        &.      ADR      r0,{pc}+0x9a ; 0x8002540
        0x080024a8:    f000fc5c    ..\.    BL       __0printf$8 ; 0x8002d64
        0x080024ac:    2000        .       MOVS     r0,#0
        0x080024ae:    f004fa35    ..5.    BL       vTaskDelete ; 0x800691c
        0x080024b2:    4b28        (K      LDR      r3,[pc,#160] ; [0x8002554] = 0x8006531
        0x080024b4:    2200        ."      MOVS     r2,#0
        0x080024b6:    a128        (.      ADR      r1,{pc}+0xa2 ; 0x8002558
        0x080024b8:    4630        0F      MOV      r0,r6
        0x080024ba:    f002fae9    ....    BL       mqtt_subscribe ; 0x8004a90
        0x080024be:    4604        .F      MOV      r4,r0
        0x080024c0:    b114        ..      CBZ      r4,0x80024c8 ; MQTT_Client_Task + 136
        0x080024c2:    a027        '.      ADR      r0,{pc}+0x9e ; 0x8002560
        0x080024c4:    f000fc4e    ..N.    BL       __0printf$8 ; 0x8002d64
        0x080024c8:    2300        .#      MOVS     r3,#0
        0x080024ca:    2201        ."      MOVS     r2,#1
        0x080024cc:    a12b        +.      ADR      r1,{pc}+0xb0 ; 0x800257c
        0x080024ce:    4630        0F      MOV      r0,r6
        0x080024d0:    f002fade    ....    BL       mqtt_subscribe ; 0x8004a90
        0x080024d4:    4604        .F      MOV      r4,r0
        0x080024d6:    b114        ..      CBZ      r4,0x80024de ; MQTT_Client_Task + 158
        0x080024d8:    a02a        *.      ADR      r0,{pc}+0xac ; 0x8002584
        0x080024da:    f000fc43    ..C.    BL       __0printf$8 ; 0x8002d64
        0x080024de:    2300        .#      MOVS     r3,#0
        0x080024e0:    2202        ."      MOVS     r2,#2
        0x080024e2:    a12f        /.      ADR      r1,{pc}+0xbe ; 0x80025a0
        0x080024e4:    4630        0F      MOV      r0,r6
        0x080024e6:    f002fad3    ....    BL       mqtt_subscribe ; 0x8004a90
        0x080024ea:    4604        .F      MOV      r4,r0
        0x080024ec:    b114        ..      CBZ      r4,0x80024f4 ; MQTT_Client_Task + 180
        0x080024ee:    a02e        ..      ADR      r0,{pc}+0xba ; 0x80025a8
        0x080024f0:    f000fc38    ..8.    BL       __0printf$8 ; 0x8002d64
        0x080024f4:    a805        ..      ADD      r0,sp,#0x14
        0x080024f6:    9004        ..      STR      r0,[sp,#0x10]
        0x080024f8:    2000        .       MOVS     r0,#0
        0x080024fa:    f88d0004    ....    STRB     r0,[sp,#4]
        0x080024fe:    e012        ..      B        0x8002526 ; MQTT_Client_Task + 230
        0x08002500:    462a        *F      MOV      r2,r5
        0x08002502:    1c6d        m.      ADDS     r5,r5,#1
        0x08002504:    a12f        /.      ADR      r1,{pc}+0xc0 ; 0x80025c4
        0x08002506:    a805        ..      ADD      r0,sp,#0x14
        0x08002508:    f000fc3c    ..<.    BL       __0sprintf$8 ; 0x8002d84
        0x0800250c:    9804        ..      LDR      r0,[sp,#0x10]
        0x0800250e:    f7fdfed1    ....    BL       strlen ; 0x80002b4
        0x08002512:    9003        ..      STR      r0,[sp,#0xc]
        0x08002514:    aa01        ..      ADD      r2,sp,#4
        0x08002516:    a12e        ..      ADR      r1,{pc}+0xba ; 0x80025d0
        0x08002518:    4630        0F      MOV      r0,r6
        0x0800251a:    f001fdb5    ....    BL       mqtt_publish ; 0x8004088
        0x0800251e:    f2413088    A..0    MOV      r0,#0x1388
        0x08002522:    f004f9cd    ....    BL       vTaskDelay ; 0x80068c0
        0x08002526:    e7eb        ..      B        0x8002500 ; MQTT_Client_Task + 192
    $d
        0x08002528:    33383831    1883    DCD    859322417
        0x0800252c:    00000000    ....    DCD    0
        0x08002530:    312e3734    47.1    DCD    825112372
        0x08002534:    312e3431    14.1    DCD    825111601
        0x08002538:    322e3738    87.2    DCD    841889592
        0x0800253c:    00003734    47..    DCD    14132
        0x08002540:    7474716d    mqtt    DCD    1953788269
        0x08002544:    6e6f635f    _con    DCD    1852793695
        0x08002548:    7463656e    nect    DCD    1952671086
        0x0800254c:    72726520     err    DCD    1920099616
        0x08002550:    00000a0d    ....    DCD    2573
        0x08002554:    08006531    1e..    DCD    134243633
        0x08002558:    69706f74    topi    DCD    1768976244
        0x0800255c:    00003163    c1..    DCD    12643
        0x08002560:    7474716d    mqtt    DCD    1953788269
        0x08002564:    6275735f    _sub    DCD    1651864415
        0x08002568:    69726373    scri    DCD    1769104243
        0x0800256c:    74206562    be t    DCD    1948280162
        0x08002570:    6369706f    opic    DCD    1667854447
        0x08002574:    72652031    1 er    DCD    1919230001
        0x08002578:    000a0d72    r...    DCD    658802
        0x0800257c:    69706f74    topi    DCD    1768976244
        0x08002580:    00003263    c2..    DCD    12899
        0x08002584:    7474716d    mqtt    DCD    1953788269
        0x08002588:    6275735f    _sub    DCD    1651864415
        0x0800258c:    69726373    scri    DCD    1769104243
        0x08002590:    74206562    be t    DCD    1948280162
        0x08002594:    6369706f    opic    DCD    1667854447
        0x08002598:    72652032    2 er    DCD    1919230002
        0x0800259c:    000a0d72    r...    DCD    658802
        0x080025a0:    69706f74    topi    DCD    1768976244
        0x080025a4:    00003363    c3..    DCD    13155
        0x080025a8:    7474716d    mqtt    DCD    1953788269
        0x080025ac:    6275735f    _sub    DCD    1651864415
        0x080025b0:    69726373    scri    DCD    1769104243
        0x080025b4:    74206562    be t    DCD    1948280162
        0x080025b8:    6369706f    opic    DCD    1667854447
        0x080025bc:    72652033    3 er    DCD    1919230003
        0x080025c0:    000a0d72    r...    DCD    658802
        0x080025c4:    61303031    100a    DCD    1630548017
        0x080025c8:    202c6b73    sk,     DCD    539782003
        0x080025cc:    00006425    %d..    DCD    25637
        0x080025d0:    5f75636d    mcu_    DCD    1601528685
        0x080025d4:    74736574    test    DCD    1953719668
        0x080025d8:    00000000    ....    DCD    0
    $t
    i.MQTTstrlen
    MQTTstrlen
        0x080025dc:    b537        7.      PUSH     {r0-r2,r4,r5,lr}
        0x080025de:    2400        .$      MOVS     r4,#0
        0x080025e0:    9800        ..      LDR      r0,[sp,#0]
        0x080025e2:    b120         .      CBZ      r0,0x80025ee ; MQTTstrlen + 18
        0x080025e4:    9800        ..      LDR      r0,[sp,#0]
        0x080025e6:    f7fdfe65    ..e.    BL       strlen ; 0x80002b4
        0x080025ea:    4604        .F      MOV      r4,r0
        0x080025ec:    e000        ..      B        0x80025f0 ; MQTTstrlen + 20
        0x080025ee:    9c01        ..      LDR      r4,[sp,#4]
        0x080025f0:    4620         F      MOV      r0,r4
        0x080025f2:    bd3e        >.      POP      {r1-r5,pc}
    i.MX_FREERTOS_Init
    MX_FREERTOS_Init
        0x080025f4:    b510        ..      PUSH     {r4,lr}
        0x080025f6:    4a09        .J      LDR      r2,[pc,#36] ; [0x800261c] = 0x8007f08
        0x080025f8:    2100        .!      MOVS     r1,#0
        0x080025fa:    4809        .H      LDR      r0,[pc,#36] ; [0x8002620] = 0x800285d
        0x080025fc:    f002fe88    ....    BL       osThreadNew ; 0x8005310
        0x08002600:    4908        .I      LDR      r1,[pc,#32] ; [0x8002624] = 0x20000000
        0x08002602:    6008        .`      STR      r0,[r1,#0]
        0x08002604:    4a05        .J      LDR      r2,[pc,#20] ; [0x800261c] = 0x8007f08
        0x08002606:    2100        .!      MOVS     r1,#0
        0x08002608:    4807        .H      LDR      r0,[pc,#28] ; [0x8002628] = 0x80003f1
        0x0800260a:    f002fe81    ....    BL       osThreadNew ; 0x8005310
        0x0800260e:    4a03        .J      LDR      r2,[pc,#12] ; [0x800261c] = 0x8007f08
        0x08002610:    2100        .!      MOVS     r1,#0
        0x08002612:    4806        .H      LDR      r0,[pc,#24] ; [0x800262c] = 0x8002441
        0x08002614:    f002fe7c    ..|.    BL       osThreadNew ; 0x8005310
        0x08002618:    bd10        ..      POP      {r4,pc}
    $d
        0x0800261a:    0000        ..      DCW    0
        0x0800261c:    08007f08    ....    DCD    134250248
        0x08002620:    0800285d    ](..    DCD    134228061
        0x08002624:    20000000    ...     DCD    536870912
        0x08002628:    080003f1    ....    DCD    134218737
        0x0800262c:    08002441    A$..    DCD    134227009
    $t
    i.MX_GPIO_Init
    MX_GPIO_Init
        0x08002630:    b500        ..      PUSH     {lr}
        0x08002632:    b085        ..      SUB      sp,sp,#0x14
        0x08002634:    2000        .       MOVS     r0,#0
        0x08002636:    9001        ..      STR      r0,[sp,#4]
        0x08002638:    9002        ..      STR      r0,[sp,#8]
        0x0800263a:    9003        ..      STR      r0,[sp,#0xc]
        0x0800263c:    9004        ..      STR      r0,[sp,#0x10]
        0x0800263e:    bf00        ..      NOP      
        0x08002640:    483f        ?H      LDR      r0,[pc,#252] ; [0x8002740] = 0x40021000
        0x08002642:    6980        .i      LDR      r0,[r0,#0x18]
        0x08002644:    f0400040    @.@.    ORR      r0,r0,#0x40
        0x08002648:    493d        =I      LDR      r1,[pc,#244] ; [0x8002740] = 0x40021000
        0x0800264a:    6188        .a      STR      r0,[r1,#0x18]
        0x0800264c:    4608        .F      MOV      r0,r1
        0x0800264e:    6980        .i      LDR      r0,[r0,#0x18]
        0x08002650:    f0000040    ..@.    AND      r0,r0,#0x40
        0x08002654:    9000        ..      STR      r0,[sp,#0]
        0x08002656:    bf00        ..      NOP      
        0x08002658:    bf00        ..      NOP      
        0x0800265a:    bf00        ..      NOP      
        0x0800265c:    4608        .F      MOV      r0,r1
        0x0800265e:    6980        .i      LDR      r0,[r0,#0x18]
        0x08002660:    f0400010    @...    ORR      r0,r0,#0x10
        0x08002664:    6188        .a      STR      r0,[r1,#0x18]
        0x08002666:    4608        .F      MOV      r0,r1
        0x08002668:    6980        .i      LDR      r0,[r0,#0x18]
        0x0800266a:    f0000010    ....    AND      r0,r0,#0x10
        0x0800266e:    9000        ..      STR      r0,[sp,#0]
        0x08002670:    bf00        ..      NOP      
        0x08002672:    bf00        ..      NOP      
        0x08002674:    bf00        ..      NOP      
        0x08002676:    4608        .F      MOV      r0,r1
        0x08002678:    6980        .i      LDR      r0,[r0,#0x18]
        0x0800267a:    f0400080    @...    ORR      r0,r0,#0x80
        0x0800267e:    6188        .a      STR      r0,[r1,#0x18]
        0x08002680:    4608        .F      MOV      r0,r1
        0x08002682:    6980        .i      LDR      r0,[r0,#0x18]
        0x08002684:    f0000080    ....    AND      r0,r0,#0x80
        0x08002688:    9000        ..      STR      r0,[sp,#0]
        0x0800268a:    bf00        ..      NOP      
        0x0800268c:    bf00        ..      NOP      
        0x0800268e:    bf00        ..      NOP      
        0x08002690:    4608        .F      MOV      r0,r1
        0x08002692:    6980        .i      LDR      r0,[r0,#0x18]
        0x08002694:    f0400020    @. .    ORR      r0,r0,#0x20
        0x08002698:    6188        .a      STR      r0,[r1,#0x18]
        0x0800269a:    4608        .F      MOV      r0,r1
        0x0800269c:    6980        .i      LDR      r0,[r0,#0x18]
        0x0800269e:    f0000020    .. .    AND      r0,r0,#0x20
        0x080026a2:    9000        ..      STR      r0,[sp,#0]
        0x080026a4:    bf00        ..      NOP      
        0x080026a6:    bf00        ..      NOP      
        0x080026a8:    bf00        ..      NOP      
        0x080026aa:    4608        .F      MOV      r0,r1
        0x080026ac:    6980        .i      LDR      r0,[r0,#0x18]
        0x080026ae:    f0400004    @...    ORR      r0,r0,#4
        0x080026b2:    6188        .a      STR      r0,[r1,#0x18]
        0x080026b4:    4608        .F      MOV      r0,r1
        0x080026b6:    6980        .i      LDR      r0,[r0,#0x18]
        0x080026b8:    f0000004    ....    AND      r0,r0,#4
        0x080026bc:    9000        ..      STR      r0,[sp,#0]
        0x080026be:    bf00        ..      NOP      
        0x080026c0:    bf00        ..      NOP      
        0x080026c2:    2201        ."      MOVS     r2,#1
        0x080026c4:    2140        @!      MOVS     r1,#0x40
        0x080026c6:    481f        .H      LDR      r0,[pc,#124] ; [0x8002744] = 0x40011800
        0x080026c8:    f7fefa76    ..v.    BL       HAL_GPIO_WritePin ; 0x8000bb8
        0x080026cc:    2201        ."      MOVS     r2,#1
        0x080026ce:    f44f6178    O.xa    MOV      r1,#0xf80
        0x080026d2:    481d        .H      LDR      r0,[pc,#116] ; [0x8002748] = 0x40011c00
        0x080026d4:    f7fefa70    ..p.    BL       HAL_GPIO_WritePin ; 0x8000bb8
        0x080026d8:    2201        ."      MOVS     r2,#1
        0x080026da:    2140        @!      MOVS     r1,#0x40
        0x080026dc:    481b        .H      LDR      r0,[pc,#108] ; [0x800274c] = 0x40011000
        0x080026de:    f7fefa6b    ..k.    BL       HAL_GPIO_WritePin ; 0x8000bb8
        0x080026e2:    2040        @       MOVS     r0,#0x40
        0x080026e4:    9001        ..      STR      r0,[sp,#4]
        0x080026e6:    2001        .       MOVS     r0,#1
        0x080026e8:    9002        ..      STR      r0,[sp,#8]
        0x080026ea:    9003        ..      STR      r0,[sp,#0xc]
        0x080026ec:    2003        .       MOVS     r0,#3
        0x080026ee:    9004        ..      STR      r0,[sp,#0x10]
        0x080026f0:    a901        ..      ADD      r1,sp,#4
        0x080026f2:    4814        .H      LDR      r0,[pc,#80] ; [0x8002744] = 0x40011800
        0x080026f4:    f7fef8b8    ....    BL       HAL_GPIO_Init ; 0x8000868
        0x080026f8:    f44f6078    O.x`    MOV      r0,#0xf80
        0x080026fc:    9001        ..      STR      r0,[sp,#4]
        0x080026fe:    2001        .       MOVS     r0,#1
        0x08002700:    9002        ..      STR      r0,[sp,#8]
        0x08002702:    9003        ..      STR      r0,[sp,#0xc]
        0x08002704:    2003        .       MOVS     r0,#3
        0x08002706:    9004        ..      STR      r0,[sp,#0x10]
        0x08002708:    a901        ..      ADD      r1,sp,#4
        0x0800270a:    480f        .H      LDR      r0,[pc,#60] ; [0x8002748] = 0x40011c00
        0x0800270c:    f7fef8ac    ....    BL       HAL_GPIO_Init ; 0x8000868
        0x08002710:    f44f4040    O.@@    MOV      r0,#0xc000
        0x08002714:    9001        ..      STR      r0,[sp,#4]
        0x08002716:    2000        .       MOVS     r0,#0
        0x08002718:    9002        ..      STR      r0,[sp,#8]
        0x0800271a:    2001        .       MOVS     r0,#1
        0x0800271c:    9003        ..      STR      r0,[sp,#0xc]
        0x0800271e:    a901        ..      ADD      r1,sp,#4
        0x08002720:    4808        .H      LDR      r0,[pc,#32] ; [0x8002744] = 0x40011800
        0x08002722:    f7fef8a1    ....    BL       HAL_GPIO_Init ; 0x8000868
        0x08002726:    2040        @       MOVS     r0,#0x40
        0x08002728:    9001        ..      STR      r0,[sp,#4]
        0x0800272a:    2001        .       MOVS     r0,#1
        0x0800272c:    9002        ..      STR      r0,[sp,#8]
        0x0800272e:    9003        ..      STR      r0,[sp,#0xc]
        0x08002730:    2003        .       MOVS     r0,#3
        0x08002732:    9004        ..      STR      r0,[sp,#0x10]
        0x08002734:    a901        ..      ADD      r1,sp,#4
        0x08002736:    4805        .H      LDR      r0,[pc,#20] ; [0x800274c] = 0x40011000
        0x08002738:    f7fef896    ....    BL       HAL_GPIO_Init ; 0x8000868
        0x0800273c:    b005        ..      ADD      sp,sp,#0x14
        0x0800273e:    bd00        ..      POP      {pc}
    $d
        0x08002740:    40021000    ...@    DCD    1073876992
        0x08002744:    40011800    ...@    DCD    1073813504
        0x08002748:    40011c00    ...@    DCD    1073814528
        0x0800274c:    40011000    ...@    DCD    1073811456
    $t
    i.MX_USART1_UART_Init
    MX_USART1_UART_Init
        0x08002750:    b510        ..      PUSH     {r4,lr}
        0x08002752:    480b        .H      LDR      r0,[pc,#44] ; [0x8002780] = 0x40013800
        0x08002754:    490b        .I      LDR      r1,[pc,#44] ; [0x8002784] = 0x200004c0
        0x08002756:    6008        .`      STR      r0,[r1,#0]
        0x08002758:    f44f30e1    O..0    MOV      r0,#0x1c200
        0x0800275c:    6048        H`      STR      r0,[r1,#4]
        0x0800275e:    2100        .!      MOVS     r1,#0
        0x08002760:    4808        .H      LDR      r0,[pc,#32] ; [0x8002784] = 0x200004c0
        0x08002762:    6081        .`      STR      r1,[r0,#8]
        0x08002764:    60c1        .`      STR      r1,[r0,#0xc]
        0x08002766:    6101        .a      STR      r1,[r0,#0x10]
        0x08002768:    210c        .!      MOVS     r1,#0xc
        0x0800276a:    6141        Aa      STR      r1,[r0,#0x14]
        0x0800276c:    2100        .!      MOVS     r1,#0
        0x0800276e:    6181        .a      STR      r1,[r0,#0x18]
        0x08002770:    61c1        .a      STR      r1,[r0,#0x1c]
        0x08002772:    f7fff92f    ../.    BL       HAL_UART_Init ; 0x80019d4
        0x08002776:    b108        ..      CBZ      r0,0x800277c ; MX_USART1_UART_Init + 44
        0x08002778:    f7fdff20    .. .    BL       Error_Handler ; 0x80005bc
        0x0800277c:    bd10        ..      POP      {r4,pc}
    $d
        0x0800277e:    0000        ..      DCW    0
        0x08002780:    40013800    .8.@    DCD    1073821696
        0x08002784:    200004c0    ...     DCD    536872128
    $t
    i.MX_USART3_UART_Init
    MX_USART3_UART_Init
        0x08002788:    b510        ..      PUSH     {r4,lr}
        0x0800278a:    480b        .H      LDR      r0,[pc,#44] ; [0x80027b8] = 0x40004800
        0x0800278c:    490b        .I      LDR      r1,[pc,#44] ; [0x80027bc] = 0x20000504
        0x0800278e:    6008        .`      STR      r0,[r1,#0]
        0x08002790:    f44f30e1    O..0    MOV      r0,#0x1c200
        0x08002794:    6048        H`      STR      r0,[r1,#4]
        0x08002796:    2100        .!      MOVS     r1,#0
        0x08002798:    4808        .H      LDR      r0,[pc,#32] ; [0x80027bc] = 0x20000504
        0x0800279a:    6081        .`      STR      r1,[r0,#8]
        0x0800279c:    60c1        .`      STR      r1,[r0,#0xc]
        0x0800279e:    6101        .a      STR      r1,[r0,#0x10]
        0x080027a0:    210c        .!      MOVS     r1,#0xc
        0x080027a2:    6141        Aa      STR      r1,[r0,#0x14]
        0x080027a4:    2100        .!      MOVS     r1,#0
        0x080027a6:    6181        .a      STR      r1,[r0,#0x18]
        0x080027a8:    61c1        .a      STR      r1,[r0,#0x1c]
        0x080027aa:    f7fff913    ....    BL       HAL_UART_Init ; 0x80019d4
        0x080027ae:    b108        ..      CBZ      r0,0x80027b4 ; MX_USART3_UART_Init + 44
        0x080027b0:    f7fdff04    ....    BL       Error_Handler ; 0x80005bc
        0x080027b4:    bd10        ..      POP      {r4,pc}
    $d
        0x080027b6:    0000        ..      DCW    0
        0x080027b8:    40004800    .H.@    DCD    1073760256
        0x080027bc:    20000504    ...     DCD    536872196
    $t
    i.MemManage_Handler
    MemManage_Handler
        0x080027c0:    bf00        ..      NOP      
        0x080027c2:    e7fe        ..      B        0x80027c2 ; MemManage_Handler + 2
    i.NMI_Handler
    NMI_Handler
        0x080027c4:    bf00        ..      NOP      
        0x080027c6:    e7fe        ..      B        0x80027c6 ; NMI_Handler + 2
    i.ProcessSpecialATString
    ProcessSpecialATString
        0x080027c8:    b570        p.      PUSH     {r4-r6,lr}
        0x080027ca:    4605        .F      MOV      r5,r0
        0x080027cc:    2400        .$      MOVS     r4,#0
        0x080027ce:    2600        .&      MOVS     r6,#0
        0x080027d0:    bf00        ..      NOP      
        0x080027d2:    e00f        ..      B        0x80027f4 ; ProcessSpecialATString + 44
        0x080027d4:    1928        (.      ADDS     r0,r5,r4
        0x080027d6:    f04f31ff    O..1    MOV      r1,#0xffffffff
        0x080027da:    f7fdff09    ....    BL       HAL_AT_Secv ; 0x80005f0
        0x080027de:    5d28        (]      LDRB     r0,[r5,r4]
        0x080027e0:    283a        :(      CMP      r0,#0x3a
        0x080027e2:    d100        ..      BNE      0x80027e6 ; ProcessSpecialATString + 30
        0x080027e4:    e007        ..      B        0x80027f6 ; ProcessSpecialATString + 46
        0x080027e6:    5d28        (]      LDRB     r0,[r5,r4]
        0x080027e8:    3830        08      SUBS     r0,r0,#0x30
        0x080027ea:    eb060186    ....    ADD      r1,r6,r6,LSL #2
        0x080027ee:    eb000641    ..A.    ADD      r6,r0,r1,LSL #1
        0x080027f2:    1c64        d.      ADDS     r4,r4,#1
        0x080027f4:    e7ee        ..      B        0x80027d4 ; ProcessSpecialATString + 12
        0x080027f6:    bf00        ..      NOP      
        0x080027f8:    2400        .$      MOVS     r4,#0
        0x080027fa:    e00e        ..      B        0x800281a ; ProcessSpecialATString + 82
        0x080027fc:    1928        (.      ADDS     r0,r5,r4
        0x080027fe:    f04f31ff    O..1    MOV      r1,#0xffffffff
        0x08002802:    f7fdfef5    ....    BL       HAL_AT_Secv ; 0x80005f0
        0x08002806:    2c64        d,      CMP      r4,#0x64
        0x08002808:    da06        ..      BGE      0x8002818 ; ProcessSpecialATString + 80
        0x0800280a:    5d28        (]      LDRB     r0,[r5,r4]
        0x0800280c:    4904        .I      LDR      r1,[pc,#16] ; [0x8002820] = 0x2000b264
        0x0800280e:    f003fe80    ....    BL       ring_buffer_write ; 0x8006512
        0x08002812:    4804        .H      LDR      r0,[pc,#16] ; [0x8002824] = 0x200000a4
        0x08002814:    f002fe1d    ....    BL       platform_mutex_unlock ; 0x8005452
        0x08002818:    1c64        d.      ADDS     r4,r4,#1
        0x0800281a:    42b4        .B      CMP      r4,r6
        0x0800281c:    dbee        ..      BLT      0x80027fc ; ProcessSpecialATString + 52
        0x0800281e:    bd70        p.      POP      {r4-r6,pc}
    $d
        0x08002820:    2000b264    d..     DCD    536916580
        0x08002824:    200000a4    ...     DCD    536871076
    $t
    i.RCC_Delay
    RCC_Delay
        0x08002828:    b508        ..      PUSH     {r3,lr}
        0x0800282a:    4908        .I      LDR      r1,[pc,#32] ; [0x800284c] = 0x20000010
        0x0800282c:    6809        .h      LDR      r1,[r1,#0]
        0x0800282e:    08c9        ..      LSRS     r1,r1,#3
        0x08002830:    f44f727a    O.zr    MOV      r2,#0x3e8
        0x08002834:    fbb1f1f2    ....    UDIV     r1,r1,r2
        0x08002838:    4341        AC      MULS     r1,r0,r1
        0x0800283a:    9100        ..      STR      r1,[sp,#0]
        0x0800283c:    bf00        ..      NOP      
        0x0800283e:    bf00        ..      NOP      
        0x08002840:    9900        ..      LDR      r1,[sp,#0]
        0x08002842:    1e4a        J.      SUBS     r2,r1,#1
        0x08002844:    9200        ..      STR      r2,[sp,#0]
        0x08002846:    2900        .)      CMP      r1,#0
        0x08002848:    d1f9        ..      BNE      0x800283e ; RCC_Delay + 22
        0x0800284a:    bd08        ..      POP      {r3,pc}
    $d
        0x0800284c:    20000010    ...     DCD    536870928
    $t
    i.SetATStatus
    SetATStatus
        0x08002850:    4901        .I      LDR      r1,[pc,#4] ; [0x8002858] = 0x200000a8
        0x08002852:    6008        .`      STR      r0,[r1,#0]
        0x08002854:    4770        pG      BX       lr
    $d
        0x08002856:    0000        ..      DCW    0
        0x08002858:    200000a8    ...     DCD    536871080
    $t
    i.StartDefaultTask
    StartDefaultTask
        0x0800285c:    a003        ..      ADR      r0,{pc}+0x10 ; 0x800286c
        0x0800285e:    f000fa81    ....    BL       __0printf$8 ; 0x8002d64
        0x08002862:    bf00        ..      NOP      
        0x08002864:    2001        .       MOVS     r0,#1
        0x08002866:    f002fcf5    ....    BL       osDelay ; 0x8005254
        0x0800286a:    e7fb        ..      B        0x8002864 ; StartDefaultTask + 8
    $d
        0x0800286c:    72617453    Star    DCD    1918989395
        0x08002870:    66654474    tDef    DCD    1717912692
        0x08002874:    746c7561    ault    DCD    1953264993
        0x08002878:    6b736154    Task    DCD    1802723668
        0x0800287c:    00000a0d    ....    DCD    2573
    $t
    i.SysTick_Handler
    SysTick_Handler
        0x08002880:    b510        ..      PUSH     {r4,lr}
        0x08002882:    bf00        ..      NOP      
        0x08002884:    2050        P       MOVS     r0,#0x50
        0x08002886:    f3808811    ....    MSR      BASEPRI,r0
        0x0800288a:    f3bf8f4f    ..O.    DSB      
        0x0800288e:    f3bf8f6f    ..o.    ISB      
        0x08002892:    bf00        ..      NOP      
        0x08002894:    f005f8a6    ....    BL       xTaskIncrementTick ; 0x80079e4
        0x08002898:    b118        ..      CBZ      r0,0x80028a2 ; SysTick_Handler + 34
        0x0800289a:    f04f5080    O..P    MOV      r0,#0x10000000
        0x0800289e:    4904        .I      LDR      r1,[pc,#16] ; [0x80028b0] = 0xe000ed04
        0x080028a0:    6008        .`      STR      r0,[r1,#0]
        0x080028a2:    bf00        ..      NOP      
        0x080028a4:    2000        .       MOVS     r0,#0
        0x080028a6:    f3808811    ....    MSR      BASEPRI,r0
        0x080028aa:    bf00        ..      NOP      
        0x080028ac:    bd10        ..      POP      {r4,pc}
    $d
        0x080028ae:    0000        ..      DCW    0
        0x080028b0:    e000ed04    ....    DCD    3758157060
    $t
    i.SystemClock_Config
    SystemClock_Config
        0x080028b4:    b500        ..      PUSH     {lr}
        0x080028b6:    b08f        ..      SUB      sp,sp,#0x3c
        0x080028b8:    2128        (!      MOVS     r1,#0x28
        0x080028ba:    a805        ..      ADD      r0,sp,#0x14
        0x080028bc:    f7fdfcdd    ....    BL       __aeabi_memclr ; 0x800027a
        0x080028c0:    2114        .!      MOVS     r1,#0x14
        0x080028c2:    4668        hF      MOV      r0,sp
        0x080028c4:    f7fdfcd9    ....    BL       __aeabi_memclr ; 0x800027a
        0x080028c8:    2001        .       MOVS     r0,#1
        0x080028ca:    9005        ..      STR      r0,[sp,#0x14]
        0x080028cc:    0400        ..      LSLS     r0,r0,#16
        0x080028ce:    9006        ..      STR      r0,[sp,#0x18]
        0x080028d0:    2000        .       MOVS     r0,#0
        0x080028d2:    9007        ..      STR      r0,[sp,#0x1c]
        0x080028d4:    2001        .       MOVS     r0,#1
        0x080028d6:    9009        ..      STR      r0,[sp,#0x24]
        0x080028d8:    2002        .       MOVS     r0,#2
        0x080028da:    900c        ..      STR      r0,[sp,#0x30]
        0x080028dc:    03c1        ..      LSLS     r1,r0,#15
        0x080028de:    910d        ..      STR      r1,[sp,#0x34]
        0x080028e0:    f44f11e0    O...    MOV      r1,#0x1c0000
        0x080028e4:    910e        ..      STR      r1,[sp,#0x38]
        0x080028e6:    a805        ..      ADD      r0,sp,#0x14
        0x080028e8:    f7fefbc0    ....    BL       HAL_RCC_OscConfig ; 0x800106c
        0x080028ec:    b108        ..      CBZ      r0,0x80028f2 ; SystemClock_Config + 62
        0x080028ee:    f7fdfe65    ..e.    BL       Error_Handler ; 0x80005bc
        0x080028f2:    200f        .       MOVS     r0,#0xf
        0x080028f4:    9000        ..      STR      r0,[sp,#0]
        0x080028f6:    2002        .       MOVS     r0,#2
        0x080028f8:    9001        ..      STR      r0,[sp,#4]
        0x080028fa:    2000        .       MOVS     r0,#0
        0x080028fc:    9002        ..      STR      r0,[sp,#8]
        0x080028fe:    f44f6080    O..`    MOV      r0,#0x400
        0x08002902:    9003        ..      STR      r0,[sp,#0xc]
        0x08002904:    2000        .       MOVS     r0,#0
        0x08002906:    9004        ..      STR      r0,[sp,#0x10]
        0x08002908:    2102        .!      MOVS     r1,#2
        0x0800290a:    4668        hF      MOV      r0,sp
        0x0800290c:    f7fefa56    ..V.    BL       HAL_RCC_ClockConfig ; 0x8000dbc
        0x08002910:    b108        ..      CBZ      r0,0x8002916 ; SystemClock_Config + 98
        0x08002912:    f7fdfe53    ..S.    BL       Error_Handler ; 0x80005bc
        0x08002916:    b00f        ..      ADD      sp,sp,#0x3c
        0x08002918:    bd00        ..      POP      {pc}
    i.SystemInit
    SystemInit
        0x0800291a:    4770        pG      BX       lr
    i.TIM8_UP_IRQHandler
    TIM8_UP_IRQHandler
        0x0800291c:    b510        ..      PUSH     {r4,lr}
        0x0800291e:    4802        .H      LDR      r0,[pc,#8] ; [0x8002928] = 0x20000548
        0x08002920:    f7fefe55    ..U.    BL       HAL_TIM_IRQHandler ; 0x80015ce
        0x08002924:    bd10        ..      POP      {r4,pc}
    $d
        0x08002926:    0000        ..      DCW    0
        0x08002928:    20000548    H..     DCD    536872264
    $t
    i.TIM_Base_SetConfig
    TIM_Base_SetConfig
        0x0800292c:    b510        ..      PUSH     {r4,lr}
        0x0800292e:    6802        .h      LDR      r2,[r0,#0]
        0x08002930:    4b20         K      LDR      r3,[pc,#128] ; [0x80029b4] = 0x40012c00
        0x08002932:    4298        .B      CMP      r0,r3
        0x08002934:    d00e        ..      BEQ      0x8002954 ; TIM_Base_SetConfig + 40
        0x08002936:    4b20         K      LDR      r3,[pc,#128] ; [0x80029b8] = 0x40013400
        0x08002938:    4298        .B      CMP      r0,r3
        0x0800293a:    d00b        ..      BEQ      0x8002954 ; TIM_Base_SetConfig + 40
        0x0800293c:    f1b04f80    ...O    CMP      r0,#0x40000000
        0x08002940:    d008        ..      BEQ      0x8002954 ; TIM_Base_SetConfig + 40
        0x08002942:    4b1e        .K      LDR      r3,[pc,#120] ; [0x80029bc] = 0x40000400
        0x08002944:    4298        .B      CMP      r0,r3
        0x08002946:    d005        ..      BEQ      0x8002954 ; TIM_Base_SetConfig + 40
        0x08002948:    4b1d        .K      LDR      r3,[pc,#116] ; [0x80029c0] = 0x40000800
        0x0800294a:    4298        .B      CMP      r0,r3
        0x0800294c:    d002        ..      BEQ      0x8002954 ; TIM_Base_SetConfig + 40
        0x0800294e:    4b1d        .K      LDR      r3,[pc,#116] ; [0x80029c4] = 0x40000c00
        0x08002950:    4298        .B      CMP      r0,r3
        0x08002952:    d103        ..      BNE      0x800295c ; TIM_Base_SetConfig + 48
        0x08002954:    f0220270    ".p.    BIC      r2,r2,#0x70
        0x08002958:    684b        Kh      LDR      r3,[r1,#4]
        0x0800295a:    431a        .C      ORRS     r2,r2,r3
        0x0800295c:    4b15        .K      LDR      r3,[pc,#84] ; [0x80029b4] = 0x40012c00
        0x0800295e:    4298        .B      CMP      r0,r3
        0x08002960:    d00e        ..      BEQ      0x8002980 ; TIM_Base_SetConfig + 84
        0x08002962:    4b15        .K      LDR      r3,[pc,#84] ; [0x80029b8] = 0x40013400
        0x08002964:    4298        .B      CMP      r0,r3
        0x08002966:    d00b        ..      BEQ      0x8002980 ; TIM_Base_SetConfig + 84
        0x08002968:    f1b04f80    ...O    CMP      r0,#0x40000000
        0x0800296c:    d008        ..      BEQ      0x8002980 ; TIM_Base_SetConfig + 84
        0x0800296e:    4b13        .K      LDR      r3,[pc,#76] ; [0x80029bc] = 0x40000400
        0x08002970:    4298        .B      CMP      r0,r3
        0x08002972:    d005        ..      BEQ      0x8002980 ; TIM_Base_SetConfig + 84
        0x08002974:    4b12        .K      LDR      r3,[pc,#72] ; [0x80029c0] = 0x40000800
        0x08002976:    4298        .B      CMP      r0,r3
        0x08002978:    d002        ..      BEQ      0x8002980 ; TIM_Base_SetConfig + 84
        0x0800297a:    4b12        .K      LDR      r3,[pc,#72] ; [0x80029c4] = 0x40000c00
        0x0800297c:    4298        .B      CMP      r0,r3
        0x0800297e:    d103        ..      BNE      0x8002988 ; TIM_Base_SetConfig + 92
        0x08002980:    f4227240    ".@r    BIC      r2,r2,#0x300
        0x08002984:    68cb        .h      LDR      r3,[r1,#0xc]
        0x08002986:    431a        .C      ORRS     r2,r2,r3
        0x08002988:    f0220380    "...    BIC      r3,r2,#0x80
        0x0800298c:    694c        Li      LDR      r4,[r1,#0x14]
        0x0800298e:    ea430204    C...    ORR      r2,r3,r4
        0x08002992:    6002        .`      STR      r2,[r0,#0]
        0x08002994:    688b        .h      LDR      r3,[r1,#8]
        0x08002996:    62c3        .b      STR      r3,[r0,#0x2c]
        0x08002998:    680b        .h      LDR      r3,[r1,#0]
        0x0800299a:    6283        .b      STR      r3,[r0,#0x28]
        0x0800299c:    4b05        .K      LDR      r3,[pc,#20] ; [0x80029b4] = 0x40012c00
        0x0800299e:    4298        .B      CMP      r0,r3
        0x080029a0:    d002        ..      BEQ      0x80029a8 ; TIM_Base_SetConfig + 124
        0x080029a2:    4b05        .K      LDR      r3,[pc,#20] ; [0x80029b8] = 0x40013400
        0x080029a4:    4298        .B      CMP      r0,r3
        0x080029a6:    d101        ..      BNE      0x80029ac ; TIM_Base_SetConfig + 128
        0x080029a8:    690b        .i      LDR      r3,[r1,#0x10]
        0x080029aa:    6303        .c      STR      r3,[r0,#0x30]
        0x080029ac:    2301        .#      MOVS     r3,#1
        0x080029ae:    6143        Ca      STR      r3,[r0,#0x14]
        0x080029b0:    bd10        ..      POP      {r4,pc}
    $d
        0x080029b2:    0000        ..      DCW    0
        0x080029b4:    40012c00    .,.@    DCD    1073818624
        0x080029b8:    40013400    .4.@    DCD    1073820672
        0x080029bc:    40000400    ...@    DCD    1073742848
        0x080029c0:    40000800    ...@    DCD    1073743872
        0x080029c4:    40000c00    ...@    DCD    1073744896
    $t
    i.UART3_Lock_Init
    UART3_Lock_Init
        0x080029c8:    b510        ..      PUSH     {r4,lr}
        0x080029ca:    4805        .H      LDR      r0,[pc,#20] ; [0x80029e0] = 0x200000ac
        0x080029cc:    f002fd21    ..!.    BL       platform_mutex_init ; 0x8005412
        0x080029d0:    4803        .H      LDR      r0,[pc,#12] ; [0x80029e0] = 0x200000ac
        0x080029d2:    f002fd2e    ....    BL       platform_mutex_lock ; 0x8005432
        0x080029d6:    4803        .H      LDR      r0,[pc,#12] ; [0x80029e4] = 0x2000b6d0
        0x080029d8:    f003fd83    ....    BL       ring_buffer_init ; 0x80064e2
        0x080029dc:    bd10        ..      POP      {r4,pc}
    $d
        0x080029de:    0000        ..      DCW    0
        0x080029e0:    200000ac    ...     DCD    536871084
        0x080029e4:    2000b6d0    ...     DCD    536917712
    $t
    i.UART_DMAAbortOnError
    UART_DMAAbortOnError
        0x080029e8:    b570        p.      PUSH     {r4-r6,lr}
        0x080029ea:    4605        .F      MOV      r5,r0
        0x080029ec:    6a6c        lj      LDR      r4,[r5,#0x24]
        0x080029ee:    2000        .       MOVS     r0,#0
        0x080029f0:    85e0        ..      STRH     r0,[r4,#0x2e]
        0x080029f2:    84e0        ..      STRH     r0,[r4,#0x26]
        0x080029f4:    4620         F      MOV      r0,r4
        0x080029f6:    f7fefec5    ....    BL       HAL_UART_ErrorCallback ; 0x8001784
        0x080029fa:    bd70        p.      POP      {r4-r6,pc}
    i.UART_EndRxTransfer
    UART_EndRxTransfer
        0x080029fc:    6801        .h      LDR      r1,[r0,#0]
        0x080029fe:    68c9        .h      LDR      r1,[r1,#0xc]
        0x08002a00:    f4217190    !..q    BIC      r1,r1,#0x120
        0x08002a04:    6802        .h      LDR      r2,[r0,#0]
        0x08002a06:    60d1        .`      STR      r1,[r2,#0xc]
        0x08002a08:    6801        .h      LDR      r1,[r0,#0]
        0x08002a0a:    6949        Ii      LDR      r1,[r1,#0x14]
        0x08002a0c:    f0210101    !...    BIC      r1,r1,#1
        0x08002a10:    6802        .h      LDR      r2,[r0,#0]
        0x08002a12:    6151        Qa      STR      r1,[r2,#0x14]
        0x08002a14:    6b01        .k      LDR      r1,[r0,#0x30]
        0x08002a16:    2901        .)      CMP      r1,#1
        0x08002a18:    d105        ..      BNE      0x8002a26 ; UART_EndRxTransfer + 42
        0x08002a1a:    6801        .h      LDR      r1,[r0,#0]
        0x08002a1c:    68c9        .h      LDR      r1,[r1,#0xc]
        0x08002a1e:    f0210110    !...    BIC      r1,r1,#0x10
        0x08002a22:    6802        .h      LDR      r2,[r0,#0]
        0x08002a24:    60d1        .`      STR      r1,[r2,#0xc]
        0x08002a26:    2120         !      MOVS     r1,#0x20
        0x08002a28:    f880103e    ..>.    STRB     r1,[r0,#0x3e]
        0x08002a2c:    2100        .!      MOVS     r1,#0
        0x08002a2e:    6301        .c      STR      r1,[r0,#0x30]
        0x08002a30:    4770        pG      BX       lr
    i.UART_EndTransmit_IT
    UART_EndTransmit_IT
        0x08002a32:    b510        ..      PUSH     {r4,lr}
        0x08002a34:    4604        .F      MOV      r4,r0
        0x08002a36:    6820         h      LDR      r0,[r4,#0]
        0x08002a38:    68c0        .h      LDR      r0,[r0,#0xc]
        0x08002a3a:    f0200040     .@.    BIC      r0,r0,#0x40
        0x08002a3e:    6821        !h      LDR      r1,[r4,#0]
        0x08002a40:    60c8        .`      STR      r0,[r1,#0xc]
        0x08002a42:    2020                MOVS     r0,#0x20
        0x08002a44:    f884003d    ..=.    STRB     r0,[r4,#0x3d]
        0x08002a48:    4620         F      MOV      r0,r4
        0x08002a4a:    f7fff8c7    ....    BL       HAL_UART_TxCpltCallback ; 0x8001bdc
        0x08002a4e:    2000        .       MOVS     r0,#0
        0x08002a50:    bd10        ..      POP      {r4,pc}
    i.UART_Receive_IT
    UART_Receive_IT
        0x08002a52:    b5f8        ..      PUSH     {r3-r7,lr}
        0x08002a54:    4604        .F      MOV      r4,r0
        0x08002a56:    f894003e    ..>.    LDRB     r0,[r4,#0x3e]
        0x08002a5a:    2822        "(      CMP      r0,#0x22
        0x08002a5c:    d169        i.      BNE      0x8002b32 ; UART_Receive_IT + 224
        0x08002a5e:    68a0        .h      LDR      r0,[r4,#8]
        0x08002a60:    f5b05f80    ..._    CMP      r0,#0x1000
        0x08002a64:    d10c        ..      BNE      0x8002a80 ; UART_Receive_IT + 46
        0x08002a66:    6920         i      LDR      r0,[r4,#0x10]
        0x08002a68:    b950        P.      CBNZ     r0,0x8002a80 ; UART_Receive_IT + 46
        0x08002a6a:    2500        .%      MOVS     r5,#0
        0x08002a6c:    6aa6        .j      LDR      r6,[r4,#0x28]
        0x08002a6e:    6820         h      LDR      r0,[r4,#0]
        0x08002a70:    6840        @h      LDR      r0,[r0,#4]
        0x08002a72:    f3c00008    ....    UBFX     r0,r0,#0,#9
        0x08002a76:    8030        0.      STRH     r0,[r6,#0]
        0x08002a78:    6aa0        .j      LDR      r0,[r4,#0x28]
        0x08002a7a:    1c80        ..      ADDS     r0,r0,#2
        0x08002a7c:    62a0        .b      STR      r0,[r4,#0x28]
        0x08002a7e:    e015        ..      B        0x8002aac ; UART_Receive_IT + 90
        0x08002a80:    6aa5        .j      LDR      r5,[r4,#0x28]
        0x08002a82:    2600        .&      MOVS     r6,#0
        0x08002a84:    68a0        .h      LDR      r0,[r4,#8]
        0x08002a86:    f5b05f80    ..._    CMP      r0,#0x1000
        0x08002a8a:    d003        ..      BEQ      0x8002a94 ; UART_Receive_IT + 66
        0x08002a8c:    68a0        .h      LDR      r0,[r4,#8]
        0x08002a8e:    b928        (.      CBNZ     r0,0x8002a9c ; UART_Receive_IT + 74
        0x08002a90:    6920         i      LDR      r0,[r4,#0x10]
        0x08002a92:    b918        ..      CBNZ     r0,0x8002a9c ; UART_Receive_IT + 74
        0x08002a94:    6820         h      LDR      r0,[r4,#0]
        0x08002a96:    6840        @h      LDR      r0,[r0,#4]
        0x08002a98:    7028        (p      STRB     r0,[r5,#0]
        0x08002a9a:    e004        ..      B        0x8002aa6 ; UART_Receive_IT + 84
        0x08002a9c:    6820         h      LDR      r0,[r4,#0]
        0x08002a9e:    6840        @h      LDR      r0,[r0,#4]
        0x08002aa0:    f000007f    ....    AND      r0,r0,#0x7f
        0x08002aa4:    7028        (p      STRB     r0,[r5,#0]
        0x08002aa6:    6aa0        .j      LDR      r0,[r4,#0x28]
        0x08002aa8:    1c40        @.      ADDS     r0,r0,#1
        0x08002aaa:    62a0        .b      STR      r0,[r4,#0x28]
        0x08002aac:    8de0        ..      LDRH     r0,[r4,#0x2e]
        0x08002aae:    1e40        @.      SUBS     r0,r0,#1
        0x08002ab0:    b280        ..      UXTH     r0,r0
        0x08002ab2:    85e0        ..      STRH     r0,[r4,#0x2e]
        0x08002ab4:    bba8        ..      CBNZ     r0,0x8002b22 ; UART_Receive_IT + 208
        0x08002ab6:    6820         h      LDR      r0,[r4,#0]
        0x08002ab8:    68c0        .h      LDR      r0,[r0,#0xc]
        0x08002aba:    f0200020     . .    BIC      r0,r0,#0x20
        0x08002abe:    6821        !h      LDR      r1,[r4,#0]
        0x08002ac0:    60c8        .`      STR      r0,[r1,#0xc]
        0x08002ac2:    6820         h      LDR      r0,[r4,#0]
        0x08002ac4:    68c0        .h      LDR      r0,[r0,#0xc]
        0x08002ac6:    f4207080     ..p    BIC      r0,r0,#0x100
        0x08002aca:    6821        !h      LDR      r1,[r4,#0]
        0x08002acc:    60c8        .`      STR      r0,[r1,#0xc]
        0x08002ace:    6820         h      LDR      r0,[r4,#0]
        0x08002ad0:    6940        @i      LDR      r0,[r0,#0x14]
        0x08002ad2:    f0200001     ...    BIC      r0,r0,#1
        0x08002ad6:    6821        !h      LDR      r1,[r4,#0]
        0x08002ad8:    6148        Ha      STR      r0,[r1,#0x14]
        0x08002ada:    2020                MOVS     r0,#0x20
        0x08002adc:    f884003e    ..>.    STRB     r0,[r4,#0x3e]
        0x08002ae0:    6b20         k      LDR      r0,[r4,#0x30]
        0x08002ae2:    2801        .(      CMP      r0,#1
        0x08002ae4:    d11e        ..      BNE      0x8002b24 ; UART_Receive_IT + 210
        0x08002ae6:    2000        .       MOVS     r0,#0
        0x08002ae8:    6320         c      STR      r0,[r4,#0x30]
        0x08002aea:    6820         h      LDR      r0,[r4,#0]
        0x08002aec:    68c0        .h      LDR      r0,[r0,#0xc]
        0x08002aee:    f0200010     ...    BIC      r0,r0,#0x10
        0x08002af2:    6821        !h      LDR      r1,[r4,#0]
        0x08002af4:    60c8        .`      STR      r0,[r1,#0xc]
        0x08002af6:    6820         h      LDR      r0,[r4,#0]
        0x08002af8:    6800        .h      LDR      r0,[r0,#0]
        0x08002afa:    f0000010    ....    AND      r0,r0,#0x10
        0x08002afe:    2810        .(      CMP      r0,#0x10
        0x08002b00:    d10a        ..      BNE      0x8002b18 ; UART_Receive_IT + 198
        0x08002b02:    bf00        ..      NOP      
        0x08002b04:    2000        .       MOVS     r0,#0
        0x08002b06:    9000        ..      STR      r0,[sp,#0]
        0x08002b08:    6820         h      LDR      r0,[r4,#0]
        0x08002b0a:    6800        .h      LDR      r0,[r0,#0]
        0x08002b0c:    9000        ..      STR      r0,[sp,#0]
        0x08002b0e:    6820         h      LDR      r0,[r4,#0]
        0x08002b10:    6840        @h      LDR      r0,[r0,#4]
        0x08002b12:    9000        ..      STR      r0,[sp,#0]
        0x08002b14:    bf00        ..      NOP      
        0x08002b16:    bf00        ..      NOP      
        0x08002b18:    8da1        ..      LDRH     r1,[r4,#0x2c]
        0x08002b1a:    4620         F      MOV      r0,r4
        0x08002b1c:    f7fefe31    ..1.    BL       HAL_UARTEx_RxEventCallback ; 0x8001782
        0x08002b20:    e003        ..      B        0x8002b2a ; UART_Receive_IT + 216
        0x08002b22:    e004        ..      B        0x8002b2e ; UART_Receive_IT + 220
        0x08002b24:    4620         F      MOV      r0,r4
        0x08002b26:    f7fff821    ..!.    BL       HAL_UART_RxCpltCallback ; 0x8001b6c
        0x08002b2a:    2000        .       MOVS     r0,#0
        0x08002b2c:    bdf8        ..      POP      {r3-r7,pc}
        0x08002b2e:    2000        .       MOVS     r0,#0
        0x08002b30:    e7fc        ..      B        0x8002b2c ; UART_Receive_IT + 218
        0x08002b32:    2002        .       MOVS     r0,#2
        0x08002b34:    e7fa        ..      B        0x8002b2c ; UART_Receive_IT + 218
        0x08002b36:    0000        ..      MOVS     r0,r0
    i.UART_SetConfig
    UART_SetConfig
        0x08002b38:    b570        p.      PUSH     {r4-r6,lr}
        0x08002b3a:    4604        .F      MOV      r4,r0
        0x08002b3c:    6821        !h      LDR      r1,[r4,#0]
        0x08002b3e:    6909        .i      LDR      r1,[r1,#0x10]
        0x08002b40:    f4215140    !.@Q    BIC      r1,r1,#0x3000
        0x08002b44:    68e2        .h      LDR      r2,[r4,#0xc]
        0x08002b46:    4311        .C      ORRS     r1,r1,r2
        0x08002b48:    6822        "h      LDR      r2,[r4,#0]
        0x08002b4a:    6111        .a      STR      r1,[r2,#0x10]
        0x08002b4c:    6922        "i      LDR      r2,[r4,#0x10]
        0x08002b4e:    68a1        .h      LDR      r1,[r4,#8]
        0x08002b50:    4311        .C      ORRS     r1,r1,r2
        0x08002b52:    6962        bi      LDR      r2,[r4,#0x14]
        0x08002b54:    ea410502    A...    ORR      r5,r1,r2
        0x08002b58:    6821        !h      LDR      r1,[r4,#0]
        0x08002b5a:    68c9        .h      LDR      r1,[r1,#0xc]
        0x08002b5c:    f241620c    A..b    MOV      r2,#0x160c
        0x08002b60:    4391        .C      BICS     r1,r1,r2
        0x08002b62:    4329        )C      ORRS     r1,r1,r5
        0x08002b64:    6822        "h      LDR      r2,[r4,#0]
        0x08002b66:    60d1        .`      STR      r1,[r2,#0xc]
        0x08002b68:    6821        !h      LDR      r1,[r4,#0]
        0x08002b6a:    6949        Ii      LDR      r1,[r1,#0x14]
        0x08002b6c:    f4217140    !.@q    BIC      r1,r1,#0x300
        0x08002b70:    69a2        .i      LDR      r2,[r4,#0x18]
        0x08002b72:    4311        .C      ORRS     r1,r1,r2
        0x08002b74:    6822        "h      LDR      r2,[r4,#0]
        0x08002b76:    6151        Qa      STR      r1,[r2,#0x14]
        0x08002b78:    4a2d        -J      LDR      r2,[pc,#180] ; [0x8002c30] = 0x40013800
        0x08002b7a:    6821        !h      LDR      r1,[r4,#0]
        0x08002b7c:    4291        .B      CMP      r1,r2
        0x08002b7e:    d102        ..      BNE      0x8002b86 ; UART_SetConfig + 78
        0x08002b80:    f7fefa1a    ....    BL       HAL_RCC_GetPCLK2Freq ; 0x8000fb8
        0x08002b84:    e001        ..      B        0x8002b8a ; UART_SetConfig + 82
        0x08002b86:    f7fefa07    ....    BL       HAL_RCC_GetPCLK1Freq ; 0x8000f98
        0x08002b8a:    eb0001c0    ....    ADD      r1,r0,r0,LSL #3
        0x08002b8e:    eb011100    ....    ADD      r1,r1,r0,LSL #4
        0x08002b92:    6862        bh      LDR      r2,[r4,#4]
        0x08002b94:    0092        ..      LSLS     r2,r2,#2
        0x08002b96:    fbb1f1f2    ....    UDIV     r1,r1,r2
        0x08002b9a:    eb0002c0    ....    ADD      r2,r0,r0,LSL #3
        0x08002b9e:    eb021200    ....    ADD      r2,r2,r0,LSL #4
        0x08002ba2:    6863        ch      LDR      r3,[r4,#4]
        0x08002ba4:    009b        ..      LSLS     r3,r3,#2
        0x08002ba6:    fbb2f2f3    ....    UDIV     r2,r2,r3
        0x08002baa:    2364        d#      MOVS     r3,#0x64
        0x08002bac:    fbb2f2f3    ....    UDIV     r2,r2,r3
        0x08002bb0:    eb0203c2    ....    ADD      r3,r2,r2,LSL #3
        0x08002bb4:    eb031202    ....    ADD      r2,r3,r2,LSL #4
        0x08002bb8:    eba10182    ....    SUB      r1,r1,r2,LSL #2
        0x08002bbc:    2232        2"      MOVS     r2,#0x32
        0x08002bbe:    eb021101    ....    ADD      r1,r2,r1,LSL #4
        0x08002bc2:    2264        d"      MOVS     r2,#0x64
        0x08002bc4:    fbb1f1f2    ....    UDIV     r1,r1,r2
        0x08002bc8:    f00101f0    ....    AND      r1,r1,#0xf0
        0x08002bcc:    eb0002c0    ....    ADD      r2,r0,r0,LSL #3
        0x08002bd0:    eb021200    ....    ADD      r2,r2,r0,LSL #4
        0x08002bd4:    6863        ch      LDR      r3,[r4,#4]
        0x08002bd6:    009b        ..      LSLS     r3,r3,#2
        0x08002bd8:    fbb2f2f3    ....    UDIV     r2,r2,r3
        0x08002bdc:    2364        d#      MOVS     r3,#0x64
        0x08002bde:    fbb2f2f3    ....    UDIV     r2,r2,r3
        0x08002be2:    eb011202    ....    ADD      r2,r1,r2,LSL #4
        0x08002be6:    eb0001c0    ....    ADD      r1,r0,r0,LSL #3
        0x08002bea:    eb011100    ....    ADD      r1,r1,r0,LSL #4
        0x08002bee:    6863        ch      LDR      r3,[r4,#4]
        0x08002bf0:    009b        ..      LSLS     r3,r3,#2
        0x08002bf2:    fbb1f1f3    ....    UDIV     r1,r1,r3
        0x08002bf6:    eb0003c0    ....    ADD      r3,r0,r0,LSL #3
        0x08002bfa:    eb031300    ....    ADD      r3,r3,r0,LSL #4
        0x08002bfe:    6866        fh      LDR      r6,[r4,#4]
        0x08002c00:    00b6        ..      LSLS     r6,r6,#2
        0x08002c02:    fbb3f3f6    ....    UDIV     r3,r3,r6
        0x08002c06:    2664        d&      MOVS     r6,#0x64
        0x08002c08:    fbb3f3f6    ....    UDIV     r3,r3,r6
        0x08002c0c:    eb0306c3    ....    ADD      r6,r3,r3,LSL #3
        0x08002c10:    eb061303    ....    ADD      r3,r6,r3,LSL #4
        0x08002c14:    eba10183    ....    SUB      r1,r1,r3,LSL #2
        0x08002c18:    2332        2#      MOVS     r3,#0x32
        0x08002c1a:    eb031101    ....    ADD      r1,r3,r1,LSL #4
        0x08002c1e:    2364        d#      MOVS     r3,#0x64
        0x08002c20:    fbb1f1f3    ....    UDIV     r1,r1,r3
        0x08002c24:    f001010f    ....    AND      r1,r1,#0xf
        0x08002c28:    4411        .D      ADD      r1,r1,r2
        0x08002c2a:    6822        "h      LDR      r2,[r4,#0]
        0x08002c2c:    6091        .`      STR      r1,[r2,#8]
        0x08002c2e:    bd70        p.      POP      {r4-r6,pc}
    $d
        0x08002c30:    40013800    .8.@    DCD    1073821696
    $t
    i.UART_Transmit_IT
    UART_Transmit_IT
        0x08002c34:    4601        .F      MOV      r1,r0
        0x08002c36:    f891003d    ..=.    LDRB     r0,[r1,#0x3d]
        0x08002c3a:    2821        !(      CMP      r0,#0x21
        0x08002c3c:    d128        (.      BNE      0x8002c90 ; UART_Transmit_IT + 92
        0x08002c3e:    6888        .h      LDR      r0,[r1,#8]
        0x08002c40:    f5b05f80    ..._    CMP      r0,#0x1000
        0x08002c44:    d10b        ..      BNE      0x8002c5e ; UART_Transmit_IT + 42
        0x08002c46:    6908        .i      LDR      r0,[r1,#0x10]
        0x08002c48:    b948        H.      CBNZ     r0,0x8002c5e ; UART_Transmit_IT + 42
        0x08002c4a:    6a0a        .j      LDR      r2,[r1,#0x20]
        0x08002c4c:    8810        ..      LDRH     r0,[r2,#0]
        0x08002c4e:    f3c00008    ....    UBFX     r0,r0,#0,#9
        0x08002c52:    680b        .h      LDR      r3,[r1,#0]
        0x08002c54:    6058        X`      STR      r0,[r3,#4]
        0x08002c56:    6a08        .j      LDR      r0,[r1,#0x20]
        0x08002c58:    1c80        ..      ADDS     r0,r0,#2
        0x08002c5a:    6208        .b      STR      r0,[r1,#0x20]
        0x08002c5c:    e005        ..      B        0x8002c6a ; UART_Transmit_IT + 54
        0x08002c5e:    6a0b        .j      LDR      r3,[r1,#0x20]
        0x08002c60:    1c58        X.      ADDS     r0,r3,#1
        0x08002c62:    6208        .b      STR      r0,[r1,#0x20]
        0x08002c64:    7818        .x      LDRB     r0,[r3,#0]
        0x08002c66:    680b        .h      LDR      r3,[r1,#0]
        0x08002c68:    6058        X`      STR      r0,[r3,#4]
        0x08002c6a:    8cc8        ..      LDRH     r0,[r1,#0x26]
        0x08002c6c:    1e40        @.      SUBS     r0,r0,#1
        0x08002c6e:    b280        ..      UXTH     r0,r0
        0x08002c70:    84c8        ..      STRH     r0,[r1,#0x26]
        0x08002c72:    b958        X.      CBNZ     r0,0x8002c8c ; UART_Transmit_IT + 88
        0x08002c74:    6808        .h      LDR      r0,[r1,#0]
        0x08002c76:    68c0        .h      LDR      r0,[r0,#0xc]
        0x08002c78:    f0200080     ...    BIC      r0,r0,#0x80
        0x08002c7c:    680b        .h      LDR      r3,[r1,#0]
        0x08002c7e:    60d8        .`      STR      r0,[r3,#0xc]
        0x08002c80:    6808        .h      LDR      r0,[r1,#0]
        0x08002c82:    68c0        .h      LDR      r0,[r0,#0xc]
        0x08002c84:    f0400040    @.@.    ORR      r0,r0,#0x40
        0x08002c88:    680b        .h      LDR      r3,[r1,#0]
        0x08002c8a:    60d8        .`      STR      r0,[r3,#0xc]
        0x08002c8c:    2000        .       MOVS     r0,#0
        0x08002c8e:    4770        pG      BX       lr
        0x08002c90:    2002        .       MOVS     r0,#2
        0x08002c92:    e7fc        ..      B        0x8002c8e ; UART_Transmit_IT + 90
    i.USART1_IRQHandler
    USART1_IRQHandler
        0x08002c94:    b510        ..      PUSH     {r4,lr}
        0x08002c96:    2400        .$      MOVS     r4,#0
        0x08002c98:    4808        .H      LDR      r0,[pc,#32] ; [0x8002cbc] = 0x40013800
        0x08002c9a:    6800        .h      LDR      r0,[r0,#0]
        0x08002c9c:    f0000020    .. .    AND      r0,r0,#0x20
        0x08002ca0:    b138        8.      CBZ      r0,0x8002cb2 ; USART1_IRQHandler + 30
        0x08002ca2:    4806        .H      LDR      r0,[pc,#24] ; [0x8002cbc] = 0x40013800
        0x08002ca4:    1d00        ..      ADDS     r0,r0,#4
        0x08002ca6:    6800        .h      LDR      r0,[r0,#0]
        0x08002ca8:    b2c4        ..      UXTB     r4,r0
        0x08002caa:    4905        .I      LDR      r1,[pc,#20] ; [0x8002cc0] = 0x200000b8
        0x08002cac:    4620         F      MOV      r0,r4
        0x08002cae:    f003fc30    ..0.    BL       ring_buffer_write ; 0x8006512
        0x08002cb2:    4804        .H      LDR      r0,[pc,#16] ; [0x8002cc4] = 0x200004c0
        0x08002cb4:    f7fefd68    ..h.    BL       HAL_UART_IRQHandler ; 0x8001788
        0x08002cb8:    bd10        ..      POP      {r4,pc}
    $d
        0x08002cba:    0000        ..      DCW    0
        0x08002cbc:    40013800    .8.@    DCD    1073821696
        0x08002cc0:    200000b8    ...     DCD    536871096
        0x08002cc4:    200004c0    ...     DCD    536872128
    $t
    i.USART3_IRQHandler
    USART3_IRQHandler
        0x08002cc8:    b570        p.      PUSH     {r4-r6,lr}
        0x08002cca:    480d        .H      LDR      r0,[pc,#52] ; [0x8002d00] = 0x20000504
        0x08002ccc:    6800        .h      LDR      r0,[r0,#0]
        0x08002cce:    6806        .h      LDR      r6,[r0,#0]
        0x08002cd0:    480b        .H      LDR      r0,[pc,#44] ; [0x8002d00] = 0x20000504
        0x08002cd2:    6800        .h      LDR      r0,[r0,#0]
        0x08002cd4:    68c5        .h      LDR      r5,[r0,#0xc]
        0x08002cd6:    f0060020    .. .    AND      r0,r6,#0x20
        0x08002cda:    b170        p.      CBZ      r0,0x8002cfa ; USART3_IRQHandler + 50
        0x08002cdc:    f0050020    .. .    AND      r0,r5,#0x20
        0x08002ce0:    b158        X.      CBZ      r0,0x8002cfa ; USART3_IRQHandler + 50
        0x08002ce2:    4807        .H      LDR      r0,[pc,#28] ; [0x8002d00] = 0x20000504
        0x08002ce4:    6800        .h      LDR      r0,[r0,#0]
        0x08002ce6:    6840        @h      LDR      r0,[r0,#4]
        0x08002ce8:    b2c4        ..      UXTB     r4,r0
        0x08002cea:    4906        .I      LDR      r1,[pc,#24] ; [0x8002d04] = 0x2000b6d0
        0x08002cec:    4620         F      MOV      r0,r4
        0x08002cee:    f003fc10    ....    BL       ring_buffer_write ; 0x8006512
        0x08002cf2:    4805        .H      LDR      r0,[pc,#20] ; [0x8002d08] = 0x200000ac
        0x08002cf4:    f002fbb6    ....    BL       platform_mutex_unlock_from_isr ; 0x8005464
        0x08002cf8:    bd70        p.      POP      {r4-r6,pc}
        0x08002cfa:    bf00        ..      NOP      
        0x08002cfc:    e7fc        ..      B        0x8002cf8 ; USART3_IRQHandler + 48
    $d
        0x08002cfe:    0000        ..      DCW    0
        0x08002d00:    20000504    ...     DCD    536872196
        0x08002d04:    2000b6d0    ...     DCD    536917712
        0x08002d08:    200000ac    ...     DCD    536871084
    $t
    i.USART3_Read
    USART3_Read
        0x08002d0c:    b570        p.      PUSH     {r4-r6,lr}
        0x08002d0e:    4604        .F      MOV      r4,r0
        0x08002d10:    460d        .F      MOV      r5,r1
        0x08002d12:    e009        ..      B        0x8002d28 ; USART3_Read + 28
        0x08002d14:    4905        .I      LDR      r1,[pc,#20] ; [0x8002d2c] = 0x2000b6d0
        0x08002d16:    4620         F      MOV      r0,r4
        0x08002d18:    f003fbe7    ....    BL       ring_buffer_read ; 0x80064ea
        0x08002d1c:    b900        ..      CBNZ     r0,0x8002d20 ; USART3_Read + 20
        0x08002d1e:    bd70        p.      POP      {r4-r6,pc}
        0x08002d20:    4629        )F      MOV      r1,r5
        0x08002d22:    4803        .H      LDR      r0,[pc,#12] ; [0x8002d30] = 0x200000ac
        0x08002d24:    f002fb8d    ....    BL       platform_mutex_lock_timeout ; 0x8005442
        0x08002d28:    e7f4        ..      B        0x8002d14 ; USART3_Read + 8
    $d
        0x08002d2a:    0000        ..      DCW    0
        0x08002d2c:    2000b6d0    ...     DCD    536917712
        0x08002d30:    200000ac    ...     DCD    536871084
    $t
    i.USART3_Write
    USART3_Write
        0x08002d34:    b510        ..      PUSH     {r4,lr}
        0x08002d36:    4602        .F      MOV      r2,r0
        0x08002d38:    2000        .       MOVS     r0,#0
        0x08002d3a:    e00c        ..      B        0x8002d56 ; USART3_Write + 34
        0x08002d3c:    bf00        ..      NOP      
        0x08002d3e:    4b07        .K      LDR      r3,[pc,#28] ; [0x8002d5c] = 0x20000504
        0x08002d40:    681b        .h      LDR      r3,[r3,#0]
        0x08002d42:    681b        .h      LDR      r3,[r3,#0]
        0x08002d44:    f0030380    ....    AND      r3,r3,#0x80
        0x08002d48:    2b00        .+      CMP      r3,#0
        0x08002d4a:    d0f8        ..      BEQ      0x8002d3e ; USART3_Write + 10
        0x08002d4c:    5c13        .\      LDRB     r3,[r2,r0]
        0x08002d4e:    4c03        .L      LDR      r4,[pc,#12] ; [0x8002d5c] = 0x20000504
        0x08002d50:    6824        $h      LDR      r4,[r4,#0]
        0x08002d52:    6063        c`      STR      r3,[r4,#4]
        0x08002d54:    1c40        @.      ADDS     r0,r0,#1
        0x08002d56:    4288        .B      CMP      r0,r1
        0x08002d58:    dbf0        ..      BLT      0x8002d3c ; USART3_Write + 8
        0x08002d5a:    bd10        ..      POP      {r4,pc}
    $d
        0x08002d5c:    20000504    ...     DCD    536872196
    $t
    i.UsageFault_Handler
    UsageFault_Handler
        0x08002d60:    bf00        ..      NOP      
        0x08002d62:    e7fe        ..      B        0x8002d62 ; UsageFault_Handler + 2
    i.__0printf$8
    __0printf$8
    __1printf$8
    __2printf
        0x08002d64:    b40f        ..      PUSH     {r0-r3}
        0x08002d66:    4b05        .K      LDR      r3,[pc,#20] ; [0x8002d7c] = 0x8003355
        0x08002d68:    b510        ..      PUSH     {r4,lr}
        0x08002d6a:    a903        ..      ADD      r1,sp,#0xc
        0x08002d6c:    4a04        .J      LDR      r2,[pc,#16] ; [0x8002d80] = 0x200000b4
        0x08002d6e:    9802        ..      LDR      r0,[sp,#8]
        0x08002d70:    f000f860    ..`.    BL       _printf_core ; 0x8002e34
        0x08002d74:    bc10        ..      POP      {r4}
        0x08002d76:    f85dfb14    ]...    LDR      pc,[sp],#0x14
    $d
        0x08002d7a:    0000        ..      DCW    0
        0x08002d7c:    08003355    U3..    DCD    134230869
        0x08002d80:    200000b4    ...     DCD    536871092
    $t
    i.__0sprintf$8
    __0sprintf$8
    __1sprintf$8
    __2sprintf
        0x08002d84:    b40f        ..      PUSH     {r0-r3}
        0x08002d86:    4b08        .K      LDR      r3,[pc,#32] ; [0x8002da8] = 0x800328b
        0x08002d88:    b510        ..      PUSH     {r4,lr}
        0x08002d8a:    a904        ..      ADD      r1,sp,#0x10
        0x08002d8c:    aa02        ..      ADD      r2,sp,#8
        0x08002d8e:    9803        ..      LDR      r0,[sp,#0xc]
        0x08002d90:    f000f850    ..P.    BL       _printf_core ; 0x8002e34
        0x08002d94:    4604        .F      MOV      r4,r0
        0x08002d96:    a902        ..      ADD      r1,sp,#8
        0x08002d98:    2000        .       MOVS     r0,#0
        0x08002d9a:    f000fa76    ..v.    BL       _sputc ; 0x800328a
        0x08002d9e:    4620         F      MOV      r0,r4
        0x08002da0:    bc10        ..      POP      {r4}
        0x08002da2:    f85dfb14    ]...    LDR      pc,[sp],#0x14
    $d
        0x08002da6:    0000        ..      DCW    0
        0x08002da8:    0800328b    .2..    DCD    134230667
    $t
    i.__NVIC_GetPriorityGrouping
    __NVIC_GetPriorityGrouping
        0x08002dac:    4802        .H      LDR      r0,[pc,#8] ; [0x8002db8] = 0xe000ed0c
        0x08002dae:    6800        .h      LDR      r0,[r0,#0]
        0x08002db0:    f3c02002    ...     UBFX     r0,r0,#8,#3
        0x08002db4:    4770        pG      BX       lr
    $d
        0x08002db6:    0000        ..      DCW    0
        0x08002db8:    e000ed0c    ....    DCD    3758157068
    $t
    i.__NVIC_SetPriority
    __NVIC_SetPriority
        0x08002dbc:    b510        ..      PUSH     {r4,lr}
        0x08002dbe:    2800        .(      CMP      r0,#0
        0x08002dc0:    db04        ..      BLT      0x8002dcc ; __NVIC_SetPriority + 16
        0x08002dc2:    070a        ..      LSLS     r2,r1,#28
        0x08002dc4:    0e13        ..      LSRS     r3,r2,#24
        0x08002dc6:    4a05        .J      LDR      r2,[pc,#20] ; [0x8002ddc] = 0xe000e400
        0x08002dc8:    5413        .T      STRB     r3,[r2,r0]
        0x08002dca:    e006        ..      B        0x8002dda ; __NVIC_SetPriority + 30
        0x08002dcc:    070a        ..      LSLS     r2,r1,#28
        0x08002dce:    0e14        ..      LSRS     r4,r2,#24
        0x08002dd0:    4a03        .J      LDR      r2,[pc,#12] ; [0x8002de0] = 0xe000ed18
        0x08002dd2:    f000030f    ....    AND      r3,r0,#0xf
        0x08002dd6:    1f1b        ..      SUBS     r3,r3,#4
        0x08002dd8:    54d4        .T      STRB     r4,[r2,r3]
        0x08002dda:    bd10        ..      POP      {r4,pc}
    $d
        0x08002ddc:    e000e400    ....    DCD    3758154752
        0x08002de0:    e000ed18    ....    DCD    3758157080
    $t
    i.__get_BASEPRI
    __get_BASEPRI
        0x08002de4:    f3ef8011    ....    MRS      r0,BASEPRI
        0x08002de8:    4770        pG      BX       lr
    i.__get_IPSR
    __get_IPSR
        0x08002dea:    f3ef8005    ....    MRS      r0,IPSR
        0x08002dee:    4770        pG      BX       lr
    i.__get_PRIMASK
    __get_PRIMASK
        0x08002df0:    f3ef8010    ....    MRS      r0,PRIMASK
        0x08002df4:    4770        pG      BX       lr
    i.__scatterload_copy
    __scatterload_copy
        0x08002df6:    e002        ..      B        0x8002dfe ; __scatterload_copy + 8
        0x08002df8:    c808        ..      LDM      r0!,{r3}
        0x08002dfa:    1f12        ..      SUBS     r2,r2,#4
        0x08002dfc:    c108        ..      STM      r1!,{r3}
        0x08002dfe:    2a00        .*      CMP      r2,#0
        0x08002e00:    d1fa        ..      BNE      0x8002df8 ; __scatterload_copy + 2
        0x08002e02:    4770        pG      BX       lr
    i.__scatterload_null
    __scatterload_null
        0x08002e04:    4770        pG      BX       lr
    i.__scatterload_zeroinit
    __scatterload_zeroinit
        0x08002e06:    2000        .       MOVS     r0,#0
        0x08002e08:    e001        ..      B        0x8002e0e ; __scatterload_zeroinit + 8
        0x08002e0a:    c101        ..      STM      r1!,{r0}
        0x08002e0c:    1f12        ..      SUBS     r2,r2,#4
        0x08002e0e:    2a00        .*      CMP      r2,#0
        0x08002e10:    d1fb        ..      BNE      0x8002e0a ; __scatterload_zeroinit + 4
        0x08002e12:    4770        pG      BX       lr
    i._mqtt_list_add
    _mqtt_list_add
        0x08002e14:    6050        P`      STR      r0,[r2,#4]
        0x08002e16:    6002        .`      STR      r2,[r0,#0]
        0x08002e18:    6041        A`      STR      r1,[r0,#4]
        0x08002e1a:    6008        .`      STR      r0,[r1,#0]
        0x08002e1c:    4770        pG      BX       lr
    i._mqtt_list_del
    _mqtt_list_del
        0x08002e1e:    6048        H`      STR      r0,[r1,#4]
        0x08002e20:    6001        .`      STR      r1,[r0,#0]
        0x08002e22:    4770        pG      BX       lr
    i._mqtt_list_del_entry
    _mqtt_list_del_entry
        0x08002e24:    b510        ..      PUSH     {r4,lr}
        0x08002e26:    4604        .F      MOV      r4,r0
        0x08002e28:    e9d41000    ....    LDRD     r1,r0,[r4,#0]
        0x08002e2c:    f7fffff7    ....    BL       _mqtt_list_del ; 0x8002e1e
        0x08002e30:    bd10        ..      POP      {r4,pc}
        0x08002e32:    0000        ..      MOVS     r0,r0
    i._printf_core
    _printf_core
        0x08002e34:    e92d4fff    -..O    PUSH     {r0-r11,lr}
        0x08002e38:    b08d        ..      SUB      sp,sp,#0x34
        0x08002e3a:    460f        .F      MOV      r7,r1
        0x08002e3c:    4605        .F      MOV      r5,r0
        0x08002e3e:    2600        .&      MOVS     r6,#0
        0x08002e40:    e006        ..      B        0x8002e50 ; _printf_core + 28
        0x08002e42:    2825        %(      CMP      r0,#0x25
        0x08002e44:    d00b        ..      BEQ      0x8002e5e ; _printf_core + 42
        0x08002e46:    e9dd120f    ....    LDRD     r1,r2,[sp,#0x3c]
        0x08002e4a:    4790        .G      BLX      r2
        0x08002e4c:    1c6d        m.      ADDS     r5,r5,#1
        0x08002e4e:    1c76        v.      ADDS     r6,r6,#1
        0x08002e50:    7828        (x      LDRB     r0,[r5,#0]
        0x08002e52:    2800        .(      CMP      r0,#0
        0x08002e54:    d1f5        ..      BNE      0x8002e42 ; _printf_core + 14
        0x08002e56:    b011        ..      ADD      sp,sp,#0x44
        0x08002e58:    4630        0F      MOV      r0,r6
        0x08002e5a:    e8bd8ff0    ....    POP      {r4-r11,pc}
        0x08002e5e:    2400        .$      MOVS     r4,#0
        0x08002e60:    46a2        .F      MOV      r10,r4
        0x08002e62:    46a1        .F      MOV      r9,r4
        0x08002e64:    2201        ."      MOVS     r2,#1
        0x08002e66:    49e9        .I      LDR      r1,[pc,#932] ; [0x800320c] = 0x12809
        0x08002e68:    e000        ..      B        0x8002e6c ; _printf_core + 56
        0x08002e6a:    4304        .C      ORRS     r4,r4,r0
        0x08002e6c:    f8153f01    ...?    LDRB     r3,[r5,#1]!
        0x08002e70:    3b20         ;      SUBS     r3,r3,#0x20
        0x08002e72:    fa02f003    ....    LSL      r0,r2,r3
        0x08002e76:    4208        .B      TST      r0,r1
        0x08002e78:    d1f7        ..      BNE      0x8002e6a ; _printf_core + 54
        0x08002e7a:    7828        (x      LDRB     r0,[r5,#0]
        0x08002e7c:    282a        *(      CMP      r0,#0x2a
        0x08002e7e:    d010        ..      BEQ      0x8002ea2 ; _printf_core + 110
        0x08002e80:    f06f022f    o./.    MVN      r2,#0x2f
        0x08002e84:    7828        (x      LDRB     r0,[r5,#0]
        0x08002e86:    f1a00130    ..0.    SUB      r1,r0,#0x30
        0x08002e8a:    2909        .)      CMP      r1,#9
        0x08002e8c:    d814        ..      BHI      0x8002eb8 ; _printf_core + 132
        0x08002e8e:    eb0a018a    ....    ADD      r1,r10,r10,LSL #2
        0x08002e92:    eb020141    ..A.    ADD      r1,r2,r1,LSL #1
        0x08002e96:    f0440402    D...    ORR      r4,r4,#2
        0x08002e9a:    eb000a01    ....    ADD      r10,r0,r1
        0x08002e9e:    1c6d        m.      ADDS     r5,r5,#1
        0x08002ea0:    e7f0        ..      B        0x8002e84 ; _printf_core + 80
        0x08002ea2:    cf01        ..      LDM      r7!,{r0}
        0x08002ea4:    ea5f0a00    _...    MOVS     r10,r0
        0x08002ea8:    d503        ..      BPL      0x8002eb2 ; _printf_core + 126
        0x08002eaa:    f4445400    D..T    ORR      r4,r4,#0x2000
        0x08002eae:    f1ca0a00    ....    RSB      r10,r10,#0
        0x08002eb2:    f0440402    D...    ORR      r4,r4,#2
        0x08002eb6:    1c6d        m.      ADDS     r5,r5,#1
        0x08002eb8:    7828        (x      LDRB     r0,[r5,#0]
        0x08002eba:    282e        .(      CMP      r0,#0x2e
        0x08002ebc:    d117        ..      BNE      0x8002eee ; _printf_core + 186
        0x08002ebe:    f8150f01    ....    LDRB     r0,[r5,#1]!
        0x08002ec2:    f0440404    D...    ORR      r4,r4,#4
        0x08002ec6:    282a        *(      CMP      r0,#0x2a
        0x08002ec8:    d00e        ..      BEQ      0x8002ee8 ; _printf_core + 180
        0x08002eca:    f06f022f    o./.    MVN      r2,#0x2f
        0x08002ece:    7828        (x      LDRB     r0,[r5,#0]
        0x08002ed0:    f1a00130    ..0.    SUB      r1,r0,#0x30
        0x08002ed4:    2909        .)      CMP      r1,#9
        0x08002ed6:    d80a        ..      BHI      0x8002eee ; _printf_core + 186
        0x08002ed8:    eb090189    ....    ADD      r1,r9,r9,LSL #2
        0x08002edc:    eb020141    ..A.    ADD      r1,r2,r1,LSL #1
        0x08002ee0:    eb000901    ....    ADD      r9,r0,r1
        0x08002ee4:    1c6d        m.      ADDS     r5,r5,#1
        0x08002ee6:    e7f2        ..      B        0x8002ece ; _printf_core + 154
        0x08002ee8:    f8579b04    W...    LDR      r9,[r7],#4
        0x08002eec:    1c6d        m.      ADDS     r5,r5,#1
        0x08002eee:    7828        (x      LDRB     r0,[r5,#0]
        0x08002ef0:    286c        l(      CMP      r0,#0x6c
        0x08002ef2:    d00f        ..      BEQ      0x8002f14 ; _printf_core + 224
        0x08002ef4:    dc06        ..      BGT      0x8002f04 ; _printf_core + 208
        0x08002ef6:    284c        L(      CMP      r0,#0x4c
        0x08002ef8:    d017        ..      BEQ      0x8002f2a ; _printf_core + 246
        0x08002efa:    2868        h(      CMP      r0,#0x68
        0x08002efc:    d00d        ..      BEQ      0x8002f1a ; _printf_core + 230
        0x08002efe:    286a        j(      CMP      r0,#0x6a
        0x08002f00:    d114        ..      BNE      0x8002f2c ; _printf_core + 248
        0x08002f02:    e004        ..      B        0x8002f0e ; _printf_core + 218
        0x08002f04:    2874        t(      CMP      r0,#0x74
        0x08002f06:    d010        ..      BEQ      0x8002f2a ; _printf_core + 246
        0x08002f08:    287a        z(      CMP      r0,#0x7a
        0x08002f0a:    d10f        ..      BNE      0x8002f2c ; _printf_core + 248
        0x08002f0c:    e00d        ..      B        0x8002f2a ; _printf_core + 246
        0x08002f0e:    f4441400    D...    ORR      r4,r4,#0x200000
        0x08002f12:    e00a        ..      B        0x8002f2a ; _printf_core + 246
        0x08002f14:    f4441480    D...    ORR      r4,r4,#0x100000
        0x08002f18:    e001        ..      B        0x8002f1e ; _printf_core + 234
        0x08002f1a:    f4441440    D.@.    ORR      r4,r4,#0x300000
        0x08002f1e:    7869        ix      LDRB     r1,[r5,#1]
        0x08002f20:    4281        .B      CMP      r1,r0
        0x08002f22:    d102        ..      BNE      0x8002f2a ; _printf_core + 246
        0x08002f24:    f5041480    ....    ADD      r4,r4,#0x100000
        0x08002f28:    1c6d        m.      ADDS     r5,r5,#1
        0x08002f2a:    1c6d        m.      ADDS     r5,r5,#1
        0x08002f2c:    7828        (x      LDRB     r0,[r5,#0]
        0x08002f2e:    286e        n(      CMP      r0,#0x6e
        0x08002f30:    d01e        ..      BEQ      0x8002f70 ; _printf_core + 316
        0x08002f32:    dc0c        ..      BGT      0x8002f4e ; _printf_core + 282
        0x08002f34:    2863        c(      CMP      r0,#0x63
        0x08002f36:    d030        0.      BEQ      0x8002f9a ; _printf_core + 358
        0x08002f38:    dc04        ..      BGT      0x8002f44 ; _printf_core + 272
        0x08002f3a:    2800        .(      CMP      r0,#0
        0x08002f3c:    d08b        ..      BEQ      0x8002e56 ; _printf_core + 34
        0x08002f3e:    2858        X(      CMP      r0,#0x58
        0x08002f40:    d111        ..      BNE      0x8002f66 ; _printf_core + 306
        0x08002f42:    e09f        ..      B        0x8003084 ; _printf_core + 592
        0x08002f44:    2864        d(      CMP      r0,#0x64
        0x08002f46:    d067        g.      BEQ      0x8003018 ; _printf_core + 484
        0x08002f48:    2869        i(      CMP      r0,#0x69
        0x08002f4a:    d10c        ..      BNE      0x8002f66 ; _printf_core + 306
        0x08002f4c:    e064        d.      B        0x8003018 ; _printf_core + 484
        0x08002f4e:    2873        s(      CMP      r0,#0x73
        0x08002f50:    d02d        -.      BEQ      0x8002fae ; _printf_core + 378
        0x08002f52:    dc04        ..      BGT      0x8002f5e ; _printf_core + 298
        0x08002f54:    286f        o(      CMP      r0,#0x6f
        0x08002f56:    d072        r.      BEQ      0x800303e ; _printf_core + 522
        0x08002f58:    2870        p(      CMP      r0,#0x70
        0x08002f5a:    d104        ..      BNE      0x8002f66 ; _printf_core + 306
        0x08002f5c:    e094        ..      B        0x8003088 ; _printf_core + 596
        0x08002f5e:    2875        u(      CMP      r0,#0x75
        0x08002f60:    d06e        n.      BEQ      0x8003040 ; _printf_core + 524
        0x08002f62:    2878        x(      CMP      r0,#0x78
        0x08002f64:    d06d        m.      BEQ      0x8003042 ; _printf_core + 526
        0x08002f66:    e9dd120f    ....    LDRD     r1,r2,[sp,#0x3c]
        0x08002f6a:    4790        .G      BLX      r2
        0x08002f6c:    1c76        v.      ADDS     r6,r6,#1
        0x08002f6e:    e14b        K.      B        0x8003208 ; _printf_core + 980
        0x08002f70:    f3c45002    ...P    UBFX     r0,r4,#20,#3
        0x08002f74:    2802        .(      CMP      r0,#2
        0x08002f76:    d006        ..      BEQ      0x8002f86 ; _printf_core + 338
        0x08002f78:    2803        .(      CMP      r0,#3
        0x08002f7a:    d009        ..      BEQ      0x8002f90 ; _printf_core + 348
        0x08002f7c:    2804        .(      CMP      r0,#4
        0x08002f7e:    cf01        ..      LDM      r7!,{r0}
        0x08002f80:    d009        ..      BEQ      0x8002f96 ; _printf_core + 354
        0x08002f82:    6006        .`      STR      r6,[r0,#0]
        0x08002f84:    e140        @.      B        0x8003208 ; _printf_core + 980
        0x08002f86:    cf01        ..      LDM      r7!,{r0}
        0x08002f88:    17f1        ..      ASRS     r1,r6,#31
        0x08002f8a:    e9c06100    ...a    STRD     r6,r1,[r0,#0]
        0x08002f8e:    e13b        ;.      B        0x8003208 ; _printf_core + 980
        0x08002f90:    cf01        ..      LDM      r7!,{r0}
        0x08002f92:    8006        ..      STRH     r6,[r0,#0]
        0x08002f94:    e138        8.      B        0x8003208 ; _printf_core + 980
        0x08002f96:    7006        .p      STRB     r6,[r0,#0]
        0x08002f98:    e136        6.      B        0x8003208 ; _printf_core + 980
        0x08002f9a:    f8170b04    ....    LDRB     r0,[r7],#4
        0x08002f9e:    f88d0000    ....    STRB     r0,[sp,#0]
        0x08002fa2:    2000        .       MOVS     r0,#0
        0x08002fa4:    f88d0001    ....    STRB     r0,[sp,#1]
        0x08002fa8:    46eb        .F      MOV      r11,sp
        0x08002faa:    2001        .       MOVS     r0,#1
        0x08002fac:    e003        ..      B        0x8002fb6 ; _printf_core + 386
        0x08002fae:    f857bb04    W...    LDR      r11,[r7],#4
        0x08002fb2:    f04f30ff    O..0    MOV      r0,#0xffffffff
        0x08002fb6:    0761        a.      LSLS     r1,r4,#29
        0x08002fb8:    f04f0100    O...    MOV      r1,#0
        0x08002fbc:    d402        ..      BMI      0x8002fc4 ; _printf_core + 400
        0x08002fbe:    e00d        ..      B        0x8002fdc ; _printf_core + 424
        0x08002fc0:    f1080101    ....    ADD      r1,r8,#1
        0x08002fc4:    4688        .F      MOV      r8,r1
        0x08002fc6:    4549        IE      CMP      r1,r9
        0x08002fc8:    da0f        ..      BGE      0x8002fea ; _printf_core + 438
        0x08002fca:    4580        .E      CMP      r8,r0
        0x08002fcc:    dbf8        ..      BLT      0x8002fc0 ; _printf_core + 396
        0x08002fce:    f81b1008    ....    LDRB     r1,[r11,r8]
        0x08002fd2:    2900        .)      CMP      r1,#0
        0x08002fd4:    d1f4        ..      BNE      0x8002fc0 ; _printf_core + 396
        0x08002fd6:    e008        ..      B        0x8002fea ; _printf_core + 438
        0x08002fd8:    f1080101    ....    ADD      r1,r8,#1
        0x08002fdc:    4688        .F      MOV      r8,r1
        0x08002fde:    4281        .B      CMP      r1,r0
        0x08002fe0:    dbfa        ..      BLT      0x8002fd8 ; _printf_core + 420
        0x08002fe2:    f81b1008    ....    LDRB     r1,[r11,r8]
        0x08002fe6:    2900        .)      CMP      r1,#0
        0x08002fe8:    d1f6        ..      BNE      0x8002fd8 ; _printf_core + 420
        0x08002fea:    e9dd230f    ...#    LDRD     r2,r3,[sp,#0x3c]
        0x08002fee:    ebaa0008    ....    SUB      r0,r10,r8
        0x08002ff2:    4681        .F      MOV      r9,r0
        0x08002ff4:    4621        !F      MOV      r1,r4
        0x08002ff6:    f000f931    ..1.    BL       _printf_pre_padding ; 0x800325c
        0x08002ffa:    4430        0D      ADD      r0,r0,r6
        0x08002ffc:    eb000608    ....    ADD      r6,r0,r8
        0x08003000:    e004        ..      B        0x800300c ; _printf_core + 472
        0x08003002:    e9dd120f    ....    LDRD     r1,r2,[sp,#0x3c]
        0x08003006:    f81b0b01    ....    LDRB     r0,[r11],#1
        0x0800300a:    4790        .G      BLX      r2
        0x0800300c:    f1b80801    ....    SUBS     r8,r8,#1
        0x08003010:    d2f7        ..      BCS      0x8003002 ; _printf_core + 462
        0x08003012:    4621        !F      MOV      r1,r4
        0x08003014:    4648        HF      MOV      r0,r9
        0x08003016:    e0f2        ..      B        0x80031fe ; _printf_core + 970
        0x08003018:    210a        .!      MOVS     r1,#0xa
        0x0800301a:    f3c45202    ...R    UBFX     r2,r4,#20,#3
        0x0800301e:    f04f0b00    O...    MOV      r11,#0
        0x08003022:    9108        ..      STR      r1,[sp,#0x20]
        0x08003024:    2a02        .*      CMP      r2,#2
        0x08003026:    d004        ..      BEQ      0x8003032 ; _printf_core + 510
        0x08003028:    cf01        ..      LDM      r7!,{r0}
        0x0800302a:    17c1        ..      ASRS     r1,r0,#31
        0x0800302c:    2a03        .*      CMP      r2,#3
        0x0800302e:    d009        ..      BEQ      0x8003044 ; _printf_core + 528
        0x08003030:    e00a        ..      B        0x8003048 ; _printf_core + 532
        0x08003032:    1dff        ..      ADDS     r7,r7,#7
        0x08003034:    f0270707    '...    BIC      r7,r7,#7
        0x08003038:    e8f70102    ....    LDRD     r0,r1,[r7],#8
        0x0800303c:    e008        ..      B        0x8003050 ; _printf_core + 540
        0x0800303e:    e02c        ,.      B        0x800309a ; _printf_core + 614
        0x08003040:    e01e        ..      B        0x8003080 ; _printf_core + 588
        0x08003042:    e01f        ..      B        0x8003084 ; _printf_core + 592
        0x08003044:    b200        ..      SXTH     r0,r0
        0x08003046:    17c1        ..      ASRS     r1,r0,#31
        0x08003048:    2a04        .*      CMP      r2,#4
        0x0800304a:    d101        ..      BNE      0x8003050 ; _printf_core + 540
        0x0800304c:    b240        @.      SXTB     r0,r0
        0x0800304e:    17c1        ..      ASRS     r1,r0,#31
        0x08003050:    1e02        ..      SUBS     r2,r0,#0
        0x08003052:    f1710200    q...    SBCS     r2,r1,#0
        0x08003056:    da06        ..      BGE      0x8003066 ; _printf_core + 562
        0x08003058:    2300        .#      MOVS     r3,#0
        0x0800305a:    ebd00003    ....    RSBS     r0,r0,r3
        0x0800305e:    eb630101    c...    SBC      r1,r3,r1
        0x08003062:    222d        -"      MOVS     r2,#0x2d
        0x08003064:    e002        ..      B        0x800306c ; _printf_core + 568
        0x08003066:    0522        ".      LSLS     r2,r4,#20
        0x08003068:    d504        ..      BPL      0x8003074 ; _printf_core + 576
        0x0800306a:    222b        +"      MOVS     r2,#0x2b
        0x0800306c:    f88d2024    ..$     STRB     r2,[sp,#0x24]
        0x08003070:    2201        ."      MOVS     r2,#1
        0x08003072:    e003        ..      B        0x800307c ; _printf_core + 584
        0x08003074:    07e2        ..      LSLS     r2,r4,#31
        0x08003076:    d001        ..      BEQ      0x800307c ; _printf_core + 584
        0x08003078:    2220         "      MOVS     r2,#0x20
        0x0800307a:    e7f7        ..      B        0x800306c ; _printf_core + 568
        0x0800307c:    4690        .F      MOV      r8,r2
        0x0800307e:    e053        S.      B        0x8003128 ; _printf_core + 756
        0x08003080:    210a        .!      MOVS     r1,#0xa
        0x08003082:    e00b        ..      B        0x800309c ; _printf_core + 616
        0x08003084:    2110        .!      MOVS     r1,#0x10
        0x08003086:    e009        ..      B        0x800309c ; _printf_core + 616
        0x08003088:    2110        .!      MOVS     r1,#0x10
        0x0800308a:    f04f0b00    O...    MOV      r11,#0
        0x0800308e:    f0440404    D...    ORR      r4,r4,#4
        0x08003092:    f04f0908    O...    MOV      r9,#8
        0x08003096:    9108        ..      STR      r1,[sp,#0x20]
        0x08003098:    e003        ..      B        0x80030a2 ; _printf_core + 622
        0x0800309a:    2108        .!      MOVS     r1,#8
        0x0800309c:    f04f0b00    O...    MOV      r11,#0
        0x080030a0:    9108        ..      STR      r1,[sp,#0x20]
        0x080030a2:    f3c45202    ...R    UBFX     r2,r4,#20,#3
        0x080030a6:    2a02        .*      CMP      r2,#2
        0x080030a8:    d004        ..      BEQ      0x80030b4 ; _printf_core + 640
        0x080030aa:    cf01        ..      LDM      r7!,{r0}
        0x080030ac:    2100        .!      MOVS     r1,#0
        0x080030ae:    2a03        .*      CMP      r2,#3
        0x080030b0:    d006        ..      BEQ      0x80030c0 ; _printf_core + 652
        0x080030b2:    e006        ..      B        0x80030c2 ; _printf_core + 654
        0x080030b4:    1dff        ..      ADDS     r7,r7,#7
        0x080030b6:    f0270707    '...    BIC      r7,r7,#7
        0x080030ba:    e8f70102    ....    LDRD     r0,r1,[r7],#8
        0x080030be:    e003        ..      B        0x80030c8 ; _printf_core + 660
        0x080030c0:    b280        ..      UXTH     r0,r0
        0x080030c2:    2a04        .*      CMP      r2,#4
        0x080030c4:    d100        ..      BNE      0x80030c8 ; _printf_core + 660
        0x080030c6:    b2c0        ..      UXTB     r0,r0
        0x080030c8:    f04f0800    O...    MOV      r8,#0
        0x080030cc:    0722        ".      LSLS     r2,r4,#28
        0x080030ce:    d52b        +.      BPL      0x8003128 ; _printf_core + 756
        0x080030d0:    782a        *x      LDRB     r2,[r5,#0]
        0x080030d2:    2a70        p*      CMP      r2,#0x70
        0x080030d4:    d007        ..      BEQ      0x80030e6 ; _printf_core + 690
        0x080030d6:    f8ddc020    .. .    LDR      r12,[sp,#0x20]
        0x080030da:    f08c0c10    ....    EOR      r12,r12,#0x10
        0x080030de:    ea5c0c0b    \...    ORRS     r12,r12,r11
        0x080030e2:    d005        ..      BEQ      0x80030f0 ; _printf_core + 700
        0x080030e4:    e00e        ..      B        0x8003104 ; _printf_core + 720
        0x080030e6:    2240        @"      MOVS     r2,#0x40
        0x080030e8:    f88d2024    ..$     STRB     r2,[sp,#0x24]
        0x080030ec:    2201        ."      MOVS     r2,#1
        0x080030ee:    e008        ..      B        0x8003102 ; _printf_core + 718
        0x080030f0:    ea500301    P...    ORRS     r3,r0,r1
        0x080030f4:    d006        ..      BEQ      0x8003104 ; _printf_core + 720
        0x080030f6:    2330        0#      MOVS     r3,#0x30
        0x080030f8:    f88d3024    ..$0    STRB     r3,[sp,#0x24]
        0x080030fc:    f88d2025    ..%     STRB     r2,[sp,#0x25]
        0x08003100:    2202        ."      MOVS     r2,#2
        0x08003102:    4690        .F      MOV      r8,r2
        0x08003104:    9b08        ..      LDR      r3,[sp,#0x20]
        0x08003106:    f0830308    ....    EOR      r3,r3,#8
        0x0800310a:    ea53030b    S...    ORRS     r3,r3,r11
        0x0800310e:    d10b        ..      BNE      0x8003128 ; _printf_core + 756
        0x08003110:    ea500201    P...    ORRS     r2,r0,r1
        0x08003114:    d101        ..      BNE      0x800311a ; _printf_core + 742
        0x08003116:    0762        b.      LSLS     r2,r4,#29
        0x08003118:    d506        ..      BPL      0x8003128 ; _printf_core + 756
        0x0800311a:    2230        0"      MOVS     r2,#0x30
        0x0800311c:    f88d2024    ..$     STRB     r2,[sp,#0x24]
        0x08003120:    f04f0801    O...    MOV      r8,#1
        0x08003124:    f1a90901    ....    SUB      r9,r9,#1
        0x08003128:    782a        *x      LDRB     r2,[r5,#0]
        0x0800312a:    2a58        X*      CMP      r2,#0x58
        0x0800312c:    d004        ..      BEQ      0x8003138 ; _printf_core + 772
        0x0800312e:    a238        8.      ADR      r2,{pc}+0xe2 ; 0x8003210
        0x08003130:    920b        ..      STR      r2,[sp,#0x2c]
        0x08003132:    aa08        ..      ADD      r2,sp,#0x20
        0x08003134:    920a        ..      STR      r2,[sp,#0x28]
        0x08003136:    e00b        ..      B        0x8003150 ; _printf_core + 796
        0x08003138:    a23a        :.      ADR      r2,{pc}+0xec ; 0x8003224
        0x0800313a:    e7f9        ..      B        0x8003130 ; _printf_core + 764
        0x0800313c:    465b        [F      MOV      r3,r11
        0x0800313e:    9a08        ..      LDR      r2,[sp,#0x20]
        0x08003140:    f7fdf8ce    ....    BL       __aeabi_uldivmod ; 0x80002e0
        0x08003144:    9b0b        ..      LDR      r3,[sp,#0x2c]
        0x08003146:    5c9b        .\      LDRB     r3,[r3,r2]
        0x08003148:    9a0a        ..      LDR      r2,[sp,#0x28]
        0x0800314a:    1e52        R.      SUBS     r2,r2,#1
        0x0800314c:    920a        ..      STR      r2,[sp,#0x28]
        0x0800314e:    7013        .p      STRB     r3,[r2,#0]
        0x08003150:    ea500201    P...    ORRS     r2,r0,r1
        0x08003154:    d1f2        ..      BNE      0x800313c ; _printf_core + 776
        0x08003156:    980a        ..      LDR      r0,[sp,#0x28]
        0x08003158:    ebad0000    ....    SUB      r0,sp,r0
        0x0800315c:    f1000b20    .. .    ADD      r11,r0,#0x20
        0x08003160:    0760        `.      LSLS     r0,r4,#29
        0x08003162:    d502        ..      BPL      0x800316a ; _printf_core + 822
        0x08003164:    f4243480    $..4    BIC      r4,r4,#0x10000
        0x08003168:    e001        ..      B        0x800316e ; _printf_core + 826
        0x0800316a:    f04f0901    O...    MOV      r9,#1
        0x0800316e:    45d9        .E      CMP      r9,r11
        0x08003170:    dd02        ..      BLE      0x8003178 ; _printf_core + 836
        0x08003172:    eba9000b    ....    SUB      r0,r9,r11
        0x08003176:    e000        ..      B        0x800317a ; _printf_core + 838
        0x08003178:    2000        .       MOVS     r0,#0
        0x0800317a:    eb00010b    ....    ADD      r1,r0,r11
        0x0800317e:    4441        AD      ADD      r1,r1,r8
        0x08003180:    9008        ..      STR      r0,[sp,#0x20]
        0x08003182:    ebaa0a01    ....    SUB      r10,r10,r1
        0x08003186:    03e0        ..      LSLS     r0,r4,#15
        0x08003188:    d406        ..      BMI      0x8003198 ; _printf_core + 868
        0x0800318a:    e9dd230f    ...#    LDRD     r2,r3,[sp,#0x3c]
        0x0800318e:    4621        !F      MOV      r1,r4
        0x08003190:    4650        PF      MOV      r0,r10
        0x08003192:    f000f863    ..c.    BL       _printf_pre_padding ; 0x800325c
        0x08003196:    4406        .D      ADD      r6,r6,r0
        0x08003198:    f04f0900    O...    MOV      r9,#0
        0x0800319c:    e008        ..      B        0x80031b0 ; _printf_core + 892
        0x0800319e:    a909        ..      ADD      r1,sp,#0x24
        0x080031a0:    f8110009    ....    LDRB     r0,[r1,r9]
        0x080031a4:    e9dd120f    ....    LDRD     r1,r2,[sp,#0x3c]
        0x080031a8:    4790        .G      BLX      r2
        0x080031aa:    f1090901    ....    ADD      r9,r9,#1
        0x080031ae:    1c76        v.      ADDS     r6,r6,#1
        0x080031b0:    45c1        .E      CMP      r9,r8
        0x080031b2:    dbf4        ..      BLT      0x800319e ; _printf_core + 874
        0x080031b4:    03e0        ..      LSLS     r0,r4,#15
        0x080031b6:    d50c        ..      BPL      0x80031d2 ; _printf_core + 926
        0x080031b8:    e9dd230f    ...#    LDRD     r2,r3,[sp,#0x3c]
        0x080031bc:    4621        !F      MOV      r1,r4
        0x080031be:    4650        PF      MOV      r0,r10
        0x080031c0:    f000f84c    ..L.    BL       _printf_pre_padding ; 0x800325c
        0x080031c4:    4406        .D      ADD      r6,r6,r0
        0x080031c6:    e004        ..      B        0x80031d2 ; _printf_core + 926
        0x080031c8:    e9dd120f    ....    LDRD     r1,r2,[sp,#0x3c]
        0x080031cc:    2030        0       MOVS     r0,#0x30
        0x080031ce:    4790        .G      BLX      r2
        0x080031d0:    1c76        v.      ADDS     r6,r6,#1
        0x080031d2:    9908        ..      LDR      r1,[sp,#0x20]
        0x080031d4:    1e48        H.      SUBS     r0,r1,#1
        0x080031d6:    9008        ..      STR      r0,[sp,#0x20]
        0x080031d8:    2900        .)      CMP      r1,#0
        0x080031da:    dcf5        ..      BGT      0x80031c8 ; _printf_core + 916
        0x080031dc:    e008        ..      B        0x80031f0 ; _printf_core + 956
        0x080031de:    980a        ..      LDR      r0,[sp,#0x28]
        0x080031e0:    990a        ..      LDR      r1,[sp,#0x28]
        0x080031e2:    7800        .x      LDRB     r0,[r0,#0]
        0x080031e4:    1c49        I.      ADDS     r1,r1,#1
        0x080031e6:    910a        ..      STR      r1,[sp,#0x28]
        0x080031e8:    e9dd120f    ....    LDRD     r1,r2,[sp,#0x3c]
        0x080031ec:    4790        .G      BLX      r2
        0x080031ee:    1c76        v.      ADDS     r6,r6,#1
        0x080031f0:    f1bb0100    ....    SUBS     r1,r11,#0
        0x080031f4:    f1ab0b01    ....    SUB      r11,r11,#1
        0x080031f8:    dcf1        ..      BGT      0x80031de ; _printf_core + 938
        0x080031fa:    4621        !F      MOV      r1,r4
        0x080031fc:    4650        PF      MOV      r0,r10
        0x080031fe:    e9dd230f    ...#    LDRD     r2,r3,[sp,#0x3c]
        0x08003202:    f000f819    ....    BL       _printf_post_padding ; 0x8003238
        0x08003206:    4406        .D      ADD      r6,r6,r0
        0x08003208:    1c6d        m.      ADDS     r5,r5,#1
        0x0800320a:    e621        !.      B        0x8002e50 ; _printf_core + 28
    $d
        0x0800320c:    00012809    .(..    DCD    75785
        0x08003210:    33323130    0123    DCD    858927408
        0x08003214:    37363534    4567    DCD    926299444
        0x08003218:    62613938    89ab    DCD    1650538808
        0x0800321c:    66656463    cdef    DCD    1717920867
        0x08003220:    00000000    ....    DCD    0
        0x08003224:    33323130    0123    DCD    858927408
        0x08003228:    37363534    4567    DCD    926299444
        0x0800322c:    42413938    89AB    DCD    1111570744
        0x08003230:    46454443    CDEF    DCD    1178944579
        0x08003234:    00000000    ....    DCD    0
    $t
    i._printf_post_padding
    _printf_post_padding
        0x08003238:    e92d41f0    -..A    PUSH     {r4-r8,lr}
        0x0800323c:    4604        .F      MOV      r4,r0
        0x0800323e:    2500        .%      MOVS     r5,#0
        0x08003240:    461e        .F      MOV      r6,r3
        0x08003242:    4617        .F      MOV      r7,r2
        0x08003244:    0488        ..      LSLS     r0,r1,#18
        0x08003246:    d404        ..      BMI      0x8003252 ; _printf_post_padding + 26
        0x08003248:    e005        ..      B        0x8003256 ; _printf_post_padding + 30
        0x0800324a:    4639        9F      MOV      r1,r7
        0x0800324c:    2020                MOVS     r0,#0x20
        0x0800324e:    47b0        .G      BLX      r6
        0x08003250:    1c6d        m.      ADDS     r5,r5,#1
        0x08003252:    1e64        d.      SUBS     r4,r4,#1
        0x08003254:    d5f9        ..      BPL      0x800324a ; _printf_post_padding + 18
        0x08003256:    4628        (F      MOV      r0,r5
        0x08003258:    e8bd81f0    ....    POP      {r4-r8,pc}
    i._printf_pre_padding
    _printf_pre_padding
        0x0800325c:    e92d41f0    -..A    PUSH     {r4-r8,lr}
        0x08003260:    4604        .F      MOV      r4,r0
        0x08003262:    2500        .%      MOVS     r5,#0
        0x08003264:    461e        .F      MOV      r6,r3
        0x08003266:    4690        .F      MOV      r8,r2
        0x08003268:    03c8        ..      LSLS     r0,r1,#15
        0x0800326a:    d501        ..      BPL      0x8003270 ; _printf_pre_padding + 20
        0x0800326c:    2730        0'      MOVS     r7,#0x30
        0x0800326e:    e000        ..      B        0x8003272 ; _printf_pre_padding + 22
        0x08003270:    2720         '      MOVS     r7,#0x20
        0x08003272:    0488        ..      LSLS     r0,r1,#18
        0x08003274:    d504        ..      BPL      0x8003280 ; _printf_pre_padding + 36
        0x08003276:    e005        ..      B        0x8003284 ; _printf_pre_padding + 40
        0x08003278:    4641        AF      MOV      r1,r8
        0x0800327a:    4638        8F      MOV      r0,r7
        0x0800327c:    47b0        .G      BLX      r6
        0x0800327e:    1c6d        m.      ADDS     r5,r5,#1
        0x08003280:    1e64        d.      SUBS     r4,r4,#1
        0x08003282:    d5f9        ..      BPL      0x8003278 ; _printf_pre_padding + 28
        0x08003284:    4628        (F      MOV      r0,r5
        0x08003286:    e8bd81f0    ....    POP      {r4-r8,pc}
    i._sputc
    _sputc
        0x0800328a:    680a        .h      LDR      r2,[r1,#0]
        0x0800328c:    1c53        S.      ADDS     r3,r2,#1
        0x0800328e:    600b        .`      STR      r3,[r1,#0]
        0x08003290:    7010        .p      STRB     r0,[r2,#0]
        0x08003292:    4770        pG      BX       lr
    i.bufchar
    bufchar
        0x08003294:    b510        ..      PUSH     {r4,lr}
        0x08003296:    4602        .F      MOV      r2,r0
        0x08003298:    2300        .#      MOVS     r3,#0
        0x0800329a:    e009        ..      B        0x80032b0 ; bufchar + 28
        0x0800329c:    4806        .H      LDR      r0,[pc,#24] ; [0x80032b8] = 0x20000098
        0x0800329e:    6800        .h      LDR      r0,[r0,#0]
        0x080032a0:    7800        .x      LDRB     r0,[r0,#0]
        0x080032a2:    7010        .p      STRB     r0,[r2,#0]
        0x080032a4:    4804        .H      LDR      r0,[pc,#16] ; [0x80032b8] = 0x20000098
        0x080032a6:    6800        .h      LDR      r0,[r0,#0]
        0x080032a8:    1c40        @.      ADDS     r0,r0,#1
        0x080032aa:    4c03        .L      LDR      r4,[pc,#12] ; [0x80032b8] = 0x20000098
        0x080032ac:    6020         `      STR      r0,[r4,#0]
        0x080032ae:    1c5b        [.      ADDS     r3,r3,#1
        0x080032b0:    428b        .B      CMP      r3,r1
        0x080032b2:    dbf3        ..      BLT      0x800329c ; bufchar + 8
        0x080032b4:    4608        .F      MOV      r0,r1
        0x080032b6:    bd10        ..      POP      {r4,pc}
    $d
        0x080032b8:    20000098    ...     DCD    536871064
    $t
    i.default_msg_handler
    default_msg_handler
        0x080032bc:    b53e        >.      PUSH     {r1-r5,lr}
        0x080032be:    4605        .F      MOV      r5,r0
        0x080032c0:    460c        .F      MOV      r4,r1
        0x080032c2:    6c20         l      LDR      r0,[r4,#0x40]
        0x080032c4:    68c0        .h      LDR      r0,[r0,#0xc]
        0x080032c6:    6c21        !l      LDR      r1,[r4,#0x40]
        0x080032c8:    7809        .x      LDRB     r1,[r1,#0]
        0x080032ca:    4b06        .K      LDR      r3,[pc,#24] ; [0x80032e4] = 0x8007f44
        0x080032cc:    2211        ."      MOVS     r2,#0x11
        0x080032ce:    e9cd4100    ...A    STRD     r4,r1,[sp,#0]
        0x080032d2:    9002        ..      STR      r0,[sp,#8]
        0x080032d4:    a104        ..      ADR      r1,{pc}+0x14 ; 0x80032e8
        0x080032d6:    a00e        ..      ADR      r0,{pc}+0x3a ; 0x8003310
        0x080032d8:    f7fffd44    ..D.    BL       __0printf$8 ; 0x8002d64
        0x080032dc:    a018        ..      ADR      r0,{pc}+0x64 ; 0x8003340
        0x080032de:    f7fffd41    ..A.    BL       __0printf$8 ; 0x8002d64
        0x080032e2:    bd3e        >.      POP      {r1-r5,pc}
    $d
        0x080032e4:    08007f44    D...    DCD    134250308
        0x080032e8:    4d5c2e2e    ..\M    DCD    1297886766
        0x080032ec:    43545451    QTTC    DCD    1129600081
        0x080032f0:    6e65696c    lien    DCD    1852139884
        0x080032f4:    716d5c74    t\mq    DCD    1902992500
        0x080032f8:    6c637474    ttcl    DCD    1818457204
        0x080032fc:    746e6569    ient    DCD    1953391977
        0x08003300:    74716d5c    \mqt    DCD    1953590620
        0x08003304:    696c6374    tcli    DCD    1768711028
        0x08003308:    2e746e65    ent.    DCD    779382373
        0x0800330c:    00000063    c...    DCD    99
        0x08003310:    253a7325    %s:%    DCD    624587557
        0x08003314:    73252064    d %s    DCD    1931812964
        0x08003318:    2e2e2928    ()..    DCD    774777128
        0x0800331c:    6f740a2e    ..to    DCD    1869875758
        0x08003320:    3a636970    pic:    DCD    979593584
        0x08003324:    2c732520     %s,    DCD    745743648
        0x08003328:    736f7120     qos    DCD    1936683296
        0x0800332c:    6425203a    : %d    DCD    1680154682
        0x08003330:    6d0a202c    , .m    DCD    1829380140
        0x08003334:    61737365    essa    DCD    1634956133
        0x08003338:    253a6567    ge:%    DCD    624584039
        0x0800333c:    00000073    s...    DCD    115
        0x08003340:    00000a0d    ....    DCD    2573
    $t
    i.do_random
    do_random
        0x08003344:    b510        ..      PUSH     {r4,lr}
        0x08003346:    4604        .F      MOV      r4,r0
        0x08003348:    4620         F      MOV      r0,r4
        0x0800334a:    f7fcff75    ..u.    BL       srand ; 0x8000238
        0x0800334e:    f7fcff69    ..i.    BL       rand ; 0x8000224
        0x08003352:    bd10        ..      POP      {r4,pc}
    i.fputc
    fputc
        0x08003354:    b513        ..      PUSH     {r0,r1,r4,lr}
        0x08003356:    460c        .F      MOV      r4,r1
        0x08003358:    2000        .       MOVS     r0,#0
        0x0800335a:    4907        .I      LDR      r1,[pc,#28] ; [0x8003378] = 0x20000014
        0x0800335c:    7008        .p      STRB     r0,[r1,#0]
        0x0800335e:    2201        ."      MOVS     r2,#1
        0x08003360:    4669        iF      MOV      r1,sp
        0x08003362:    4806        .H      LDR      r0,[pc,#24] ; [0x800337c] = 0x200004c0
        0x08003364:    f7fefc0e    ....    BL       HAL_UART_Transmit_IT ; 0x8001b84
        0x08003368:    bf00        ..      NOP      
        0x0800336a:    4803        .H      LDR      r0,[pc,#12] ; [0x8003378] = 0x20000014
        0x0800336c:    7800        .x      LDRB     r0,[r0,#0]
        0x0800336e:    2800        .(      CMP      r0,#0
        0x08003370:    d0fb        ..      BEQ      0x800336a ; fputc + 22
        0x08003372:    9800        ..      LDR      r0,[sp,#0]
        0x08003374:    bd1c        ..      POP      {r2-r4,pc}
    $d
        0x08003376:    0000        ..      DCW    0
        0x08003378:    20000014    ...     DCD    536870932
        0x0800337c:    200004c0    ...     DCD    536872128
    $t
    i.main
    main
        0x08003380:    f7fdfc32    ..2.    BL       HAL_Init ; 0x8000be8
        0x08003384:    f7fffa96    ....    BL       SystemClock_Config ; 0x80028b4
        0x08003388:    f7fff952    ..R.    BL       MX_GPIO_Init ; 0x8002630
        0x0800338c:    f7fff9e0    ....    BL       MX_USART1_UART_Init ; 0x8002750
        0x08003390:    f7fff9fa    ....    BL       MX_USART3_UART_Init ; 0x8002788
        0x08003394:    f7fefc30    ..0.    BL       KEY_GPIO_ReInit ; 0x8001bf8
        0x08003398:    480c        .H      LDR      r0,[pc,#48] ; [0x80033cc] = 0x200000b8
        0x0800339a:    f003f8a2    ....    BL       ring_buffer_init ; 0x80064e2
        0x0800339e:    f7fffb13    ....    BL       UART3_Lock_Init ; 0x80029c8
        0x080033a2:    f7fdf8db    ....    BL       EnableDebugIRQ ; 0x800055c
        0x080033a6:    f7fdf8ed    ....    BL       EnableUART3IRQ ; 0x8000584
        0x080033aa:    a009        ..      ADR      r0,{pc}+0x26 ; 0x80033d0
        0x080033ac:    f7fffcda    ....    BL       __0printf$8 ; 0x8002d64
        0x080033b0:    f001ff6c    ..l.    BL       osKernelInitialize ; 0x800528c
        0x080033b4:    f7fff91e    ....    BL       MX_FREERTOS_Init ; 0x80025f4
        0x080033b8:    f7fcffe6    ....    BL       ATInit ; 0x8000388
        0x080033bc:    f001ff86    ....    BL       osKernelStart ; 0x80052cc
        0x080033c0:    2104        .!      MOVS     r1,#4
        0x080033c2:    a007        ..      ADR      r0,{pc}+0x1e ; 0x80033e0
        0x080033c4:    f7fffcb6    ....    BL       USART3_Write ; 0x8002d34
        0x080033c8:    bf00        ..      NOP      
        0x080033ca:    e7fe        ..      B        0x80033ca ; main + 74
    $d
        0x080033cc:    200000b8    ...     DCD    536871096
        0x080033d0:    6c6c6548    Hell    DCD    1819043144
        0x080033d4:    6f57206f    o Wo    DCD    1867980911
        0x080033d8:    21646c72    rld!    DCD    560229490
        0x080033dc:    00000a0d    ....    DCD    2573
        0x080033e0:    0a0d5441    AT..    DCD    168645697
        0x080033e4:    00000000    ....    DCD    0
    $t
    i.mqtt_ack_handler_create
    mqtt_ack_handler_create
        0x080033e8:    e92d47f0    -..G    PUSH     {r4-r10,lr}
        0x080033ec:    4606        .F      MOV      r6,r0
        0x080033ee:    460f        .F      MOV      r7,r1
        0x080033f0:    4690        .F      MOV      r8,r2
        0x080033f2:    461d        .F      MOV      r5,r3
        0x080033f4:    f8dd9020    .. .    LDR      r9,[sp,#0x20]
        0x080033f8:    2400        .$      MOVS     r4,#0
        0x080033fa:    f1050020    .. .    ADD      r0,r5,#0x20
        0x080033fe:    f001fff5    ....    BL       platform_memory_alloc ; 0x80053ec
        0x08003402:    4604        .F      MOV      r4,r0
        0x08003404:    b914        ..      CBNZ     r4,0x800340c ; mqtt_ack_handler_create + 36
        0x08003406:    2000        .       MOVS     r0,#0
        0x08003408:    e8bd87f0    ....    POP      {r4-r10,pc}
        0x0800340c:    4620         F      MOV      r0,r4
        0x0800340e:    f000fceb    ....    BL       mqtt_list_init ; 0x8003de8
        0x08003412:    f1040008    ....    ADD      r0,r4,#8
        0x08003416:    f002f9a6    ....    BL       platform_timer_init ; 0x8005766
        0x0800341a:    f1040008    ....    ADD      r0,r4,#8
        0x0800341e:    6af1        .j      LDR      r1,[r6,#0x2c]
        0x08003420:    f002f997    ....    BL       platform_timer_cutdown ; 0x8005752
        0x08003424:    60e7        .`      STR      r7,[r4,#0xc]
        0x08003426:    f8a48010    ....    STRH     r8,[r4,#0x10]
        0x0800342a:    8325        %.      STRH     r5,[r4,#0x18]
        0x0800342c:    f1040020    .. .    ADD      r0,r4,#0x20
        0x08003430:    61e0        .a      STR      r0,[r4,#0x1c]
        0x08003432:    f8c49014    ....    STR      r9,[r4,#0x14]
        0x08003436:    6a31        1j      LDR      r1,[r6,#0x20]
        0x08003438:    462a        *F      MOV      r2,r5
        0x0800343a:    69e0        .i      LDR      r0,[r4,#0x1c]
        0x0800343c:    f7fcff04    ....    BL       __aeabi_memcpy ; 0x8000248
        0x08003440:    4620         F      MOV      r0,r4
        0x08003442:    e7e1        ..      B        0x8003408 ; mqtt_ack_handler_create + 32
    i.mqtt_ack_handler_destroy
    mqtt_ack_handler_destroy
        0x08003444:    b510        ..      PUSH     {r4,lr}
        0x08003446:    4604        .F      MOV      r4,r0
        0x08003448:    b12c        ,.      CBZ      r4,0x8003456 ; mqtt_ack_handler_destroy + 18
        0x0800344a:    4620         F      MOV      r0,r4
        0x0800344c:    f000fcbc    ....    BL       mqtt_list_del ; 0x8003dc8
        0x08003450:    4620         F      MOV      r0,r4
        0x08003452:    f001ffd8    ....    BL       platform_memory_free ; 0x8005406
        0x08003456:    bd10        ..      POP      {r4,pc}
    i.mqtt_ack_handler_is_maximum
    mqtt_ack_handler_is_maximum
        0x08003458:    4601        .F      MOV      r1,r0
        0x0800345a:    2240        @"      MOVS     r2,#0x40
        0x0800345c:    6a88        .j      LDR      r0,[r1,#0x28]
        0x0800345e:    ebb22f10    .../    CMP      r2,r0,LSR #8
        0x08003462:    dc01        ..      BGT      0x8003468 ; mqtt_ack_handler_is_maximum + 16
        0x08003464:    2001        .       MOVS     r0,#1
        0x08003466:    4770        pG      BX       lr
        0x08003468:    2000        .       MOVS     r0,#0
        0x0800346a:    e7fc        ..      B        0x8003466 ; mqtt_ack_handler_is_maximum + 14
    i.mqtt_ack_handler_resend
    mqtt_ack_handler_resend
        0x0800346c:    b53e        >.      PUSH     {r1-r5,lr}
        0x0800346e:    4605        .F      MOV      r5,r0
        0x08003470:    460c        .F      MOV      r4,r1
        0x08003472:    a802        ..      ADD      r0,sp,#8
        0x08003474:    f002f977    ..w.    BL       platform_timer_init ; 0x8005766
        0x08003478:    a802        ..      ADD      r0,sp,#8
        0x0800347a:    6ae9        .j      LDR      r1,[r5,#0x2c]
        0x0800347c:    f002f969    ..i.    BL       platform_timer_cutdown ; 0x8005752
        0x08003480:    f1040008    ....    ADD      r0,r4,#8
        0x08003484:    6ae9        .j      LDR      r1,[r5,#0x2c]
        0x08003486:    f002f964    ..d.    BL       platform_timer_cutdown ; 0x8005752
        0x0800348a:    f1050050    ..P.    ADD      r0,r5,#0x50
        0x0800348e:    f001ffd0    ....    BL       platform_mutex_lock ; 0x8005432
        0x08003492:    8b22        ".      LDRH     r2,[r4,#0x18]
        0x08003494:    69e1        .i      LDR      r1,[r4,#0x1c]
        0x08003496:    6a28        (j      LDR      r0,[r5,#0x20]
        0x08003498:    f7fcfed6    ....    BL       __aeabi_memcpy ; 0x8000248
        0x0800349c:    8b21        !.      LDRH     r1,[r4,#0x18]
        0x0800349e:    aa02        ..      ADD      r2,sp,#8
        0x080034a0:    4628        (F      MOV      r0,r5
        0x080034a2:    f001f8b5    ....    BL       mqtt_send_packet ; 0x8004610
        0x080034a6:    f1050050    ..P.    ADD      r0,r5,#0x50
        0x080034aa:    f001ffd2    ....    BL       platform_mutex_unlock ; 0x8005452
        0x080034ae:    8a20         .      LDRH     r0,[r4,#0x10]
        0x080034b0:    68e1        .h      LDR      r1,[r4,#0xc]
        0x080034b2:    4b06        .K      LDR      r3,[pc,#24] ; [0x80034cc] = 0x8007f58
        0x080034b4:    f2401265    @.e.    MOV      r2,#0x165
        0x080034b8:    e9cd1000    ....    STRD     r1,r0,[sp,#0]
        0x080034bc:    a104        ..      ADR      r1,{pc}+0x14 ; 0x80034d0
        0x080034be:    a00e        ..      ADR      r0,{pc}+0x3a ; 0x80034f8
        0x080034c0:    f7fffc50    ..P.    BL       __0printf$8 ; 0x8002d64
        0x080034c4:    a019        ..      ADR      r0,{pc}+0x68 ; 0x800352c
        0x080034c6:    f7fffc4d    ..M.    BL       __0printf$8 ; 0x8002d64
        0x080034ca:    bd3e        >.      POP      {r1-r5,pc}
    $d
        0x080034cc:    08007f58    X...    DCD    134250328
        0x080034d0:    4d5c2e2e    ..\M    DCD    1297886766
        0x080034d4:    43545451    QTTC    DCD    1129600081
        0x080034d8:    6e65696c    lien    DCD    1852139884
        0x080034dc:    716d5c74    t\mq    DCD    1902992500
        0x080034e0:    6c637474    ttcl    DCD    1818457204
        0x080034e4:    746e6569    ient    DCD    1953391977
        0x080034e8:    74716d5c    \mqt    DCD    1953590620
        0x080034ec:    696c6374    tcli    DCD    1768711028
        0x080034f0:    2e746e65    ent.    DCD    779382373
        0x080034f4:    00000063    c...    DCD    99
        0x080034f8:    253a7325    %s:%    DCD    624587557
        0x080034fc:    73252064    d %s    DCD    1931812964
        0x08003500:    2e2e2928    ()..    DCD    774777128
        0x08003504:    6572202e    . re    DCD    1701978158
        0x08003508:    646e6573    send    DCD    1684956531
        0x0800350c:    20642520     %d     DCD    543434016
        0x08003510:    6b636170    pack    DCD    1801675120
        0x08003514:    2c656761    age,    DCD    744843105
        0x08003518:    63617020     pac    DCD    1667330080
        0x0800351c:    5f74656b    ket_    DCD    1601463659
        0x08003520:    69206469    id i    DCD    1763730537
        0x08003524:    64252073    s %d    DCD    1680154739
        0x08003528:    00000020     ...    DCD    32
        0x0800352c:    0000000a    ....    DCD    10
    $t
    i.mqtt_ack_list_node_is_exist
    mqtt_ack_list_node_is_exist
        0x08003530:    e92d47f0    -..G    PUSH     {r4-r10,lr}
        0x08003534:    4605        .F      MOV      r5,r0
        0x08003536:    4688        .F      MOV      r8,r1
        0x08003538:    4691        .F      MOV      r9,r2
        0x0800353a:    f1050060    ..`.    ADD      r0,r5,#0x60
        0x0800353e:    f000fc56    ..V.    BL       mqtt_list_is_empty ; 0x8003dee
        0x08003542:    b110        ..      CBZ      r0,0x800354a ; mqtt_ack_list_node_is_exist + 26
        0x08003544:    2000        .       MOVS     r0,#0
        0x08003546:    e8bd87f0    ....    POP      {r4-r10,pc}
        0x0800354a:    6e2c        ,n      LDR      r4,[r5,#0x60]
        0x0800354c:    6826        &h      LDR      r6,[r4,#0]
        0x0800354e:    e00a        ..      B        0x8003566 ; mqtt_ack_list_node_is_exist + 54
        0x08003550:    4627        'F      MOV      r7,r4
        0x08003552:    8a38        8.      LDRH     r0,[r7,#0x10]
        0x08003554:    4548        HE      CMP      r0,r9
        0x08003556:    d104        ..      BNE      0x8003562 ; mqtt_ack_list_node_is_exist + 50
        0x08003558:    68f8        .h      LDR      r0,[r7,#0xc]
        0x0800355a:    4540        @E      CMP      r0,r8
        0x0800355c:    d101        ..      BNE      0x8003562 ; mqtt_ack_list_node_is_exist + 50
        0x0800355e:    2001        .       MOVS     r0,#1
        0x08003560:    e7f1        ..      B        0x8003546 ; mqtt_ack_list_node_is_exist + 22
        0x08003562:    4634        4F      MOV      r4,r6
        0x08003564:    6826        &h      LDR      r6,[r4,#0]
        0x08003566:    f1050060    ..`.    ADD      r0,r5,#0x60
        0x0800356a:    4284        .B      CMP      r4,r0
        0x0800356c:    d1f0        ..      BNE      0x8003550 ; mqtt_ack_list_node_is_exist + 32
        0x0800356e:    2000        .       MOVS     r0,#0
        0x08003570:    e7e9        ..      B        0x8003546 ; mqtt_ack_list_node_is_exist + 22
    i.mqtt_ack_list_record
    mqtt_ack_list_record
        0x08003572:    e92d4ff8    -..O    PUSH     {r3-r11,lr}
        0x08003576:    4604        .F      MOV      r4,r0
        0x08003578:    460e        .F      MOV      r6,r1
        0x0800357a:    4617        .F      MOV      r7,r2
        0x0800357c:    4698        .F      MOV      r8,r3
        0x0800357e:    f8dd9028    ..(.    LDR      r9,[sp,#0x28]
        0x08003582:    f04f0a00    O...    MOV      r10,#0
        0x08003586:    2500        .%      MOVS     r5,#0
        0x08003588:    463a        :F      MOV      r2,r7
        0x0800358a:    4631        1F      MOV      r1,r6
        0x0800358c:    4620         F      MOV      r0,r4
        0x0800358e:    f7ffffcf    ....    BL       mqtt_ack_list_node_is_exist ; 0x8003530
        0x08003592:    b118        ..      CBZ      r0,0x800359c ; mqtt_ack_list_record + 42
        0x08003594:    f06f0016    o...    MVN      r0,#0x16
        0x08003598:    e8bd8ff8    ....    POP      {r3-r11,pc}
        0x0800359c:    4643        CF      MOV      r3,r8
        0x0800359e:    463a        :F      MOV      r2,r7
        0x080035a0:    4631        1F      MOV      r1,r6
        0x080035a2:    4620         F      MOV      r0,r4
        0x080035a4:    f8cd9000    ....    STR      r9,[sp,#0]
        0x080035a8:    f7ffff1e    ....    BL       mqtt_ack_handler_create ; 0x80033e8
        0x080035ac:    4605        .F      MOV      r5,r0
        0x080035ae:    b915        ..      CBNZ     r5,0x80035b6 ; mqtt_ack_list_record + 68
        0x080035b0:    f06f0002    o...    MVN      r0,#2
        0x080035b4:    e7f0        ..      B        0x8003598 ; mqtt_ack_list_record + 38
        0x080035b6:    4620         F      MOV      r0,r4
        0x080035b8:    f000f87e    ..~.    BL       mqtt_add_ack_handler_num ; 0x80036b8
        0x080035bc:    f1040160    ..`.    ADD      r1,r4,#0x60
        0x080035c0:    4628        (F      MOV      r0,r5
        0x080035c2:    f000fbf8    ....    BL       mqtt_list_add_tail ; 0x8003db6
        0x080035c6:    4650        PF      MOV      r0,r10
        0x080035c8:    e7e6        ..      B        0x8003598 ; mqtt_ack_list_record + 38
    i.mqtt_ack_list_scan
    mqtt_ack_list_scan
        0x080035ca:    e92d41f0    -..A    PUSH     {r4-r8,lr}
        0x080035ce:    4606        .F      MOV      r6,r0
        0x080035d0:    4688        .F      MOV      r8,r1
        0x080035d2:    f1060060    ..`.    ADD      r0,r6,#0x60
        0x080035d6:    f000fc0a    ....    BL       mqtt_list_is_empty ; 0x8003dee
        0x080035da:    b920         .      CBNZ     r0,0x80035e6 ; mqtt_ack_list_scan + 28
        0x080035dc:    4630        0F      MOV      r0,r6
        0x080035de:    f000fa6b    ..k.    BL       mqtt_get_client_state ; 0x8003ab8
        0x080035e2:    2801        .(      CMP      r0,#1
        0x080035e4:    d001        ..      BEQ      0x80035ea ; mqtt_ack_list_scan + 32
        0x080035e6:    e8bd81f0    ....    POP      {r4-r8,pc}
        0x080035ea:    6e35        5n      LDR      r5,[r6,#0x60]
        0x080035ec:    682f        /h      LDR      r7,[r5,#0]
        0x080035ee:    e030        0.      B        0x8003652 ; mqtt_ack_list_scan + 136
        0x080035f0:    462c        ,F      MOV      r4,r5
        0x080035f2:    f1040008    ....    ADD      r0,r4,#8
        0x080035f6:    f002f8b9    ....    BL       platform_timer_is_expired ; 0x800576c
        0x080035fa:    b918        ..      CBNZ     r0,0x8003604 ; mqtt_ack_list_scan + 58
        0x080035fc:    f1b80f01    ....    CMP      r8,#1
        0x08003600:    d100        ..      BNE      0x8003604 ; mqtt_ack_list_scan + 58
        0x08003602:    e024        $.      B        0x800364e ; mqtt_ack_list_scan + 132
        0x08003604:    68e0        .h      LDR      r0,[r4,#0xc]
        0x08003606:    2804        .(      CMP      r0,#4
        0x08003608:    d008        ..      BEQ      0x800361c ; mqtt_ack_list_scan + 82
        0x0800360a:    68e0        .h      LDR      r0,[r4,#0xc]
        0x0800360c:    2805        .(      CMP      r0,#5
        0x0800360e:    d005        ..      BEQ      0x800361c ; mqtt_ack_list_scan + 82
        0x08003610:    68e0        .h      LDR      r0,[r4,#0xc]
        0x08003612:    2806        .(      CMP      r0,#6
        0x08003614:    d002        ..      BEQ      0x800361c ; mqtt_ack_list_scan + 82
        0x08003616:    68e0        .h      LDR      r0,[r4,#0xc]
        0x08003618:    2807        .(      CMP      r0,#7
        0x0800361a:    d104        ..      BNE      0x8003626 ; mqtt_ack_list_scan + 92
        0x0800361c:    4621        !F      MOV      r1,r4
        0x0800361e:    4630        0F      MOV      r0,r6
        0x08003620:    f7ffff24    ..$.    BL       mqtt_ack_handler_resend ; 0x800346c
        0x08003624:    e013        ..      B        0x800364e ; mqtt_ack_list_scan + 132
        0x08003626:    68e0        .h      LDR      r0,[r4,#0xc]
        0x08003628:    2809        .(      CMP      r0,#9
        0x0800362a:    d002        ..      BEQ      0x8003632 ; mqtt_ack_list_scan + 104
        0x0800362c:    68e0        .h      LDR      r0,[r4,#0xc]
        0x0800362e:    280b        .(      CMP      r0,#0xb
        0x08003630:    d106        ..      BNE      0x8003640 ; mqtt_ack_list_scan + 118
        0x08003632:    6960        `i      LDR      r0,[r4,#0x14]
        0x08003634:    b120         .      CBZ      r0,0x8003640 ; mqtt_ack_list_scan + 118
        0x08003636:    6960        `i      LDR      r0,[r4,#0x14]
        0x08003638:    f000fbf7    ....    BL       mqtt_msg_handler_destory ; 0x8003e2a
        0x0800363c:    2000        .       MOVS     r0,#0
        0x0800363e:    6160        `a      STR      r0,[r4,#0x14]
        0x08003640:    4620         F      MOV      r0,r4
        0x08003642:    f7fffeff    ....    BL       mqtt_ack_handler_destroy ; 0x8003444
        0x08003646:    4630        0F      MOV      r0,r6
        0x08003648:    f001fa7e    ..~.    BL       mqtt_subtract_ack_handler_num ; 0x8004b48
        0x0800364c:    bf00        ..      NOP      
        0x0800364e:    463d        =F      MOV      r5,r7
        0x08003650:    682f        /h      LDR      r7,[r5,#0]
        0x08003652:    f1060060    ..`.    ADD      r0,r6,#0x60
        0x08003656:    4285        .B      CMP      r5,r0
        0x08003658:    d1ca        ..      BNE      0x80035f0 ; mqtt_ack_list_scan + 38
        0x0800365a:    bf00        ..      NOP      
        0x0800365c:    e7c3        ..      B        0x80035e6 ; mqtt_ack_list_scan + 28
    i.mqtt_ack_list_unrecord
    mqtt_ack_list_unrecord
        0x0800365e:    e92d47f0    -..G    PUSH     {r4-r10,lr}
        0x08003662:    4606        .F      MOV      r6,r0
        0x08003664:    4689        .F      MOV      r9,r1
        0x08003666:    4692        .F      MOV      r10,r2
        0x08003668:    461f        .F      MOV      r7,r3
        0x0800366a:    f1060060    ..`.    ADD      r0,r6,#0x60
        0x0800366e:    f000fbbe    ....    BL       mqtt_list_is_empty ; 0x8003dee
        0x08003672:    b110        ..      CBZ      r0,0x800367a ; mqtt_ack_list_unrecord + 28
        0x08003674:    2000        .       MOVS     r0,#0
        0x08003676:    e8bd87f0    ....    POP      {r4-r10,pc}
        0x0800367a:    6e34        4n      LDR      r4,[r6,#0x60]
        0x0800367c:    f8d48000    ....    LDR      r8,[r4,#0]
        0x08003680:    e014        ..      B        0x80036ac ; mqtt_ack_list_unrecord + 78
        0x08003682:    4625        %F      MOV      r5,r4
        0x08003684:    8a28        (.      LDRH     r0,[r5,#0x10]
        0x08003686:    4550        PE      CMP      r0,r10
        0x08003688:    d102        ..      BNE      0x8003690 ; mqtt_ack_list_unrecord + 50
        0x0800368a:    68e8        .h      LDR      r0,[r5,#0xc]
        0x0800368c:    4548        HE      CMP      r0,r9
        0x0800368e:    d000        ..      BEQ      0x8003692 ; mqtt_ack_list_unrecord + 52
        0x08003690:    e009        ..      B        0x80036a6 ; mqtt_ack_list_unrecord + 72
        0x08003692:    b10f        ..      CBZ      r7,0x8003698 ; mqtt_ack_list_unrecord + 58
        0x08003694:    6968        hi      LDR      r0,[r5,#0x14]
        0x08003696:    6038        8`      STR      r0,[r7,#0]
        0x08003698:    4628        (F      MOV      r0,r5
        0x0800369a:    f7fffed3    ....    BL       mqtt_ack_handler_destroy ; 0x8003444
        0x0800369e:    4630        0F      MOV      r0,r6
        0x080036a0:    f001fa52    ..R.    BL       mqtt_subtract_ack_handler_num ; 0x8004b48
        0x080036a4:    bf00        ..      NOP      
        0x080036a6:    4644        DF      MOV      r4,r8
        0x080036a8:    f8d48000    ....    LDR      r8,[r4,#0]
        0x080036ac:    f1060060    ..`.    ADD      r0,r6,#0x60
        0x080036b0:    4284        .B      CMP      r4,r0
        0x080036b2:    d1e6        ..      BNE      0x8003682 ; mqtt_ack_list_unrecord + 36
        0x080036b4:    2000        .       MOVS     r0,#0
        0x080036b6:    e7de        ..      B        0x8003676 ; mqtt_ack_list_unrecord + 24
    i.mqtt_add_ack_handler_num
    mqtt_add_ack_handler_num
        0x080036b8:    b510        ..      PUSH     {r4,lr}
        0x080036ba:    4604        .F      MOV      r4,r0
        0x080036bc:    f1040054    ..T.    ADD      r0,r4,#0x54
        0x080036c0:    f001feb7    ....    BL       platform_mutex_lock ; 0x8005432
        0x080036c4:    2101        .!      MOVS     r1,#1
        0x080036c6:    6aa0        .j      LDR      r0,[r4,#0x28]
        0x080036c8:    eb012110    ...!    ADD      r1,r1,r0,LSR #8
        0x080036cc:    f361201f    a..     BFI      r0,r1,#8,#24
        0x080036d0:    62a0        .b      STR      r0,[r4,#0x28]
        0x080036d2:    f1040054    ..T.    ADD      r0,r4,#0x54
        0x080036d6:    f001febc    ....    BL       platform_mutex_unlock ; 0x8005452
        0x080036da:    bd10        ..      POP      {r4,pc}
    i.mqtt_clean_session
    mqtt_clean_session
        0x080036dc:    e92d41f0    -..A    PUSH     {r4-r8,lr}
        0x080036e0:    4604        .F      MOV      r4,r0
        0x080036e2:    f1040060    ..`.    ADD      r0,r4,#0x60
        0x080036e6:    f000fb82    ....    BL       mqtt_list_is_empty ; 0x8003dee
        0x080036ea:    b9c0        ..      CBNZ     r0,0x800371e ; mqtt_clean_session + 66
        0x080036ec:    6e25        %n      LDR      r5,[r4,#0x60]
        0x080036ee:    682e        .h      LDR      r6,[r5,#0]
        0x080036f0:    e00f        ..      B        0x8003712 ; mqtt_clean_session + 54
        0x080036f2:    462f        /F      MOV      r7,r5
        0x080036f4:    4638        8F      MOV      r0,r7
        0x080036f6:    f000fb67    ..g.    BL       mqtt_list_del ; 0x8003dc8
        0x080036fa:    6978        xi      LDR      r0,[r7,#0x14]
        0x080036fc:    b120         .      CBZ      r0,0x8003708 ; mqtt_clean_session + 44
        0x080036fe:    6978        xi      LDR      r0,[r7,#0x14]
        0x08003700:    f000fb93    ....    BL       mqtt_msg_handler_destory ; 0x8003e2a
        0x08003704:    2000        .       MOVS     r0,#0
        0x08003706:    6178        xa      STR      r0,[r7,#0x14]
        0x08003708:    4638        8F      MOV      r0,r7
        0x0800370a:    f001fe7c    ..|.    BL       platform_memory_free ; 0x8005406
        0x0800370e:    4635        5F      MOV      r5,r6
        0x08003710:    682e        .h      LDR      r6,[r5,#0]
        0x08003712:    f1040060    ..`.    ADD      r0,r4,#0x60
        0x08003716:    4285        .B      CMP      r5,r0
        0x08003718:    d1eb        ..      BNE      0x80036f2 ; mqtt_clean_session + 22
        0x0800371a:    f000fb5c    ..\.    BL       mqtt_list_del_init ; 0x8003dd6
        0x0800371e:    f8940028    ..(.    LDRB     r0,[r4,#0x28]
        0x08003722:    62a0        .b      STR      r0,[r4,#0x28]
        0x08003724:    f1040058    ..X.    ADD      r0,r4,#0x58
        0x08003728:    f000fb61    ..a.    BL       mqtt_list_is_empty ; 0x8003dee
        0x0800372c:    b9a0        ..      CBNZ     r0,0x8003758 ; mqtt_clean_session + 124
        0x0800372e:    6da5        .m      LDR      r5,[r4,#0x58]
        0x08003730:    682e        .h      LDR      r6,[r5,#0]
        0x08003732:    e00b        ..      B        0x800374c ; mqtt_clean_session + 112
        0x08003734:    46a8        .F      MOV      r8,r5
        0x08003736:    4640        @F      MOV      r0,r8
        0x08003738:    f000fb46    ..F.    BL       mqtt_list_del ; 0x8003dc8
        0x0800373c:    2000        .       MOVS     r0,#0
        0x0800373e:    f8c8000c    ....    STR      r0,[r8,#0xc]
        0x08003742:    4640        @F      MOV      r0,r8
        0x08003744:    f001fe5f    .._.    BL       platform_memory_free ; 0x8005406
        0x08003748:    4635        5F      MOV      r5,r6
        0x0800374a:    682e        .h      LDR      r6,[r5,#0]
        0x0800374c:    f1040058    ..X.    ADD      r0,r4,#0x58
        0x08003750:    4285        .B      CMP      r5,r0
        0x08003752:    d1ef        ..      BNE      0x8003734 ; mqtt_clean_session + 88
        0x08003754:    f000fb3f    ..?.    BL       mqtt_list_del_init ; 0x8003dd6
        0x08003758:    f04f31ff    O..1    MOV      r1,#0xffffffff
        0x0800375c:    4620         F      MOV      r0,r4
        0x0800375e:    f001f80f    ....    BL       mqtt_set_client_state ; 0x8004780
        0x08003762:    e8bd81f0    ....    POP      {r4-r8,pc}
    i.mqtt_connect
    mqtt_connect
        0x08003766:    b510        ..      PUSH     {r4,lr}
        0x08003768:    4604        .F      MOV      r4,r0
        0x0800376a:    4620         F      MOV      r0,r4
        0x0800376c:    f000f802    ....    BL       mqtt_connect_with_results ; 0x8003774
        0x08003770:    bd10        ..      POP      {r4,pc}
        0x08003772:    0000        ..      MOVS     r0,r0
    i.mqtt_connect_with_results
    mqtt_connect_with_results
        0x08003774:    b570        p.      PUSH     {r4-r6,lr}
        0x08003776:    b09a        ..      SUB      sp,sp,#0x68
        0x08003778:    4604        .F      MOV      r4,r0
        0x0800377a:    2500        .%      MOVS     r5,#0
        0x0800377c:    1f2e        ..      SUBS     r6,r5,#4
        0x0800377e:    2000        .       MOVS     r0,#0
        0x08003780:    9018        ..      STR      r0,[sp,#0x60]
        0x08003782:    2258        X"      MOVS     r2,#0x58
        0x08003784:    496c        lI      LDR      r1,[pc,#432] ; [0x8003938] = 0x8007fec
        0x08003786:    a802        ..      ADD      r0,sp,#8
        0x08003788:    f7fcfd5e    ..^.    BL       __aeabi_memcpy ; 0x8000248
        0x0800378c:    b914        ..      CBNZ     r4,0x8003794 ; mqtt_connect_with_results + 32
        0x0800378e:    1ea8        ..      SUBS     r0,r5,#2
        0x08003790:    b01a        ..      ADD      sp,sp,#0x68
        0x08003792:    bd70        p.      POP      {r4-r6,pc}
        0x08003794:    4620         F      MOV      r0,r4
        0x08003796:    f000f98f    ....    BL       mqtt_get_client_state ; 0x8003ab8
        0x0800379a:    2801        .(      CMP      r0,#1
        0x0800379c:    d101        ..      BNE      0x80037a2 ; mqtt_connect_with_results + 46
        0x0800379e:    2000        .       MOVS     r0,#0
        0x080037a0:    e7f6        ..      B        0x8003790 ; mqtt_connect_with_results + 28
        0x080037a2:    2300        .#      MOVS     r3,#0
        0x080037a4:    e9d41203    ....    LDRD     r1,r2,[r4,#0xc]
        0x080037a8:    6ea0        .n      LDR      r0,[r4,#0x68]
        0x080037aa:    f001fd1c    ....    BL       network_init ; 0x80051e6
        0x080037ae:    4606        .F      MOV      r6,r0
        0x080037b0:    6ea0        .n      LDR      r0,[r4,#0x68]
        0x080037b2:    f001fd0c    ....    BL       network_connect ; 0x80051ce
        0x080037b6:    4606        .F      MOV      r6,r0
        0x080037b8:    b136        6.      CBZ      r6,0x80037c8 ; mqtt_connect_with_results + 84
        0x080037ba:    6ea0        .n      LDR      r0,[r4,#0x68]
        0x080037bc:    b120         .      CBZ      r0,0x80037c8 ; mqtt_connect_with_results + 84
        0x080037be:    6ea0        .n      LDR      r0,[r4,#0x68]
        0x080037c0:    f001fd2c    ..,.    BL       network_release ; 0x800521c
        0x080037c4:    4630        0F      MOV      r0,r6
        0x080037c6:    e7e3        ..      B        0x8003790 ; mqtt_connect_with_results + 28
        0x080037c8:    4b5c        \K      LDR      r3,[pc,#368] ; [0x800393c] = 0x8007fd2
        0x080037ca:    f24032df    @..2    MOV      r2,#0x3df
        0x080037ce:    a15c        \.      ADR      r1,{pc}+0x172 ; 0x8003940
        0x080037d0:    a065        e.      ADR      r0,{pc}+0x198 ; 0x8003968
        0x080037d2:    f7fffac7    ....    BL       __0printf$8 ; 0x8002d64
        0x080037d6:    a06e        n.      ADR      r0,{pc}+0x1ba ; 0x8003990
        0x080037d8:    f7fffac4    ....    BL       __0printf$8 ; 0x8002d64
        0x080037dc:    8ca0        ..      LDRH     r0,[r4,#0x24]
        0x080037de:    f8ad0020    .. .    STRH     r0,[sp,#0x20]
        0x080037e2:    f8940028    ..(.    LDRB     r0,[r4,#0x28]
        0x080037e6:    f3c00040    ..@.    UBFX     r0,r0,#1,#1
        0x080037ea:    f88d0022    ..".    STRB     r0,[sp,#0x22]
        0x080037ee:    f8940028    ..(.    LDRB     r0,[r4,#0x28]
        0x080037f2:    f3c01003    ....    UBFX     r0,r0,#4,#4
        0x080037f6:    f88d0010    ....    STRB     r0,[sp,#0x10]
        0x080037fa:    6820         h      LDR      r0,[r4,#0]
        0x080037fc:    9005        ..      STR      r0,[sp,#0x14]
        0x080037fe:    6860        `h      LDR      r0,[r4,#4]
        0x08003800:    9012        ..      STR      r0,[sp,#0x48]
        0x08003802:    68a0        .h      LDR      r0,[r4,#8]
        0x08003804:    9015        ..      STR      r0,[sp,#0x54]
        0x08003806:    f8940028    ..(.    LDRB     r0,[r4,#0x28]
        0x0800380a:    f0000001    ....    AND      r0,r0,#1
        0x0800380e:    b198        ..      CBZ      r0,0x8003838 ; mqtt_connect_with_results + 196
        0x08003810:    f8940028    ..(.    LDRB     r0,[r4,#0x28]
        0x08003814:    f0000001    ....    AND      r0,r0,#1
        0x08003818:    f88d0023    ..#.    STRB     r0,[sp,#0x23]
        0x0800381c:    6ca0        .l      LDR      r0,[r4,#0x48]
        0x0800381e:    6881        .h      LDR      r1,[r0,#8]
        0x08003820:    910e        ..      STR      r1,[sp,#0x38]
        0x08003822:    6ca0        .l      LDR      r0,[r4,#0x48]
        0x08003824:    7801        .x      LDRB     r1,[r0,#0]
        0x08003826:    f88d1045    ..E.    STRB     r1,[sp,#0x45]
        0x0800382a:    6ca0        .l      LDR      r0,[r4,#0x48]
        0x0800382c:    7841        Ax      LDRB     r1,[r0,#1]
        0x0800382e:    f88d1044    ..D.    STRB     r1,[sp,#0x44]
        0x08003832:    6ca0        .l      LDR      r0,[r4,#0x48]
        0x08003834:    6841        Ah      LDR      r1,[r0,#4]
        0x08003836:    910b        ..      STR      r1,[sp,#0x2c]
        0x08003838:    8ca0        ..      LDRH     r0,[r4,#0x24]
        0x0800383a:    f44f727a    O.zr    MOV      r2,#0x3e8
        0x0800383e:    fb00f102    ....    MUL      r1,r0,r2
        0x08003842:    f1040074    ..t.    ADD      r0,r4,#0x74
        0x08003846:    f001ff84    ....    BL       platform_timer_cutdown ; 0x8005752
        0x0800384a:    f1040050    ..P.    ADD      r0,r4,#0x50
        0x0800384e:    f001fdf0    ....    BL       platform_mutex_lock ; 0x8005432
        0x08003852:    aa02        ..      ADD      r2,sp,#8
        0x08003854:    6b61        ak      LDR      r1,[r4,#0x34]
        0x08003856:    6a20         j      LDR      r0,[r4,#0x20]
        0x08003858:    f7fefbfc    ....    BL       MQTTSerialize_connect ; 0x8002054
        0x0800385c:    1e05        ..      SUBS     r5,r0,#0
        0x0800385e:    dc00        ..      BGT      0x8003862 ; mqtt_connect_with_results + 238
        0x08003860:    e026        &.      B        0x80038b0 ; mqtt_connect_with_results + 316
        0x08003862:    a819        ..      ADD      r0,sp,#0x64
        0x08003864:    f001ff7f    ....    BL       platform_timer_init ; 0x8005766
        0x08003868:    a819        ..      ADD      r0,sp,#0x64
        0x0800386a:    6ae1        .j      LDR      r1,[r4,#0x2c]
        0x0800386c:    f001ff71    ..q.    BL       platform_timer_cutdown ; 0x8005752
        0x08003870:    aa19        ..      ADD      r2,sp,#0x64
        0x08003872:    4629        )F      MOV      r1,r5
        0x08003874:    4620         F      MOV      r0,r4
        0x08003876:    f000fecb    ....    BL       mqtt_send_packet ; 0x8004610
        0x0800387a:    1e06        ..      SUBS     r6,r0,#0
        0x0800387c:    d000        ..      BEQ      0x8003880 ; mqtt_connect_with_results + 268
        0x0800387e:    e017        ..      B        0x80038b0 ; mqtt_connect_with_results + 316
        0x08003880:    aa19        ..      ADD      r2,sp,#0x64
        0x08003882:    2102        .!      MOVS     r1,#2
        0x08003884:    4620         F      MOV      r0,r4
        0x08003886:    f001fac5    ....    BL       mqtt_wait_packet ; 0x8004e14
        0x0800388a:    2802        .(      CMP      r0,#2
        0x0800388c:    d10d        ..      BNE      0x80038aa ; mqtt_connect_with_results + 310
        0x0800388e:    a918        ..      ADD      r1,sp,#0x60
        0x08003890:    1c48        H.      ADDS     r0,r1,#1
        0x08003892:    6b23        #k      LDR      r3,[r4,#0x30]
        0x08003894:    69e2        .i      LDR      r2,[r4,#0x1c]
        0x08003896:    f7fefa29    ..).    BL       MQTTDeserialize_connack ; 0x8001cec
        0x0800389a:    2801        .(      CMP      r0,#1
        0x0800389c:    d102        ..      BNE      0x80038a4 ; mqtt_connect_with_results + 304
        0x0800389e:    f89d6060    ..``    LDRB     r6,[sp,#0x60]
        0x080038a2:    e004        ..      B        0x80038ae ; mqtt_connect_with_results + 314
        0x080038a4:    f06f0603    o...    MVN      r6,#3
        0x080038a8:    e001        ..      B        0x80038ae ; mqtt_connect_with_results + 314
        0x080038aa:    f06f0603    o...    MVN      r6,#3
        0x080038ae:    bf00        ..      NOP      
        0x080038b0:    2e00        ..      CMP      r6,#0
        0x080038b2:    d134        4.      BNE      0x800391e ; mqtt_connect_with_results + 426
        0x080038b4:    6ee0        .n      LDR      r0,[r4,#0x6c]
        0x080038b6:    2800        .(      CMP      r0,#0
        0x080038b8:    d128        (.      BNE      0x800390c ; mqtt_connect_with_results + 408
        0x080038ba:    2032        2       MOVS     r0,#0x32
        0x080038bc:    2105        .!      MOVS     r1,#5
        0x080038be:    f44f6380    O..c    MOV      r3,#0x400
        0x080038c2:    4622        "F      MOV      r2,r4
        0x080038c4:    e9cd1000    ....    STRD     r1,r0,[sp,#0]
        0x080038c8:    4932        2I      LDR      r1,[pc,#200] ; [0x8003994] = 0x8005015
        0x080038ca:    a033        3.      ADR      r0,{pc}+0xce ; 0x8003998
        0x080038cc:    f001ff14    ....    BL       platform_thread_init ; 0x80056f8
        0x080038d0:    66e0        .f      STR      r0,[r4,#0x6c]
        0x080038d2:    6ee0        .n      LDR      r0,[r4,#0x6c]
        0x080038d4:    b150        P.      CBZ      r0,0x80038ec ; mqtt_connect_with_results + 376
        0x080038d6:    2101        .!      MOVS     r1,#1
        0x080038d8:    4620         F      MOV      r0,r4
        0x080038da:    f000ff51    ..Q.    BL       mqtt_set_client_state ; 0x8004780
        0x080038de:    6ee0        .n      LDR      r0,[r4,#0x6c]
        0x080038e0:    f001ff30    ..0.    BL       platform_thread_startup ; 0x8005744
        0x080038e4:    6ee0        .n      LDR      r0,[r4,#0x6c]
        0x080038e6:    f001ff27    ..'.    BL       platform_thread_start ; 0x8005738
        0x080038ea:    e013        ..      B        0x8003914 ; mqtt_connect_with_results + 416
        0x080038ec:    6ea0        .n      LDR      r0,[r4,#0x68]
        0x080038ee:    f001fc95    ....    BL       network_release ; 0x800521c
        0x080038f2:    f06f0603    o...    MVN      r6,#3
        0x080038f6:    4b11        .K      LDR      r3,[pc,#68] ; [0x800393c] = 0x8007fd2
        0x080038f8:    f2404216    @..B    MOV      r2,#0x416
        0x080038fc:    a110        ..      ADR      r1,{pc}+0x44 ; 0x8003940
        0x080038fe:    a02b        +.      ADR      r0,{pc}+0xae ; 0x80039ac
        0x08003900:    f7fffa30    ..0.    BL       __0printf$8 ; 0x8002d64
        0x08003904:    a035        5.      ADR      r0,{pc}+0xd8 ; 0x80039dc
        0x08003906:    f7fffa2d    ..-.    BL       __0printf$8 ; 0x8002d64
        0x0800390a:    e003        ..      B        0x8003914 ; mqtt_connect_with_results + 416
        0x0800390c:    2101        .!      MOVS     r1,#1
        0x0800390e:    4620         F      MOV      r0,r4
        0x08003910:    f000ff36    ..6.    BL       mqtt_set_client_state ; 0x8004780
        0x08003914:    6aa0        .j      LDR      r0,[r4,#0x28]
        0x08003916:    f020000c     ...    BIC      r0,r0,#0xc
        0x0800391a:    62a0        .b      STR      r0,[r4,#0x28]
        0x0800391c:    e006        ..      B        0x800392c ; mqtt_connect_with_results + 440
        0x0800391e:    6ea0        .n      LDR      r0,[r4,#0x68]
        0x08003920:    f001fc7c    ..|.    BL       network_release ; 0x800521c
        0x08003924:    2100        .!      MOVS     r1,#0
        0x08003926:    4620         F      MOV      r0,r4
        0x08003928:    f000ff2a    ..*.    BL       mqtt_set_client_state ; 0x8004780
        0x0800392c:    f1040050    ..P.    ADD      r0,r4,#0x50
        0x08003930:    f001fd8f    ....    BL       platform_mutex_unlock ; 0x8005452
        0x08003934:    4630        0F      MOV      r0,r6
        0x08003936:    e72b        +.      B        0x8003790 ; mqtt_connect_with_results + 28
    $d
        0x08003938:    08007fec    ....    DCD    134250476
        0x0800393c:    08007fd2    ....    DCD    134250450
        0x08003940:    4d5c2e2e    ..\M    DCD    1297886766
        0x08003944:    43545451    QTTC    DCD    1129600081
        0x08003948:    6e65696c    lien    DCD    1852139884
        0x0800394c:    716d5c74    t\mq    DCD    1902992500
        0x08003950:    6c637474    ttcl    DCD    1818457204
        0x08003954:    746e6569    ient    DCD    1953391977
        0x08003958:    74716d5c    \mqt    DCD    1953590620
        0x0800395c:    696c6374    tcli    DCD    1768711028
        0x08003960:    2e746e65    ent.    DCD    779382373
        0x08003964:    00000063    c...    DCD    99
        0x08003968:    253a7325    %s:%    DCD    624587557
        0x0800396c:    73252064    d %s    DCD    1931812964
        0x08003970:    2e2e2928    ()..    DCD    774777128
        0x08003974:    716d202e    . mq    DCD    1902977070
        0x08003978:    63207474    tt c    DCD    1663071348
        0x0800397c:    656e6e6f    onne    DCD    1701736047
        0x08003980:    73207463    ct s    DCD    1931506787
        0x08003984:    65636375    ucce    DCD    1701012341
        0x08003988:    2e2e7373    ss..    DCD    774796147
        0x0800398c:    0000002e    ....    DCD    46
        0x08003990:    00000a0d    ....    DCD    2573
        0x08003994:    08005015    .P..    DCD    134238229
        0x08003998:    7474716d    mqtt    DCD    1953788269
        0x0800399c:    6569795f    _yie    DCD    1701411167
        0x080039a0:    745f646c    ld_t    DCD    1952408684
        0x080039a4:    61657268    hrea    DCD    1634038376
        0x080039a8:    00000064    d...    DCD    100
        0x080039ac:    253a7325    %s:%    DCD    624587557
        0x080039b0:    73252064    d %s    DCD    1931812964
        0x080039b4:    2e2e2928    ()..    DCD    774777128
        0x080039b8:    716d202e    . mq    DCD    1902977070
        0x080039bc:    79207474    tt y    DCD    2032170100
        0x080039c0:    646c6569    ield    DCD    1684825449
        0x080039c4:    72687420     thr    DCD    1919448096
        0x080039c8:    20646165    ead     DCD    543449445
        0x080039cc:    61657263    crea    DCD    1634038371
        0x080039d0:    61662074    t fa    DCD    1634082932
        0x080039d4:    2e656c69    ile.    DCD    778398825
        0x080039d8:    00002e2e    ....    DCD    11822
        0x080039dc:    0000000a    ....    DCD    10
    $t
    i.mqtt_decode_packet
    mqtt_decode_packet
        0x080039e0:    e92d4ff8    -..O    PUSH     {r3-r11,lr}
        0x080039e4:    4605        .F      MOV      r5,r0
        0x080039e6:    460c        .F      MOV      r4,r1
        0x080039e8:    4616        .F      MOV      r6,r2
        0x080039ea:    2701        .'      MOVS     r7,#1
        0x080039ec:    f04f0800    O...    MOV      r8,#0
        0x080039f0:    f04f0a04    O...    MOV      r10,#4
        0x080039f4:    2000        .       MOVS     r0,#0
        0x080039f6:    6020         `      STR      r0,[r4,#0]
        0x080039f8:    bf00        ..      NOP      
        0x080039fa:    f04f39ff    O..9    MOV      r9,#0xffffffff
        0x080039fe:    f1080001    ....    ADD      r0,r8,#1
        0x08003a02:    4680        .F      MOV      r8,r0
        0x08003a04:    2804        .(      CMP      r0,#4
        0x08003a06:    dd01        ..      BLE      0x8003a0c ; mqtt_decode_packet + 44
        0x08003a08:    bf00        ..      NOP      
        0x08003a0a:    e01a        ..      B        0x8003a42 ; mqtt_decode_packet + 98
        0x08003a0c:    4633        3F      MOV      r3,r6
        0x08003a0e:    2201        ."      MOVS     r2,#1
        0x08003a10:    4669        iF      MOV      r1,sp
        0x08003a12:    6ea8        .n      LDR      r0,[r5,#0x68]
        0x08003a14:    f001fbf4    ....    BL       network_read ; 0x8005200
        0x08003a18:    4681        .F      MOV      r9,r0
        0x08003a1a:    f1b90f01    ....    CMP      r9,#1
        0x08003a1e:    d000        ..      BEQ      0x8003a22 ; mqtt_decode_packet + 66
        0x08003a20:    e00f        ..      B        0x8003a42 ; mqtt_decode_packet + 98
        0x08003a22:    f89d1000    ....    LDRB     r1,[sp,#0]
        0x08003a26:    f001017f    ....    AND      r1,r1,#0x7f
        0x08003a2a:    6820         h      LDR      r0,[r4,#0]
        0x08003a2c:    fb010007    ....    MLA      r0,r1,r7,r0
        0x08003a30:    6020         `      STR      r0,[r4,#0]
        0x08003a32:    01ff        ..      LSLS     r7,r7,#7
        0x08003a34:    f89d0000    ....    LDRB     r0,[sp,#0]
        0x08003a38:    f0000080    ....    AND      r0,r0,#0x80
        0x08003a3c:    2800        .(      CMP      r0,#0
        0x08003a3e:    d1dc        ..      BNE      0x80039fa ; mqtt_decode_packet + 26
        0x08003a40:    bf00        ..      NOP      
        0x08003a42:    4640        @F      MOV      r0,r8
        0x08003a44:    e8bd8ff8    ....    POP      {r3-r11,pc}
    i.mqtt_deliver_message
    mqtt_deliver_message
        0x08003a48:    e92d43f0    -..C    PUSH     {r4-r9,lr}
        0x08003a4c:    b091        ..      SUB      sp,sp,#0x44
        0x08003a4e:    4604        .F      MOV      r4,r0
        0x08003a50:    460d        .F      MOV      r5,r1
        0x08003a52:    4616        .F      MOV      r6,r2
        0x08003a54:    f04f38ff    O..8    MOV      r8,#0xffffffff
        0x08003a58:    4629        )F      MOV      r1,r5
        0x08003a5a:    4620         F      MOV      r0,r4
        0x08003a5c:    f000f830    ..0.    BL       mqtt_get_msg_handler ; 0x8003ac0
        0x08003a60:    4607        .F      MOV      r7,r0
        0x08003a62:    b15f        _.      CBZ      r7,0x8003a7c ; mqtt_deliver_message + 52
        0x08003a64:    4632        2F      MOV      r2,r6
        0x08003a66:    4629        )F      MOV      r1,r5
        0x08003a68:    4668        hF      MOV      r0,sp
        0x08003a6a:    f000fa4e    ..N.    BL       mqtt_new_message_data ; 0x8003f0a
        0x08003a6e:    4669        iF      MOV      r1,sp
        0x08003a70:    4620         F      MOV      r0,r4
        0x08003a72:    693a        :i      LDR      r2,[r7,#0x10]
        0x08003a74:    4790        .G      BLX      r2
        0x08003a76:    f04f0800    O...    MOV      r8,#0
        0x08003a7a:    e00d        ..      B        0x8003a98 ; mqtt_deliver_message + 80
        0x08003a7c:    6fe0        .o      LDR      r0,[r4,#0x7c]
        0x08003a7e:    b158        X.      CBZ      r0,0x8003a98 ; mqtt_deliver_message + 80
        0x08003a80:    4632        2F      MOV      r2,r6
        0x08003a82:    4629        )F      MOV      r1,r5
        0x08003a84:    4668        hF      MOV      r0,sp
        0x08003a86:    f000fa40    ..@.    BL       mqtt_new_message_data ; 0x8003f0a
        0x08003a8a:    4669        iF      MOV      r1,sp
        0x08003a8c:    4620         F      MOV      r0,r4
        0x08003a8e:    6fe2        .o      LDR      r2,[r4,#0x7c]
        0x08003a90:    4790        .G      BLX      r2
        0x08003a92:    f04f0800    O...    MOV      r8,#0
        0x08003a96:    bf00        ..      NOP      
        0x08003a98:    68f0        .h      LDR      r0,[r6,#0xc]
        0x08003a9a:    f7fcfc0b    ....    BL       strlen ; 0x80002b4
        0x08003a9e:    4681        .F      MOV      r9,r0
        0x08003aa0:    4649        IF      MOV      r1,r9
        0x08003aa2:    68f0        .h      LDR      r0,[r6,#0xc]
        0x08003aa4:    f7fcfbe9    ....    BL       __aeabi_memclr ; 0x800027a
        0x08003aa8:    e9d51001    ....    LDRD     r1,r0,[r5,#4]
        0x08003aac:    f7fcfbe5    ....    BL       __aeabi_memclr ; 0x800027a
        0x08003ab0:    4640        @F      MOV      r0,r8
        0x08003ab2:    b011        ..      ADD      sp,sp,#0x44
        0x08003ab4:    e8bd83f0    ....    POP      {r4-r9,pc}
    i.mqtt_get_client_state
    mqtt_get_client_state
        0x08003ab8:    4601        .F      MOV      r1,r0
        0x08003aba:    f991004c    ..L.    LDRSB    r0,[r1,#0x4c]
        0x08003abe:    4770        pG      BX       lr
    i.mqtt_get_msg_handler
    mqtt_get_msg_handler
        0x08003ac0:    e92d41f0    -..A    PUSH     {r4-r8,lr}
        0x08003ac4:    4606        .F      MOV      r6,r0
        0x08003ac6:    460f        .F      MOV      r7,r1
        0x08003ac8:    6db5        .m      LDR      r5,[r6,#0x58]
        0x08003aca:    f8d58000    ....    LDR      r8,[r5,#0]
        0x08003ace:    e012        ..      B        0x8003af6 ; mqtt_get_msg_handler + 54
        0x08003ad0:    462c        ,F      MOV      r4,r5
        0x08003ad2:    68e0        .h      LDR      r0,[r4,#0xc]
        0x08003ad4:    b160        `.      CBZ      r0,0x8003af0 ; mqtt_get_msg_handler + 48
        0x08003ad6:    4638        8F      MOV      r0,r7
        0x08003ad8:    68e1        .h      LDR      r1,[r4,#0xc]
        0x08003ada:    f7fefa4c    ..L.    BL       MQTTPacket_equals ; 0x8001f76
        0x08003ade:    b920         .      CBNZ     r0,0x8003aea ; mqtt_get_msg_handler + 42
        0x08003ae0:    4639        9F      MOV      r1,r7
        0x08003ae2:    68e0        .h      LDR      r0,[r4,#0xc]
        0x08003ae4:    f001f84a    ..J.    BL       mqtt_topic_is_matched ; 0x8004b7c
        0x08003ae8:    b110        ..      CBZ      r0,0x8003af0 ; mqtt_get_msg_handler + 48
        0x08003aea:    4620         F      MOV      r0,r4
        0x08003aec:    e8bd81f0    ....    POP      {r4-r8,pc}
        0x08003af0:    4645        EF      MOV      r5,r8
        0x08003af2:    f8d58000    ....    LDR      r8,[r5,#0]
        0x08003af6:    f1060058    ..X.    ADD      r0,r6,#0x58
        0x08003afa:    4285        .B      CMP      r5,r0
        0x08003afc:    d1e8        ..      BNE      0x8003ad0 ; mqtt_get_msg_handler + 16
        0x08003afe:    2000        .       MOVS     r0,#0
        0x08003b00:    e7f4        ..      B        0x8003aec ; mqtt_get_msg_handler + 44
    i.mqtt_get_next_packet_id
    mqtt_get_next_packet_id
        0x08003b02:    b510        ..      PUSH     {r4,lr}
        0x08003b04:    4604        .F      MOV      r4,r0
        0x08003b06:    f1040054    ..T.    ADD      r0,r4,#0x54
        0x08003b0a:    f001fc92    ....    BL       platform_mutex_lock ; 0x8005432
        0x08003b0e:    8ce0        ..      LDRH     r0,[r4,#0x26]
        0x08003b10:    f64f71fe    O..q    MOV      r1,#0xfffe
        0x08003b14:    4288        .B      CMP      r0,r1
        0x08003b16:    d101        ..      BNE      0x8003b1c ; mqtt_get_next_packet_id + 26
        0x08003b18:    2001        .       MOVS     r0,#1
        0x08003b1a:    e001        ..      B        0x8003b20 ; mqtt_get_next_packet_id + 30
        0x08003b1c:    8ce0        ..      LDRH     r0,[r4,#0x26]
        0x08003b1e:    1c40        @.      ADDS     r0,r0,#1
        0x08003b20:    84e0        ..      STRH     r0,[r4,#0x26]
        0x08003b22:    f1040054    ..T.    ADD      r0,r4,#0x54
        0x08003b26:    f001fc94    ....    BL       platform_mutex_unlock ; 0x8005452
        0x08003b2a:    8ce0        ..      LDRH     r0,[r4,#0x26]
        0x08003b2c:    bd10        ..      POP      {r4,pc}
        0x08003b2e:    0000        ..      MOVS     r0,r0
    i.mqtt_init
    mqtt_init
        0x08003b30:    b510        ..      PUSH     {r4,lr}
        0x08003b32:    4604        .F      MOV      r4,r0
        0x08003b34:    200c        .       MOVS     r0,#0xc
        0x08003b36:    f001fc59    ..Y.    BL       platform_memory_alloc ; 0x80053ec
        0x08003b3a:    66a0        .f      STR      r0,[r4,#0x68]
        0x08003b3c:    6ea0        .n      LDR      r0,[r4,#0x68]
        0x08003b3e:    b960        `.      CBNZ     r0,0x8003b5a ; mqtt_init + 42
        0x08003b40:    4b2f        /K      LDR      r3,[pc,#188] ; [0x8003c00] = 0x800806f
        0x08003b42:    f240425a    @.ZB    MOV      r2,#0x45a
        0x08003b46:    a12f        /.      ADR      r1,{pc}+0xbe ; 0x8003c04
        0x08003b48:    a038        8.      ADR      r0,{pc}+0xe4 ; 0x8003c2c
        0x08003b4a:    f7fff90b    ....    BL       __0printf$8 ; 0x8002d64
        0x08003b4e:    a041        A.      ADR      r0,{pc}+0x106 ; 0x8003c54
        0x08003b50:    f7fff908    ....    BL       __0printf$8 ; 0x8002d64
        0x08003b54:    f06f0002    o...    MVN      r0,#2
        0x08003b58:    bd10        ..      POP      {r4,pc}
        0x08003b5a:    2100        .!      MOVS     r1,#0
        0x08003b5c:    6ea0        .n      LDR      r0,[r4,#0x68]
        0x08003b5e:    6001        .`      STR      r1,[r0,#0]
        0x08003b60:    6041        A`      STR      r1,[r0,#4]
        0x08003b62:    6081        .`      STR      r1,[r0,#8]
        0x08003b64:    2001        .       MOVS     r0,#1
        0x08003b66:    84e0        ..      STRH     r0,[r4,#0x26]
        0x08003b68:    6aa0        .j      LDR      r0,[r4,#0x28]
        0x08003b6a:    f0200002     ...    BIC      r0,r0,#2
        0x08003b6e:    62a0        .b      STR      r0,[r4,#0x28]
        0x08003b70:    6aa0        .j      LDR      r0,[r4,#0x28]
        0x08003b72:    f0200001     ...    BIC      r0,r0,#1
        0x08003b76:    62a0        .b      STR      r0,[r4,#0x28]
        0x08003b78:    f2427010    B..p    MOV      r0,#0x2710
        0x08003b7c:    62e0        .b      STR      r0,[r4,#0x2c]
        0x08003b7e:    2000        .       MOVS     r0,#0
        0x08003b80:    f884004c    ..L.    STRB     r0,[r4,#0x4c]
        0x08003b84:    6aa0        .j      LDR      r0,[r4,#0x28]
        0x08003b86:    f020000c     ...    BIC      r0,r0,#0xc
        0x08003b8a:    62a0        .b      STR      r0,[r4,#0x28]
        0x08003b8c:    f8940028    ..(.    LDRB     r0,[r4,#0x28]
        0x08003b90:    62a0        .b      STR      r0,[r4,#0x28]
        0x08003b92:    2000        .       MOVS     r0,#0
        0x08003b94:    63e0        .c      STR      r0,[r4,#0x3c]
        0x08003b96:    6420         d      STR      r0,[r4,#0x40]
        0x08003b98:    6460        `d      STR      r0,[r4,#0x44]
        0x08003b9a:    2064        d       MOVS     r0,#0x64
        0x08003b9c:    84a0        ..      STRH     r0,[r4,#0x24]
        0x08003b9e:    6aa0        .j      LDR      r0,[r4,#0x28]
        0x08003ba0:    f02000f0     ...    BIC      r0,r0,#0xf0
        0x08003ba4:    3040        @0      ADDS     r0,r0,#0x40
        0x08003ba6:    62a0        .b      STR      r0,[r4,#0x28]
        0x08003ba8:    f44f707a    O.zp    MOV      r0,#0x3e8
        0x08003bac:    63a0        .c      STR      r0,[r4,#0x38]
        0x08003bae:    2000        .       MOVS     r0,#0
        0x08003bb0:    64a0        .d      STR      r0,[r4,#0x48]
        0x08003bb2:    61a0        .a      STR      r0,[r4,#0x18]
        0x08003bb4:    67a0        .g      STR      r0,[r4,#0x78]
        0x08003bb6:    67e0        .g      STR      r0,[r4,#0x7c]
        0x08003bb8:    f44f6180    O..a    MOV      r1,#0x400
        0x08003bbc:    4620         F      MOV      r0,r4
        0x08003bbe:    f000fc4d    ..M.    BL       mqtt_read_buf_malloc ; 0x800445c
        0x08003bc2:    f44f6180    O..a    MOV      r1,#0x400
        0x08003bc6:    4620         F      MOV      r0,r4
        0x08003bc8:    f001f93e    ..>.    BL       mqtt_write_buf_malloc ; 0x8004e48
        0x08003bcc:    f1040058    ..X.    ADD      r0,r4,#0x58
        0x08003bd0:    f000f90a    ....    BL       mqtt_list_init ; 0x8003de8
        0x08003bd4:    f1040060    ..`.    ADD      r0,r4,#0x60
        0x08003bd8:    f000f906    ....    BL       mqtt_list_init ; 0x8003de8
        0x08003bdc:    f1040050    ..P.    ADD      r0,r4,#0x50
        0x08003be0:    f001fc17    ....    BL       platform_mutex_init ; 0x8005412
        0x08003be4:    f1040054    ..T.    ADD      r0,r4,#0x54
        0x08003be8:    f001fc13    ....    BL       platform_mutex_init ; 0x8005412
        0x08003bec:    f1040070    ..p.    ADD      r0,r4,#0x70
        0x08003bf0:    f001fdb9    ....    BL       platform_timer_init ; 0x8005766
        0x08003bf4:    f1040074    ..t.    ADD      r0,r4,#0x74
        0x08003bf8:    f001fdb5    ....    BL       platform_timer_init ; 0x8005766
        0x08003bfc:    2000        .       MOVS     r0,#0
        0x08003bfe:    e7ab        ..      B        0x8003b58 ; mqtt_init + 40
    $d
        0x08003c00:    0800806f    o...    DCD    134250607
        0x08003c04:    4d5c2e2e    ..\M    DCD    1297886766
        0x08003c08:    43545451    QTTC    DCD    1129600081
        0x08003c0c:    6e65696c    lien    DCD    1852139884
        0x08003c10:    716d5c74    t\mq    DCD    1902992500
        0x08003c14:    6c637474    ttcl    DCD    1818457204
        0x08003c18:    746e6569    ient    DCD    1953391977
        0x08003c1c:    74716d5c    \mqt    DCD    1953590620
        0x08003c20:    696c6374    tcli    DCD    1768711028
        0x08003c24:    2e746e65    ent.    DCD    779382373
        0x08003c28:    00000063    c...    DCD    99
        0x08003c2c:    253a7325    %s:%    DCD    624587557
        0x08003c30:    73252064    d %s    DCD    1931812964
        0x08003c34:    2e2e2928    ()..    DCD    774777128
        0x08003c38:    616d202e    . ma    DCD    1634541614
        0x08003c3c:    636f6c6c    lloc    DCD    1668246636
        0x08003c40:    6d656d20     mem    DCD    1835363616
        0x08003c44:    2079726f    ory     DCD    544830063
        0x08003c48:    6c696166    fail    DCD    1818845542
        0x08003c4c:    2e2e6465    ed..    DCD    774792293
        0x08003c50:    0000002e    ....    DCD    46
        0x08003c54:    0000000a    ....    DCD    10
    $t
    i.mqtt_is_connected
    mqtt_is_connected
        0x08003c58:    b570        p.      PUSH     {r4-r6,lr}
        0x08003c5a:    4605        .F      MOV      r5,r0
        0x08003c5c:    4628        (F      MOV      r0,r5
        0x08003c5e:    f7ffff2b    ..+.    BL       mqtt_get_client_state ; 0x8003ab8
        0x08003c62:    4604        .F      MOV      r4,r0
        0x08003c64:    2c03        .,      CMP      r4,#3
        0x08003c66:    d102        ..      BNE      0x8003c6e ; mqtt_is_connected + 22
        0x08003c68:    f06f0017    o...    MVN      r0,#0x17
        0x08003c6c:    bd70        p.      POP      {r4-r6,pc}
        0x08003c6e:    2c01        .,      CMP      r4,#1
        0x08003c70:    d002        ..      BEQ      0x8003c78 ; mqtt_is_connected + 32
        0x08003c72:    f06f000d    o...    MVN      r0,#0xd
        0x08003c76:    e7f9        ..      B        0x8003c6c ; mqtt_is_connected + 20
        0x08003c78:    2000        .       MOVS     r0,#0
        0x08003c7a:    e7f7        ..      B        0x8003c6c ; mqtt_is_connected + 20
    i.mqtt_is_topic_equals
    mqtt_is_topic_equals
        0x08003c7c:    b570        p.      PUSH     {r4-r6,lr}
        0x08003c7e:    4606        .F      MOV      r6,r0
        0x08003c80:    460c        .F      MOV      r4,r1
        0x08003c82:    2500        .%      MOVS     r5,#0
        0x08003c84:    4620         F      MOV      r0,r4
        0x08003c86:    f7fcfb15    ....    BL       strlen ; 0x80002b4
        0x08003c8a:    4605        .F      MOV      r5,r0
        0x08003c8c:    4630        0F      MOV      r0,r6
        0x08003c8e:    f7fcfb11    ....    BL       strlen ; 0x80002b4
        0x08003c92:    42a8        .B      CMP      r0,r5
        0x08003c94:    d001        ..      BEQ      0x8003c9a ; mqtt_is_topic_equals + 30
        0x08003c96:    2000        .       MOVS     r0,#0
        0x08003c98:    bd70        p.      POP      {r4-r6,pc}
        0x08003c9a:    462a        *F      MOV      r2,r5
        0x08003c9c:    4621        !F      MOV      r1,r4
        0x08003c9e:    4630        0F      MOV      r0,r6
        0x08003ca0:    f7fcfb0f    ....    BL       strncmp ; 0x80002c2
        0x08003ca4:    b908        ..      CBNZ     r0,0x8003caa ; mqtt_is_topic_equals + 46
        0x08003ca6:    2001        .       MOVS     r0,#1
        0x08003ca8:    e7f6        ..      B        0x8003c98 ; mqtt_is_topic_equals + 28
        0x08003caa:    2000        .       MOVS     r0,#0
        0x08003cac:    e7f4        ..      B        0x8003c98 ; mqtt_is_topic_equals + 28
        0x08003cae:    0000        ..      MOVS     r0,r0
    i.mqtt_keep_alive
    mqtt_keep_alive
        0x08003cb0:    b5f8        ..      PUSH     {r3-r7,lr}
        0x08003cb2:    4604        .F      MOV      r4,r0
        0x08003cb4:    2500        .%      MOVS     r5,#0
        0x08003cb6:    4620         F      MOV      r0,r4
        0x08003cb8:    f7ffffce    ....    BL       mqtt_is_connected ; 0x8003c58
        0x08003cbc:    4605        .F      MOV      r5,r0
        0x08003cbe:    b10d        ..      CBZ      r5,0x8003cc4 ; mqtt_keep_alive + 20
        0x08003cc0:    4628        (F      MOV      r0,r5
        0x08003cc2:    bdf8        ..      POP      {r3-r7,pc}
        0x08003cc4:    f1040070    ..p.    ADD      r0,r4,#0x70
        0x08003cc8:    f001fd50    ..P.    BL       platform_timer_is_expired ; 0x800576c
        0x08003ccc:    b928        (.      CBNZ     r0,0x8003cda ; mqtt_keep_alive + 42
        0x08003cce:    f1040074    ..t.    ADD      r0,r4,#0x74
        0x08003cd2:    f001fd4b    ..K.    BL       platform_timer_is_expired ; 0x800576c
        0x08003cd6:    2800        .(      CMP      r0,#0
        0x08003cd8:    d02e        ..      BEQ      0x8003d38 ; mqtt_keep_alive + 136
        0x08003cda:    f8940028    ..(.    LDRB     r0,[r4,#0x28]
        0x08003cde:    f3c00081    ....    UBFX     r0,r0,#2,#2
        0x08003ce2:    b198        ..      CBZ      r0,0x8003d0c ; mqtt_keep_alive + 92
        0x08003ce4:    4b15        .K      LDR      r3,[pc,#84] ; [0x8003d3c] = 0x80081b6
        0x08003ce6:    f24042ad    @..B    MOV      r2,#0x4ad
        0x08003cea:    a115        ..      ADR      r1,{pc}+0x56 ; 0x8003d40
        0x08003cec:    a01e        ..      ADR      r0,{pc}+0x7c ; 0x8003d68
        0x08003cee:    f7fff839    ..9.    BL       __0printf$8 ; 0x8002d64
        0x08003cf2:    a025        %.      ADR      r0,{pc}+0x96 ; 0x8003d88
        0x08003cf4:    f7fff836    ..6.    BL       __0printf$8 ; 0x8002d64
        0x08003cf8:    6ea0        .n      LDR      r0,[r4,#0x68]
        0x08003cfa:    f001fa8f    ....    BL       network_release ; 0x800521c
        0x08003cfe:    2102        .!      MOVS     r1,#2
        0x08003d00:    4620         F      MOV      r0,r4
        0x08003d02:    f000fd3d    ..=.    BL       mqtt_set_client_state ; 0x8004780
        0x08003d06:    f06f050d    o...    MVN      r5,#0xd
        0x08003d0a:    e015        ..      B        0x8003d38 ; mqtt_keep_alive + 136
        0x08003d0c:    6b61        ak      LDR      r1,[r4,#0x34]
        0x08003d0e:    6a20         j      LDR      r0,[r4,#0x20]
        0x08003d10:    f7fefa8f    ....    BL       MQTTSerialize_pingreq ; 0x8002232
        0x08003d14:    4606        .F      MOV      r6,r0
        0x08003d16:    2e00        ..      CMP      r6,#0
        0x08003d18:    dd05        ..      BLE      0x8003d26 ; mqtt_keep_alive + 118
        0x08003d1a:    466a        jF      MOV      r2,sp
        0x08003d1c:    4631        1F      MOV      r1,r6
        0x08003d1e:    4620         F      MOV      r0,r4
        0x08003d20:    f000fc76    ..v.    BL       mqtt_send_packet ; 0x8004610
        0x08003d24:    4605        .F      MOV      r5,r0
        0x08003d26:    f8940028    ..(.    LDRB     r0,[r4,#0x28]
        0x08003d2a:    0880        ..      LSRS     r0,r0,#2
        0x08003d2c:    1c40        @.      ADDS     r0,r0,#1
        0x08003d2e:    6aa1        .j      LDR      r1,[r4,#0x28]
        0x08003d30:    f3600183    `...    BFI      r1,r0,#2,#2
        0x08003d34:    62a1        .b      STR      r1,[r4,#0x28]
        0x08003d36:    bf00        ..      NOP      
        0x08003d38:    4628        (F      MOV      r0,r5
        0x08003d3a:    e7c2        ..      B        0x8003cc2 ; mqtt_keep_alive + 18
    $d
        0x08003d3c:    080081b6    ....    DCD    134250934
        0x08003d40:    4d5c2e2e    ..\M    DCD    1297886766
        0x08003d44:    43545451    QTTC    DCD    1129600081
        0x08003d48:    6e65696c    lien    DCD    1852139884
        0x08003d4c:    716d5c74    t\mq    DCD    1902992500
        0x08003d50:    6c637474    ttcl    DCD    1818457204
        0x08003d54:    746e6569    ient    DCD    1953391977
        0x08003d58:    74716d5c    \mqt    DCD    1953590620
        0x08003d5c:    696c6374    tcli    DCD    1768711028
        0x08003d60:    2e746e65    ent.    DCD    779382373
        0x08003d64:    00000063    c...    DCD    99
        0x08003d68:    253a7325    %s:%    DCD    624587557
        0x08003d6c:    73252064    d %s    DCD    1931812964
        0x08003d70:    2e2e2928    ()..    DCD    774777128
        0x08003d74:    6970202e    . pi    DCD    1768955950
        0x08003d78:    6f20676e    ng o    DCD    1864394606
        0x08003d7c:    74737475    utst    DCD    1953723509
        0x08003d80:    69646e61    andi    DCD    1768189537
        0x08003d84:    0000676e    ng..    DCD    26478
        0x08003d88:    0000000a    ....    DCD    10
    $t
    i.mqtt_lease
    mqtt_lease
        0x08003d8c:    b570        p.      PUSH     {r4-r6,lr}
        0x08003d8e:    2080        .       MOVS     r0,#0x80
        0x08003d90:    f001fb2c    ..,.    BL       platform_memory_alloc ; 0x80053ec
        0x08003d94:    4605        .F      MOV      r5,r0
        0x08003d96:    b90d        ..      CBNZ     r5,0x8003d9c ; mqtt_lease + 16
        0x08003d98:    2000        .       MOVS     r0,#0
        0x08003d9a:    bd70        p.      POP      {r4-r6,pc}
        0x08003d9c:    2180        .!      MOVS     r1,#0x80
        0x08003d9e:    4628        (F      MOV      r0,r5
        0x08003da0:    f7fcfa6b    ..k.    BL       __aeabi_memclr ; 0x800027a
        0x08003da4:    4628        (F      MOV      r0,r5
        0x08003da6:    f7fffec3    ....    BL       mqtt_init ; 0x8003b30
        0x08003daa:    4604        .F      MOV      r4,r0
        0x08003dac:    b10c        ..      CBZ      r4,0x8003db2 ; mqtt_lease + 38
        0x08003dae:    2000        .       MOVS     r0,#0
        0x08003db0:    e7f3        ..      B        0x8003d9a ; mqtt_lease + 14
        0x08003db2:    4628        (F      MOV      r0,r5
        0x08003db4:    e7f1        ..      B        0x8003d9a ; mqtt_lease + 14
    i.mqtt_list_add_tail
    mqtt_list_add_tail
        0x08003db6:    b570        p.      PUSH     {r4-r6,lr}
        0x08003db8:    4605        .F      MOV      r5,r0
        0x08003dba:    460c        .F      MOV      r4,r1
        0x08003dbc:    4622        "F      MOV      r2,r4
        0x08003dbe:    4628        (F      MOV      r0,r5
        0x08003dc0:    6861        ah      LDR      r1,[r4,#4]
        0x08003dc2:    f7fff827    ..'.    BL       _mqtt_list_add ; 0x8002e14
        0x08003dc6:    bd70        p.      POP      {r4-r6,pc}
    i.mqtt_list_del
    mqtt_list_del
        0x08003dc8:    b510        ..      PUSH     {r4,lr}
        0x08003dca:    4604        .F      MOV      r4,r0
        0x08003dcc:    e9d41000    ....    LDRD     r1,r0,[r4,#0]
        0x08003dd0:    f7fff825    ..%.    BL       _mqtt_list_del ; 0x8002e1e
        0x08003dd4:    bd10        ..      POP      {r4,pc}
    i.mqtt_list_del_init
    mqtt_list_del_init
        0x08003dd6:    b510        ..      PUSH     {r4,lr}
        0x08003dd8:    4604        .F      MOV      r4,r0
        0x08003dda:    4620         F      MOV      r0,r4
        0x08003ddc:    f7fff822    ..".    BL       _mqtt_list_del_entry ; 0x8002e24
        0x08003de0:    4620         F      MOV      r0,r4
        0x08003de2:    f000f801    ....    BL       mqtt_list_init ; 0x8003de8
        0x08003de6:    bd10        ..      POP      {r4,pc}
    i.mqtt_list_init
    mqtt_list_init
        0x08003de8:    6000        .`      STR      r0,[r0,#0]
        0x08003dea:    6040        @`      STR      r0,[r0,#4]
        0x08003dec:    4770        pG      BX       lr
    i.mqtt_list_is_empty
    mqtt_list_is_empty
        0x08003dee:    4601        .F      MOV      r1,r0
        0x08003df0:    6808        .h      LDR      r0,[r1,#0]
        0x08003df2:    4288        .B      CMP      r0,r1
        0x08003df4:    d101        ..      BNE      0x8003dfa ; mqtt_list_is_empty + 12
        0x08003df6:    2001        .       MOVS     r0,#1
        0x08003df8:    4770        pG      BX       lr
        0x08003dfa:    2000        .       MOVS     r0,#0
        0x08003dfc:    e7fc        ..      B        0x8003df8 ; mqtt_list_is_empty + 10
    i.mqtt_msg_handler_create
    mqtt_msg_handler_create
        0x08003dfe:    e92d41f0    -..A    PUSH     {r4-r8,lr}
        0x08003e02:    4605        .F      MOV      r5,r0
        0x08003e04:    460e        .F      MOV      r6,r1
        0x08003e06:    4617        .F      MOV      r7,r2
        0x08003e08:    2400        .$      MOVS     r4,#0
        0x08003e0a:    2014        .       MOVS     r0,#0x14
        0x08003e0c:    f001faee    ....    BL       platform_memory_alloc ; 0x80053ec
        0x08003e10:    4604        .F      MOV      r4,r0
        0x08003e12:    b914        ..      CBNZ     r4,0x8003e1a ; mqtt_msg_handler_create + 28
        0x08003e14:    2000        .       MOVS     r0,#0
        0x08003e16:    e8bd81f0    ....    POP      {r4-r8,pc}
        0x08003e1a:    4620         F      MOV      r0,r4
        0x08003e1c:    f7ffffe4    ....    BL       mqtt_list_init ; 0x8003de8
        0x08003e20:    7226        &r      STRB     r6,[r4,#8]
        0x08003e22:    6127        'a      STR      r7,[r4,#0x10]
        0x08003e24:    60e5        .`      STR      r5,[r4,#0xc]
        0x08003e26:    4620         F      MOV      r0,r4
        0x08003e28:    e7f5        ..      B        0x8003e16 ; mqtt_msg_handler_create + 24
    i.mqtt_msg_handler_destory
    mqtt_msg_handler_destory
        0x08003e2a:    b510        ..      PUSH     {r4,lr}
        0x08003e2c:    4604        .F      MOV      r4,r0
        0x08003e2e:    b12c        ,.      CBZ      r4,0x8003e3c ; mqtt_msg_handler_destory + 18
        0x08003e30:    4620         F      MOV      r0,r4
        0x08003e32:    f7ffffc9    ....    BL       mqtt_list_del ; 0x8003dc8
        0x08003e36:    4620         F      MOV      r0,r4
        0x08003e38:    f001fae5    ....    BL       platform_memory_free ; 0x8005406
        0x08003e3c:    bd10        ..      POP      {r4,pc}
        0x08003e3e:    0000        ..      MOVS     r0,r0
    i.mqtt_msg_handler_is_exist
    mqtt_msg_handler_is_exist
        0x08003e40:    e92d41fc    -..A    PUSH     {r2-r8,lr}
        0x08003e44:    4605        .F      MOV      r5,r0
        0x08003e46:    460f        .F      MOV      r7,r1
        0x08003e48:    f1050058    ..X.    ADD      r0,r5,#0x58
        0x08003e4c:    f7ffffcf    ....    BL       mqtt_list_is_empty ; 0x8003dee
        0x08003e50:    b110        ..      CBZ      r0,0x8003e58 ; mqtt_msg_handler_is_exist + 24
        0x08003e52:    2000        .       MOVS     r0,#0
        0x08003e54:    e8bd81fc    ....    POP      {r2-r8,pc}
        0x08003e58:    6dac        .m      LDR      r4,[r5,#0x58]
        0x08003e5a:    f8d48000    ....    LDR      r8,[r4,#0]
        0x08003e5e:    e01a        ..      B        0x8003e96 ; mqtt_msg_handler_is_exist + 86
        0x08003e60:    4626        &F      MOV      r6,r4
        0x08003e62:    68f0        .h      LDR      r0,[r6,#0xc]
        0x08003e64:    b1a0        ..      CBZ      r0,0x8003e90 ; mqtt_msg_handler_is_exist + 80
        0x08003e66:    68f9        .h      LDR      r1,[r7,#0xc]
        0x08003e68:    68f0        .h      LDR      r0,[r6,#0xc]
        0x08003e6a:    f7ffff07    ....    BL       mqtt_is_topic_equals ; 0x8003c7c
        0x08003e6e:    b178        x.      CBZ      r0,0x8003e90 ; mqtt_msg_handler_is_exist + 80
        0x08003e70:    68f8        .h      LDR      r0,[r7,#0xc]
        0x08003e72:    68f1        .h      LDR      r1,[r6,#0xc]
        0x08003e74:    4b0b        .K      LDR      r3,[pc,#44] ; [0x8003ea4] = 0x8007f70
        0x08003e76:    f24012d1    @...    MOV      r2,#0x1d1
        0x08003e7a:    e9cd1000    ....    STRD     r1,r0,[sp,#0]
        0x08003e7e:    a10a        ..      ADR      r1,{pc}+0x2a ; 0x8003ea8
        0x08003e80:    4813        .H      LDR      r0,[pc,#76] ; [0x8003ed0] = 0x8008290
        0x08003e82:    f7feff6f    ..o.    BL       __0printf$8 ; 0x8002d64
        0x08003e86:    a013        ..      ADR      r0,{pc}+0x4e ; 0x8003ed4
        0x08003e88:    f7feff6c    ..l.    BL       __0printf$8 ; 0x8002d64
        0x08003e8c:    2001        .       MOVS     r0,#1
        0x08003e8e:    e7e1        ..      B        0x8003e54 ; mqtt_msg_handler_is_exist + 20
        0x08003e90:    4644        DF      MOV      r4,r8
        0x08003e92:    f8d48000    ....    LDR      r8,[r4,#0]
        0x08003e96:    f1050058    ..X.    ADD      r0,r5,#0x58
        0x08003e9a:    4284        .B      CMP      r4,r0
        0x08003e9c:    d1e0        ..      BNE      0x8003e60 ; mqtt_msg_handler_is_exist + 32
        0x08003e9e:    2000        .       MOVS     r0,#0
        0x08003ea0:    e7d8        ..      B        0x8003e54 ; mqtt_msg_handler_is_exist + 20
    $d
        0x08003ea2:    0000        ..      DCW    0
        0x08003ea4:    08007f70    p...    DCD    134250352
        0x08003ea8:    4d5c2e2e    ..\M    DCD    1297886766
        0x08003eac:    43545451    QTTC    DCD    1129600081
        0x08003eb0:    6e65696c    lien    DCD    1852139884
        0x08003eb4:    716d5c74    t\mq    DCD    1902992500
        0x08003eb8:    6c637474    ttcl    DCD    1818457204
        0x08003ebc:    746e6569    ient    DCD    1953391977
        0x08003ec0:    74716d5c    \mqt    DCD    1953590620
        0x08003ec4:    696c6374    tcli    DCD    1768711028
        0x08003ec8:    2e746e65    ent.    DCD    779382373
        0x08003ecc:    00000063    c...    DCD    99
        0x08003ed0:    08008290    ....    DCD    134251152
        0x08003ed4:    0000000a    ....    DCD    10
    $t
    i.mqtt_msg_handlers_install
    mqtt_msg_handlers_install
        0x08003ed8:    b570        p.      PUSH     {r4-r6,lr}
        0x08003eda:    4605        .F      MOV      r5,r0
        0x08003edc:    460c        .F      MOV      r4,r1
        0x08003ede:    b105        ..      CBZ      r5,0x8003ee2 ; mqtt_msg_handlers_install + 10
        0x08003ee0:    b914        ..      CBNZ     r4,0x8003ee8 ; mqtt_msg_handlers_install + 16
        0x08003ee2:    f06f0001    o...    MVN      r0,#1
        0x08003ee6:    bd70        p.      POP      {r4-r6,pc}
        0x08003ee8:    4621        !F      MOV      r1,r4
        0x08003eea:    4628        (F      MOV      r0,r5
        0x08003eec:    f7ffffa8    ....    BL       mqtt_msg_handler_is_exist ; 0x8003e40
        0x08003ef0:    b120         .      CBZ      r0,0x8003efc ; mqtt_msg_handlers_install + 36
        0x08003ef2:    4620         F      MOV      r0,r4
        0x08003ef4:    f7ffff99    ....    BL       mqtt_msg_handler_destory ; 0x8003e2a
        0x08003ef8:    2000        .       MOVS     r0,#0
        0x08003efa:    e7f4        ..      B        0x8003ee6 ; mqtt_msg_handlers_install + 14
        0x08003efc:    f1050158    ..X.    ADD      r1,r5,#0x58
        0x08003f00:    4620         F      MOV      r0,r4
        0x08003f02:    f7ffff58    ..X.    BL       mqtt_list_add_tail ; 0x8003db6
        0x08003f06:    2000        .       MOVS     r0,#0
        0x08003f08:    e7ed        ..      B        0x8003ee6 ; mqtt_msg_handlers_install + 14
    i.mqtt_new_message_data
    mqtt_new_message_data
        0x08003f0a:    e92d41f0    -..A    PUSH     {r4-r8,lr}
        0x08003f0e:    4605        .F      MOV      r5,r0
        0x08003f10:    460c        .F      MOV      r4,r1
        0x08003f12:    4616        .F      MOV      r6,r2
        0x08003f14:    6860        `h      LDR      r0,[r4,#4]
        0x08003f16:    283f        ?(      CMP      r0,#0x3f
        0x08003f18:    da01        ..      BGE      0x8003f1e ; mqtt_new_message_data + 20
        0x08003f1a:    6860        `h      LDR      r0,[r4,#4]
        0x08003f1c:    e000        ..      B        0x8003f20 ; mqtt_new_message_data + 22
        0x08003f1e:    203f        ?       MOVS     r0,#0x3f
        0x08003f20:    4607        .F      MOV      r7,r0
        0x08003f22:    463a        :F      MOV      r2,r7
        0x08003f24:    4628        (F      MOV      r0,r5
        0x08003f26:    68a1        .h      LDR      r1,[r4,#8]
        0x08003f28:    f7fcf98e    ....    BL       __aeabi_memcpy ; 0x8000248
        0x08003f2c:    2000        .       MOVS     r0,#0
        0x08003f2e:    55e8        .U      STRB     r0,[r5,r7]
        0x08003f30:    642e        .d      STR      r6,[r5,#0x40]
        0x08003f32:    e8bd81f0    ....    POP      {r4-r8,pc}
    i.mqtt_packet_drain
    mqtt_packet_drain
        0x08003f36:    e92d47f0    -..G    PUSH     {r4-r10,lr}
        0x08003f3a:    4604        .F      MOV      r4,r0
        0x08003f3c:    4688        .F      MOV      r8,r1
        0x08003f3e:    4615        .F      MOV      r5,r2
        0x08003f40:    2600        .&      MOVS     r6,#0
        0x08003f42:    2700        .'      MOVS     r7,#0
        0x08003f44:    46b1        .F      MOV      r9,r6
        0x08003f46:    6b20         k      LDR      r0,[r4,#0x30]
        0x08003f48:    42a8        .B      CMP      r0,r5
        0x08003f4a:    d901        ..      BLS      0x8003f50 ; mqtt_packet_drain + 26
        0x08003f4c:    46a9        .F      MOV      r9,r5
        0x08003f4e:    e001        ..      B        0x8003f54 ; mqtt_packet_drain + 30
        0x08003f50:    f8d49030    ..0.    LDR      r9,[r4,#0x30]
        0x08003f54:    bf00        ..      NOP      
        0x08003f56:    4640        @F      MOV      r0,r8
        0x08003f58:    f001fc17    ....    BL       platform_timer_remain ; 0x800578a
        0x08003f5c:    4682        .F      MOV      r10,r0
        0x08003f5e:    4653        SF      MOV      r3,r10
        0x08003f60:    464a        JF      MOV      r2,r9
        0x08003f62:    69e1        .i      LDR      r1,[r4,#0x1c]
        0x08003f64:    6ea0        .n      LDR      r0,[r4,#0x68]
        0x08003f66:    f001f94b    ..K.    BL       network_read ; 0x8005200
        0x08003f6a:    4607        .F      MOV      r7,r0
        0x08003f6c:    b14f        O.      CBZ      r7,0x8003f82 ; mqtt_packet_drain + 76
        0x08003f6e:    443e        >D      ADD      r6,r6,r7
        0x08003f70:    1ba8        ..      SUBS     r0,r5,r6
        0x08003f72:    6b21        !k      LDR      r1,[r4,#0x30]
        0x08003f74:    4288        .B      CMP      r0,r1
        0x08003f76:    d302        ..      BCC      0x8003f7e ; mqtt_packet_drain + 72
        0x08003f78:    f8d49030    ..0.    LDR      r9,[r4,#0x30]
        0x08003f7c:    e001        ..      B        0x8003f82 ; mqtt_packet_drain + 76
        0x08003f7e:    eba50906    ....    SUB      r9,r5,r6
        0x08003f82:    42ae        .B      CMP      r6,r5
        0x08003f84:    da01        ..      BGE      0x8003f8a ; mqtt_packet_drain + 84
        0x08003f86:    2f00        ./      CMP      r7,#0
        0x08003f88:    d1e5        ..      BNE      0x8003f56 ; mqtt_packet_drain + 32
        0x08003f8a:    e8bd87f0    ....    POP      {r4-r10,pc}
        0x08003f8e:    0000        ..      MOVS     r0,r0
    i.mqtt_packet_handle
    mqtt_packet_handle
        0x08003f90:    b5f8        ..      PUSH     {r3-r7,lr}
        0x08003f92:    4604        .F      MOV      r4,r0
        0x08003f94:    460e        .F      MOV      r6,r1
        0x08003f96:    2500        .%      MOVS     r5,#0
        0x08003f98:    2000        .       MOVS     r0,#0
        0x08003f9a:    9000        ..      STR      r0,[sp,#0]
        0x08003f9c:    4632        2F      MOV      r2,r6
        0x08003f9e:    4669        iF      MOV      r1,sp
        0x08003fa0:    4620         F      MOV      r0,r4
        0x08003fa2:    f000facd    ....    BL       mqtt_read_packet ; 0x8004540
        0x08003fa6:    4605        .F      MOV      r5,r0
        0x08003fa8:    9800        ..      LDR      r0,[sp,#0]
        0x08003faa:    280e        .(      CMP      r0,#0xe
        0x08003fac:    d238        8.      BCS      0x8004020 ; mqtt_packet_handle + 144
        0x08003fae:    e8dff000    ....    TBB      [pc,r0]
    $d
        0x08003fb2:    3707        .7      DCW    14087
        0x08003fb4:    2b122511    .%.+    DCD    722609425
        0x08003fb8:    1937132c    ,.7.    DCD    423039788
        0x08003fbc:    32371f37    7.72    DCD    842473271
    $t
        0x08003fc0:    f1150f08    ....    CMN      r5,#8
        0x08003fc4:    d105        ..      BNE      0x8003fd2 ; mqtt_packet_handle + 66
        0x08003fc6:    481c        .H      LDR      r0,[pc,#112] ; [0x8004038] = 0x800822c
        0x08003fc8:    f7fefecc    ....    BL       __0printf$8 ; 0x8002d64
        0x08003fcc:    a01b        ..      ADR      r0,{pc}+0x70 ; 0x800403c
        0x08003fce:    f7fefec9    ....    BL       __0printf$8 ; 0x8002d64
        0x08003fd2:    e026        &.      B        0x8004022 ; mqtt_packet_handle + 146
        0x08003fd4:    e02b        +.      B        0x800402e ; mqtt_packet_handle + 158
        0x08003fd6:    bf00        ..      NOP      
        0x08003fd8:    4631        1F      MOV      r1,r6
        0x08003fda:    4620         F      MOV      r0,r4
        0x08003fdc:    f000f830    ..0.    BL       mqtt_puback_and_pubcomp_packet_handle ; 0x8004040
        0x08003fe0:    4605        .F      MOV      r5,r0
        0x08003fe2:    e01e        ..      B        0x8004022 ; mqtt_packet_handle + 146
        0x08003fe4:    4631        1F      MOV      r1,r6
        0x08003fe6:    4620         F      MOV      r0,r4
        0x08003fe8:    f000fcf8    ....    BL       mqtt_suback_packet_handle ; 0x80049dc
        0x08003fec:    4605        .F      MOV      r5,r0
        0x08003fee:    e018        ..      B        0x8004022 ; mqtt_packet_handle + 146
        0x08003ff0:    4631        1F      MOV      r1,r6
        0x08003ff2:    4620         F      MOV      r0,r4
        0x08003ff4:    f000fee4    ....    BL       mqtt_unsuback_packet_handle ; 0x8004dc0
        0x08003ff8:    4605        .F      MOV      r5,r0
        0x08003ffa:    e012        ..      B        0x8004022 ; mqtt_packet_handle + 146
        0x08003ffc:    4631        1F      MOV      r1,r6
        0x08003ffe:    4620         F      MOV      r0,r4
        0x08004000:    f000f981    ....    BL       mqtt_publish_packet_handle ; 0x8004306
        0x08004004:    4605        .F      MOV      r5,r0
        0x08004006:    e00c        ..      B        0x8004022 ; mqtt_packet_handle + 146
        0x08004008:    bf00        ..      NOP      
        0x0800400a:    4631        1F      MOV      r1,r6
        0x0800400c:    4620         F      MOV      r0,r4
        0x0800400e:    f000f9f7    ....    BL       mqtt_pubrec_and_pubrel_packet_handle ; 0x8004400
        0x08004012:    4605        .F      MOV      r5,r0
        0x08004014:    e005        ..      B        0x8004022 ; mqtt_packet_handle + 146
        0x08004016:    6aa0        .j      LDR      r0,[r4,#0x28]
        0x08004018:    f020000c     ...    BIC      r0,r0,#0xc
        0x0800401c:    62a0        .b      STR      r0,[r4,#0x28]
        0x0800401e:    e000        ..      B        0x8004022 ; mqtt_packet_handle + 146
        0x08004020:    bf00        ..      NOP      
        0x08004022:    bf00        ..      NOP      
        0x08004024:    4620         F      MOV      r0,r4
        0x08004026:    f7fffe43    ..C.    BL       mqtt_keep_alive ; 0x8003cb0
        0x0800402a:    4605        .F      MOV      r5,r0
        0x0800402c:    bf00        ..      NOP      
        0x0800402e:    b905        ..      CBNZ     r5,0x8004032 ; mqtt_packet_handle + 162
        0x08004030:    9d00        ..      LDR      r5,[sp,#0]
        0x08004032:    4628        (F      MOV      r0,r5
        0x08004034:    bdf8        ..      POP      {r3-r7,pc}
    $d
        0x08004036:    0000        ..      DCW    0
        0x08004038:    0800822c    ,...    DCD    134251052
        0x0800403c:    0000000a    ....    DCD    10
    $t
    i.mqtt_puback_and_pubcomp_packet_handle
    mqtt_puback_and_pubcomp_packet_handle
        0x08004040:    b57f        ..      PUSH     {r0-r6,lr}
        0x08004042:    4604        .F      MOV      r4,r0
        0x08004044:    460e        .F      MOV      r6,r1
        0x08004046:    f04f35ff    O..5    MOV      r5,#0xffffffff
        0x0800404a:    4620         F      MOV      r0,r4
        0x0800404c:    f7fffe04    ....    BL       mqtt_is_connected ; 0x8003c58
        0x08004050:    4605        .F      MOV      r5,r0
        0x08004052:    b115        ..      CBZ      r5,0x800405a ; mqtt_puback_and_pubcomp_packet_handle + 26
        0x08004054:    4628        (F      MOV      r0,r5
        0x08004056:    b004        ..      ADD      sp,sp,#0x10
        0x08004058:    bd70        p.      POP      {r4-r6,pc}
        0x0800405a:    6b20         k      LDR      r0,[r4,#0x30]
        0x0800405c:    9000        ..      STR      r0,[sp,#0]
        0x0800405e:    aa03        ..      ADD      r2,sp,#0xc
        0x08004060:    a902        ..      ADD      r1,sp,#8
        0x08004062:    a801        ..      ADD      r0,sp,#4
        0x08004064:    69e3        .i      LDR      r3,[r4,#0x1c]
        0x08004066:    f7fdfe0b    ....    BL       MQTTDeserialize_ack ; 0x8001c80
        0x0800406a:    2801        .(      CMP      r0,#1
        0x0800406c:    d001        ..      BEQ      0x8004072 ; mqtt_puback_and_pubcomp_packet_handle + 50
        0x0800406e:    f06f0508    o...    MVN      r5,#8
        0x08004072:    2300        .#      MOVS     r3,#0
        0x08004074:    f8bd200c    ...     LDRH     r2,[sp,#0xc]
        0x08004078:    f89d1004    ....    LDRB     r1,[sp,#4]
        0x0800407c:    4620         F      MOV      r0,r4
        0x0800407e:    f7fffaee    ....    BL       mqtt_ack_list_unrecord ; 0x800365e
        0x08004082:    4605        .F      MOV      r5,r0
        0x08004084:    4628        (F      MOV      r0,r5
        0x08004086:    e7e6        ..      B        0x8004056 ; mqtt_puback_and_pubcomp_packet_handle + 22
    i.mqtt_publish
    mqtt_publish
        0x08004088:    e92d41f0    -..A    PUSH     {r4-r8,lr}
        0x0800408c:    b08c        ..      SUB      sp,sp,#0x30
        0x0800408e:    4605        .F      MOV      r5,r0
        0x08004090:    4688        .F      MOV      r8,r1
        0x08004092:    4614        .F      MOV      r4,r2
        0x08004094:    2600        .&      MOVS     r6,#0
        0x08004096:    1e77        w.      SUBS     r7,r6,#1
        0x08004098:    2000        .       MOVS     r0,#0
        0x0800409a:    9008        ..      STR      r0,[sp,#0x20]
        0x0800409c:    9009        ..      STR      r0,[sp,#0x24]
        0x0800409e:    900a        ..      STR      r0,[sp,#0x28]
        0x080040a0:    f8cd8020    .. .    STR      r8,[sp,#0x20]
        0x080040a4:    4628        (F      MOV      r0,r5
        0x080040a6:    f7fffd07    ....    BL       mqtt_get_client_state ; 0x8003ab8
        0x080040aa:    2801        .(      CMP      r0,#1
        0x080040ac:    d002        ..      BEQ      0x80040b4 ; mqtt_publish + 44
        0x080040ae:    f06f070d    o...    MVN      r7,#0xd
        0x080040b2:    e065        e.      B        0x8004180 ; mqtt_publish + 248
        0x080040b4:    68e0        .h      LDR      r0,[r4,#0xc]
        0x080040b6:    b128        (.      CBZ      r0,0x80040c4 ; mqtt_publish + 60
        0x080040b8:    68a0        .h      LDR      r0,[r4,#8]
        0x080040ba:    b918        ..      CBNZ     r0,0x80040c4 ; mqtt_publish + 60
        0x080040bc:    68e0        .h      LDR      r0,[r4,#0xc]
        0x080040be:    f7fcf8f9    ....    BL       strlen ; 0x80002b4
        0x080040c2:    60a0        .`      STR      r0,[r4,#8]
        0x080040c4:    68a0        .h      LDR      r0,[r4,#8]
        0x080040c6:    6b69        ik      LDR      r1,[r5,#0x34]
        0x080040c8:    4288        .B      CMP      r0,r1
        0x080040ca:    d90a        ..      BLS      0x80040e2 ; mqtt_publish + 90
        0x080040cc:    a03c        <.      ADR      r0,{pc}+0xf4 ; 0x80041c0
        0x080040ce:    f7fefe49    ..I.    BL       __0printf$8 ; 0x8002d64
        0x080040d2:    a04b        K.      ADR      r0,{pc}+0x12e ; 0x8004200
        0x080040d4:    f7fefe46    ..F.    BL       __0printf$8 ; 0x8002d64
        0x080040d8:    f06f0007    o...    MVN      r0,#7
        0x080040dc:    b00c        ..      ADD      sp,sp,#0x30
        0x080040de:    e8bd81f0    ....    POP      {r4-r8,pc}
        0x080040e2:    f1050050    ..P.    ADD      r0,r5,#0x50
        0x080040e6:    f001f9a4    ....    BL       platform_mutex_lock ; 0x8005432
        0x080040ea:    7820         x      LDRB     r0,[r4,#0]
        0x080040ec:    b150        P.      CBZ      r0,0x8004104 ; mqtt_publish + 124
        0x080040ee:    4628        (F      MOV      r0,r5
        0x080040f0:    f7fff9b2    ....    BL       mqtt_ack_handler_is_maximum ; 0x8003458
        0x080040f4:    b110        ..      CBZ      r0,0x80040fc ; mqtt_publish + 116
        0x080040f6:    f06f0715    o...    MVN      r7,#0x15
        0x080040fa:    e041        A.      B        0x8004180 ; mqtt_publish + 248
        0x080040fc:    4628        (F      MOV      r0,r5
        0x080040fe:    f7fffd00    ....    BL       mqtt_get_next_packet_id ; 0x8003b02
        0x08004102:    80a0        ..      STRH     r0,[r4,#4]
        0x08004104:    e9d41002    ....    LDRD     r1,r0,[r4,#8]
        0x08004108:    e9cd0105    ....    STRD     r0,r1,[sp,#0x14]
        0x0800410c:    a808        ..      ADD      r0,sp,#0x20
        0x0800410e:    c807        ..      LDM      r0,{r0-r2}
        0x08004110:    ab02        ..      ADD      r3,sp,#8
        0x08004112:    c307        ..      STM      r3!,{r0-r2}
        0x08004114:    88a0        ..      LDRH     r0,[r4,#4]
        0x08004116:    7861        ax      LDRB     r1,[r4,#1]
        0x08004118:    e9cd1000    ....    STRD     r1,r0,[sp,#0]
        0x0800411c:    7823        #x      LDRB     r3,[r4,#0]
        0x0800411e:    2200        ."      MOVS     r2,#0
        0x08004120:    6b69        ik      LDR      r1,[r5,#0x34]
        0x08004122:    6a28        (j      LDR      r0,[r5,#0x20]
        0x08004124:    f7fef88e    ....    BL       MQTTSerialize_publish ; 0x8002244
        0x08004128:    4606        .F      MOV      r6,r0
        0x0800412a:    2e00        ..      CMP      r6,#0
        0x0800412c:    dc00        ..      BGT      0x8004130 ; mqtt_publish + 168
        0x0800412e:    e027        '.      B        0x8004180 ; mqtt_publish + 248
        0x08004130:    aa0b        ..      ADD      r2,sp,#0x2c
        0x08004132:    4631        1F      MOV      r1,r6
        0x08004134:    4628        (F      MOV      r0,r5
        0x08004136:    f000fa6b    ..k.    BL       mqtt_send_packet ; 0x8004610
        0x0800413a:    1e07        ..      SUBS     r7,r0,#0
        0x0800413c:    d000        ..      BEQ      0x8004140 ; mqtt_publish + 184
        0x0800413e:    e01f        ..      B        0x8004180 ; mqtt_publish + 248
        0x08004140:    7820         x      LDRB     r0,[r4,#0]
        0x08004142:    b1e0        ..      CBZ      r0,0x800417e ; mqtt_publish + 246
        0x08004144:    2101        .!      MOVS     r1,#1
        0x08004146:    4628        (F      MOV      r0,r5
        0x08004148:    f000fbdc    ....    BL       mqtt_set_publish_dup ; 0x8004904
        0x0800414c:    7820         x      LDRB     r0,[r4,#0]
        0x0800414e:    2801        .(      CMP      r0,#1
        0x08004150:    d109        ..      BNE      0x8004166 ; mqtt_publish + 222
        0x08004152:    2000        .       MOVS     r0,#0
        0x08004154:    b2b3        ..      UXTH     r3,r6
        0x08004156:    9000        ..      STR      r0,[sp,#0]
        0x08004158:    88a2        ..      LDRH     r2,[r4,#4]
        0x0800415a:    2104        .!      MOVS     r1,#4
        0x0800415c:    4628        (F      MOV      r0,r5
        0x0800415e:    f7fffa08    ....    BL       mqtt_ack_list_record ; 0x8003572
        0x08004162:    4607        .F      MOV      r7,r0
        0x08004164:    e00b        ..      B        0x800417e ; mqtt_publish + 246
        0x08004166:    7820         x      LDRB     r0,[r4,#0]
        0x08004168:    2802        .(      CMP      r0,#2
        0x0800416a:    d108        ..      BNE      0x800417e ; mqtt_publish + 246
        0x0800416c:    2000        .       MOVS     r0,#0
        0x0800416e:    b2b3        ..      UXTH     r3,r6
        0x08004170:    9000        ..      STR      r0,[sp,#0]
        0x08004172:    88a2        ..      LDRH     r2,[r4,#4]
        0x08004174:    2105        .!      MOVS     r1,#5
        0x08004176:    4628        (F      MOV      r0,r5
        0x08004178:    f7fff9fb    ....    BL       mqtt_ack_list_record ; 0x8003572
        0x0800417c:    4607        .F      MOV      r7,r0
        0x0800417e:    bf00        ..      NOP      
        0x08004180:    2000        .       MOVS     r0,#0
        0x08004182:    60a0        .`      STR      r0,[r4,#8]
        0x08004184:    f1050050    ..P.    ADD      r0,r5,#0x50
        0x08004188:    f001f963    ..c.    BL       platform_mutex_unlock ; 0x8005452
        0x0800418c:    f1170f16    ....    CMN      r7,#0x16
        0x08004190:    d002        ..      BEQ      0x8004198 ; mqtt_publish + 272
        0x08004192:    f1170f03    ....    CMN      r7,#3
        0x08004196:    d110        ..      BNE      0x80041ba ; mqtt_publish + 306
        0x08004198:    4b1a        .K      LDR      r3,[pc,#104] ; [0x8004204] = 0x80081d3
        0x0800419a:    f44f62b5    O..b    MOV      r2,#0x5a8
        0x0800419e:    a11a        ..      ADR      r1,{pc}+0x6a ; 0x8004208
        0x080041a0:    a023        #.      ADR      r0,{pc}+0x90 ; 0x8004230
        0x080041a2:    f7fefddf    ....    BL       __0printf$8 ; 0x8002d64
        0x080041a6:    a016        ..      ADR      r0,{pc}+0x5a ; 0x8004200
        0x080041a8:    f7fefddc    ....    BL       __0printf$8 ; 0x8002d64
        0x080041ac:    6ea8        .n      LDR      r0,[r5,#0x68]
        0x080041ae:    f001f835    ..5.    BL       network_release ; 0x800521c
        0x080041b2:    2102        .!      MOVS     r1,#2
        0x080041b4:    4628        (F      MOV      r0,r5
        0x080041b6:    f000fae3    ....    BL       mqtt_set_client_state ; 0x8004780
        0x080041ba:    4638        8F      MOV      r0,r7
        0x080041bc:    e78e        ..      B        0x80040dc ; mqtt_publish + 84
    $d
        0x080041be:    0000        ..      DCW    0
        0x080041c0:    6c627570    publ    DCD    1818391920
        0x080041c4:    20687369    ish     DCD    543716201
        0x080041c8:    6c796170    payl    DCD    1819894128
        0x080041cc:    2064616f    oad     DCD    543449455
        0x080041d0:    206e656c    len     DCD    544105836
        0x080041d4:    69207369    is i    DCD    1763734377
        0x080041d8:    72672073    s gr    DCD    1919361139
        0x080041dc:    65746165    eate    DCD    1702125925
        0x080041e0:    68742072    r th    DCD    1752440946
        0x080041e4:    63206e61    an c    DCD    1663069793
        0x080041e8:    6e65696c    lien    DCD    1852139884
        0x080041ec:    72772074    t wr    DCD    1920409716
        0x080041f0:    20657469    ite     DCD    543519849
        0x080041f4:    66667562    buff    DCD    1717990754
        0x080041f8:    2e2e7265    er..    DCD    774795877
        0x080041fc:    0000002e    ....    DCD    46
        0x08004200:    0000000a    ....    DCD    10
        0x08004204:    080081d3    ....    DCD    134250963
        0x08004208:    4d5c2e2e    ..\M    DCD    1297886766
        0x0800420c:    43545451    QTTC    DCD    1129600081
        0x08004210:    6e65696c    lien    DCD    1852139884
        0x08004214:    716d5c74    t\mq    DCD    1902992500
        0x08004218:    6c637474    ttcl    DCD    1818457204
        0x0800421c:    746e6569    ient    DCD    1953391977
        0x08004220:    74716d5c    \mqt    DCD    1953590620
        0x08004224:    696c6374    tcli    DCD    1768711028
        0x08004228:    2e746e65    ent.    DCD    779382373
        0x0800422c:    00000063    c...    DCD    99
        0x08004230:    253a7325    %s:%    DCD    624587557
        0x08004234:    73252064    d %s    DCD    1931812964
        0x08004238:    2e2e2928    ()..    DCD    774777128
        0x0800423c:    6874202e    . th    DCD    1752440878
        0x08004240:    20657265    ere     DCD    543519333
        0x08004244:    6e207369    is n    DCD    1847620457
        0x08004248:    6520746f    ot e    DCD    1696625775
        0x0800424c:    67756f6e    noug    DCD    1735749486
        0x08004250:    656d2068    h me    DCD    1701650536
        0x08004254:    79726f6d    mory    DCD    2037542765
        0x08004258:    61707320     spa    DCD    1634759456
        0x0800425c:    74206563    ce t    DCD    1948280163
        0x08004260:    6572206f    o re    DCD    1701978223
        0x08004264:    64726f63    cord    DCD    1685221219
        0x08004268:    002e2e2e    ....    DCD    3026478
    $t
    i.mqtt_publish_ack_packet
    mqtt_publish_ack_packet
        0x0800426c:    e92d41fc    -..A    PUSH     {r2-r8,lr}
        0x08004270:    4604        .F      MOV      r4,r0
        0x08004272:    460d        .F      MOV      r5,r1
        0x08004274:    4617        .F      MOV      r7,r2
        0x08004276:    2600        .&      MOVS     r6,#0
        0x08004278:    46b0        .F      MOV      r8,r6
        0x0800427a:    a801        ..      ADD      r0,sp,#4
        0x0800427c:    f001fa73    ..s.    BL       platform_timer_init ; 0x8005766
        0x08004280:    a801        ..      ADD      r0,sp,#4
        0x08004282:    6ae1        .j      LDR      r1,[r4,#0x2c]
        0x08004284:    f001fa65    ..e.    BL       platform_timer_cutdown ; 0x8005752
        0x08004288:    f1040050    ..P.    ADD      r0,r4,#0x50
        0x0800428c:    f001f8d1    ....    BL       platform_mutex_lock ; 0x8005432
        0x08004290:    2f05        ./      CMP      r7,#5
        0x08004292:    d002        ..      BEQ      0x800429a ; mqtt_publish_ack_packet + 46
        0x08004294:    2f06        ./      CMP      r7,#6
        0x08004296:    d11f        ..      BNE      0x80042d8 ; mqtt_publish_ack_packet + 108
        0x08004298:    e015        ..      B        0x80042c6 ; mqtt_publish_ack_packet + 90
        0x0800429a:    9500        ..      STR      r5,[sp,#0]
        0x0800429c:    2300        .#      MOVS     r3,#0
        0x0800429e:    2206        ."      MOVS     r2,#6
        0x080042a0:    6b61        ak      LDR      r1,[r4,#0x34]
        0x080042a2:    6a20         j      LDR      r0,[r4,#0x20]
        0x080042a4:    f7fdfe9c    ....    BL       MQTTSerialize_ack ; 0x8001fe0
        0x080042a8:    4606        .F      MOV      r6,r0
        0x080042aa:    2000        .       MOVS     r0,#0
        0x080042ac:    b2b3        ..      UXTH     r3,r6
        0x080042ae:    462a        *F      MOV      r2,r5
        0x080042b0:    2107        .!      MOVS     r1,#7
        0x080042b2:    9000        ..      STR      r0,[sp,#0]
        0x080042b4:    4620         F      MOV      r0,r4
        0x080042b6:    f7fff95c    ..\.    BL       mqtt_ack_list_record ; 0x8003572
        0x080042ba:    4680        .F      MOV      r8,r0
        0x080042bc:    f1b80f00    ....    CMP      r8,#0
        0x080042c0:    d000        ..      BEQ      0x80042c4 ; mqtt_publish_ack_packet + 88
        0x080042c2:    e019        ..      B        0x80042f8 ; mqtt_publish_ack_packet + 140
        0x080042c4:    e00b        ..      B        0x80042de ; mqtt_publish_ack_packet + 114
        0x080042c6:    9500        ..      STR      r5,[sp,#0]
        0x080042c8:    2300        .#      MOVS     r3,#0
        0x080042ca:    2207        ."      MOVS     r2,#7
        0x080042cc:    6b61        ak      LDR      r1,[r4,#0x34]
        0x080042ce:    6a20         j      LDR      r0,[r4,#0x20]
        0x080042d0:    f7fdfe86    ....    BL       MQTTSerialize_ack ; 0x8001fe0
        0x080042d4:    4606        .F      MOV      r6,r0
        0x080042d6:    e002        ..      B        0x80042de ; mqtt_publish_ack_packet + 114
        0x080042d8:    f06f0809    o...    MVN      r8,#9
        0x080042dc:    e00c        ..      B        0x80042f8 ; mqtt_publish_ack_packet + 140
        0x080042de:    bf00        ..      NOP      
        0x080042e0:    2e00        ..      CMP      r6,#0
        0x080042e2:    dc02        ..      BGT      0x80042ea ; mqtt_publish_ack_packet + 126
        0x080042e4:    f06f080a    o...    MVN      r8,#0xa
        0x080042e8:    e006        ..      B        0x80042f8 ; mqtt_publish_ack_packet + 140
        0x080042ea:    aa01        ..      ADD      r2,sp,#4
        0x080042ec:    4631        1F      MOV      r1,r6
        0x080042ee:    4620         F      MOV      r0,r4
        0x080042f0:    f000f98e    ....    BL       mqtt_send_packet ; 0x8004610
        0x080042f4:    4680        .F      MOV      r8,r0
        0x080042f6:    bf00        ..      NOP      
        0x080042f8:    f1040050    ..P.    ADD      r0,r4,#0x50
        0x080042fc:    f001f8a9    ....    BL       platform_mutex_unlock ; 0x8005452
        0x08004300:    4640        @F      MOV      r0,r8
        0x08004302:    e8bd81fc    ....    POP      {r2-r8,pc}
    i.mqtt_publish_packet_handle
    mqtt_publish_packet_handle
        0x08004306:    b5f0        ..      PUSH     {r4-r7,lr}
        0x08004308:    b08d        ..      SUB      sp,sp,#0x34
        0x0800430a:    4604        .F      MOV      r4,r0
        0x0800430c:    460f        .F      MOV      r7,r1
        0x0800430e:    2500        .%      MOVS     r5,#0
        0x08004310:    2600        .&      MOVS     r6,#0
        0x08004312:    2000        .       MOVS     r0,#0
        0x08004314:    9008        ..      STR      r0,[sp,#0x20]
        0x08004316:    4620         F      MOV      r0,r4
        0x08004318:    f7fffc9e    ....    BL       mqtt_is_connected ; 0x8003c58
        0x0800431c:    4606        .F      MOV      r6,r0
        0x0800431e:    b116        ..      CBZ      r6,0x8004326 ; mqtt_publish_packet_handle + 32
        0x08004320:    4630        0F      MOV      r0,r6
        0x08004322:    b00d        ..      ADD      sp,sp,#0x34
        0x08004324:    bdf0        ..      POP      {r4-r7,pc}
        0x08004326:    aa08        ..      ADD      r2,sp,#0x20
        0x08004328:    ab09        ..      ADD      r3,sp,#0x24
        0x0800432a:    69e1        .i      LDR      r1,[r4,#0x1c]
        0x0800432c:    6b20         k      LDR      r0,[r4,#0x30]
        0x0800432e:    e9cd3201    ...2    STRD     r3,r2,[sp,#4]
        0x08004332:    e9cd1003    ....    STRD     r1,r0,[sp,#0xc]
        0x08004336:    a80a        ..      ADD      r0,sp,#0x28
        0x08004338:    ab07        ..      ADD      r3,sp,#0x1c
        0x0800433a:    1fd2        ..      SUBS     r2,r2,#7
        0x0800433c:    a905        ..      ADD      r1,sp,#0x14
        0x0800433e:    9000        ..      STR      r0,[sp,#0]
        0x08004340:    380e        .8      SUBS     r0,r0,#0xe
        0x08004342:    f7fdfd0e    ....    BL       MQTTDeserialize_publish ; 0x8001d62
        0x08004346:    2801        .(      CMP      r0,#1
        0x08004348:    d002        ..      BEQ      0x8004350 ; mqtt_publish_packet_handle + 74
        0x0800434a:    f06f0010    o...    MVN      r0,#0x10
        0x0800434e:    e7e8        ..      B        0x8004322 ; mqtt_publish_packet_handle + 28
        0x08004350:    9805        ..      LDR      r0,[sp,#0x14]
        0x08004352:    b2c0        ..      UXTB     r0,r0
        0x08004354:    f88d0018    ....    STRB     r0,[sp,#0x18]
        0x08004358:    f89d0018    ....    LDRB     r0,[sp,#0x18]
        0x0800435c:    b378        x.      CBZ      r0,0x80043be ; mqtt_publish_packet_handle + 184
        0x0800435e:    f1040050    ..P.    ADD      r0,r4,#0x50
        0x08004362:    f001f866    ..f.    BL       platform_mutex_lock ; 0x8005432
        0x08004366:    f89d0018    ....    LDRB     r0,[sp,#0x18]
        0x0800436a:    2801        .(      CMP      r0,#1
        0x0800436c:    d10a        ..      BNE      0x8004384 ; mqtt_publish_packet_handle + 126
        0x0800436e:    f8bd001c    ....    LDRH     r0,[sp,#0x1c]
        0x08004372:    9000        ..      STR      r0,[sp,#0]
        0x08004374:    2300        .#      MOVS     r3,#0
        0x08004376:    2204        ."      MOVS     r2,#4
        0x08004378:    6b61        ak      LDR      r1,[r4,#0x34]
        0x0800437a:    6a20         j      LDR      r0,[r4,#0x20]
        0x0800437c:    f7fdfe30    ..0.    BL       MQTTSerialize_ack ; 0x8001fe0
        0x08004380:    4605        .F      MOV      r5,r0
        0x08004382:    e00d        ..      B        0x80043a0 ; mqtt_publish_packet_handle + 154
        0x08004384:    f89d0018    ....    LDRB     r0,[sp,#0x18]
        0x08004388:    2802        .(      CMP      r0,#2
        0x0800438a:    d109        ..      BNE      0x80043a0 ; mqtt_publish_packet_handle + 154
        0x0800438c:    f8bd001c    ....    LDRH     r0,[sp,#0x1c]
        0x08004390:    9000        ..      STR      r0,[sp,#0]
        0x08004392:    2300        .#      MOVS     r3,#0
        0x08004394:    2205        ."      MOVS     r2,#5
        0x08004396:    6b61        ak      LDR      r1,[r4,#0x34]
        0x08004398:    6a20         j      LDR      r0,[r4,#0x20]
        0x0800439a:    f7fdfe21    ..!.    BL       MQTTSerialize_ack ; 0x8001fe0
        0x0800439e:    4605        .F      MOV      r5,r0
        0x080043a0:    2d00        .-      CMP      r5,#0
        0x080043a2:    dc02        ..      BGT      0x80043aa ; mqtt_publish_packet_handle + 164
        0x080043a4:    f06f0611    o...    MVN      r6,#0x11
        0x080043a8:    e005        ..      B        0x80043b6 ; mqtt_publish_packet_handle + 176
        0x080043aa:    463a        :F      MOV      r2,r7
        0x080043ac:    4629        )F      MOV      r1,r5
        0x080043ae:    4620         F      MOV      r0,r4
        0x080043b0:    f000f92e    ....    BL       mqtt_send_packet ; 0x8004610
        0x080043b4:    4606        .F      MOV      r6,r0
        0x080043b6:    f1040050    ..P.    ADD      r0,r4,#0x50
        0x080043ba:    f001f84a    ..J.    BL       platform_mutex_unlock ; 0x8005452
        0x080043be:    2e00        ..      CMP      r6,#0
        0x080043c0:    da01        ..      BGE      0x80043c6 ; mqtt_publish_packet_handle + 192
        0x080043c2:    4630        0F      MOV      r0,r6
        0x080043c4:    e7ad        ..      B        0x8004322 ; mqtt_publish_packet_handle + 28
        0x080043c6:    f89d0018    ....    LDRB     r0,[sp,#0x18]
        0x080043ca:    2802        .(      CMP      r0,#2
        0x080043cc:    d005        ..      BEQ      0x80043da ; mqtt_publish_packet_handle + 212
        0x080043ce:    aa06        ..      ADD      r2,sp,#0x18
        0x080043d0:    a90a        ..      ADD      r1,sp,#0x28
        0x080043d2:    4620         F      MOV      r0,r4
        0x080043d4:    f7fffb38    ..8.    BL       mqtt_deliver_message ; 0x8003a48
        0x080043d8:    e010        ..      B        0x80043fc ; mqtt_publish_packet_handle + 246
        0x080043da:    2000        .       MOVS     r0,#0
        0x080043dc:    b2ab        ..      UXTH     r3,r5
        0x080043de:    9000        ..      STR      r0,[sp,#0]
        0x080043e0:    f8bd201c    ...     LDRH     r2,[sp,#0x1c]
        0x080043e4:    2106        .!      MOVS     r1,#6
        0x080043e6:    4620         F      MOV      r0,r4
        0x080043e8:    f7fff8c3    ....    BL       mqtt_ack_list_record ; 0x8003572
        0x080043ec:    4606        .F      MOV      r6,r0
        0x080043ee:    3017        .0      ADDS     r0,r0,#0x17
        0x080043f0:    b120         .      CBZ      r0,0x80043fc ; mqtt_publish_packet_handle + 246
        0x080043f2:    aa06        ..      ADD      r2,sp,#0x18
        0x080043f4:    a90a        ..      ADD      r1,sp,#0x28
        0x080043f6:    4620         F      MOV      r0,r4
        0x080043f8:    f7fffb26    ..&.    BL       mqtt_deliver_message ; 0x8003a48
        0x080043fc:    4630        0F      MOV      r0,r6
        0x080043fe:    e790        ..      B        0x8004322 ; mqtt_publish_packet_handle + 28
    i.mqtt_pubrec_and_pubrel_packet_handle
    mqtt_pubrec_and_pubrel_packet_handle
        0x08004400:    b57f        ..      PUSH     {r0-r6,lr}
        0x08004402:    4604        .F      MOV      r4,r0
        0x08004404:    460e        .F      MOV      r6,r1
        0x08004406:    f04f35ff    O..5    MOV      r5,#0xffffffff
        0x0800440a:    4620         F      MOV      r0,r4
        0x0800440c:    f7fffc24    ..$.    BL       mqtt_is_connected ; 0x8003c58
        0x08004410:    4605        .F      MOV      r5,r0
        0x08004412:    b115        ..      CBZ      r5,0x800441a ; mqtt_pubrec_and_pubrel_packet_handle + 26
        0x08004414:    4628        (F      MOV      r0,r5
        0x08004416:    b004        ..      ADD      sp,sp,#0x10
        0x08004418:    bd70        p.      POP      {r4-r6,pc}
        0x0800441a:    6b20         k      LDR      r0,[r4,#0x30]
        0x0800441c:    9000        ..      STR      r0,[sp,#0]
        0x0800441e:    aa03        ..      ADD      r2,sp,#0xc
        0x08004420:    a902        ..      ADD      r1,sp,#8
        0x08004422:    a801        ..      ADD      r0,sp,#4
        0x08004424:    69e3        .i      LDR      r3,[r4,#0x1c]
        0x08004426:    f7fdfc2b    ..+.    BL       MQTTDeserialize_ack ; 0x8001c80
        0x0800442a:    2801        .(      CMP      r0,#1
        0x0800442c:    d002        ..      BEQ      0x8004434 ; mqtt_pubrec_and_pubrel_packet_handle + 52
        0x0800442e:    f06f0008    o...    MVN      r0,#8
        0x08004432:    e7f0        ..      B        0x8004416 ; mqtt_pubrec_and_pubrel_packet_handle + 22
        0x08004434:    f89d2004    ...     LDRB     r2,[sp,#4]
        0x08004438:    f8bd100c    ....    LDRH     r1,[sp,#0xc]
        0x0800443c:    4620         F      MOV      r0,r4
        0x0800443e:    f7ffff15    ....    BL       mqtt_publish_ack_packet ; 0x800426c
        0x08004442:    4605        .F      MOV      r5,r0
        0x08004444:    2300        .#      MOVS     r3,#0
        0x08004446:    f8bd200c    ...     LDRH     r2,[sp,#0xc]
        0x0800444a:    f89d1004    ....    LDRB     r1,[sp,#4]
        0x0800444e:    4620         F      MOV      r0,r4
        0x08004450:    f7fff905    ....    BL       mqtt_ack_list_unrecord ; 0x800365e
        0x08004454:    4605        .F      MOV      r5,r0
        0x08004456:    4628        (F      MOV      r0,r5
        0x08004458:    e7dd        ..      B        0x8004416 ; mqtt_pubrec_and_pubrel_packet_handle + 22
        0x0800445a:    0000        ..      MOVS     r0,r0
    i.mqtt_read_buf_malloc
    mqtt_read_buf_malloc
        0x0800445c:    b570        p.      PUSH     {r4-r6,lr}
        0x0800445e:    4604        .F      MOV      r4,r0
        0x08004460:    460d        .F      MOV      r5,r1
        0x08004462:    b95c        \.      CBNZ     r4,0x800447c ; mqtt_read_buf_malloc + 32
        0x08004464:    4b18        .K      LDR      r3,[pc,#96] ; [0x80044c8] = 0x8008044
        0x08004466:    f240422a    @.*B    MOV      r2,#0x42a
        0x0800446a:    a118        ..      ADR      r1,{pc}+0x62 ; 0x80044cc
        0x0800446c:    a021        !.      ADR      r0,{pc}+0x88 ; 0x80044f4
        0x0800446e:    f7fefc79    ..y.    BL       __0printf$8 ; 0x8002d64
        0x08004472:    a028        (.      ADR      r0,{pc}+0xa2 ; 0x8004514
        0x08004474:    f7fefc76    ..v.    BL       __0printf$8 ; 0x8002d64
        0x08004478:    2000        .       MOVS     r0,#0
        0x0800447a:    bd70        p.      POP      {r4-r6,pc}
        0x0800447c:    69e0        .i      LDR      r0,[r4,#0x1c]
        0x0800447e:    b110        ..      CBZ      r0,0x8004486 ; mqtt_read_buf_malloc + 42
        0x08004480:    69e0        .i      LDR      r0,[r4,#0x1c]
        0x08004482:    f000ffc0    ....    BL       platform_memory_free ; 0x8005406
        0x08004486:    6325        %c      STR      r5,[r4,#0x30]
        0x08004488:    6b20         k      LDR      r0,[r4,#0x30]
        0x0800448a:    2802        .(      CMP      r0,#2
        0x0800448c:    d904        ..      BLS      0x8004498 ; mqtt_read_buf_malloc + 60
        0x0800448e:    f06f4170    o.pA    MVN      r1,#0xf0000000
        0x08004492:    6b20         k      LDR      r0,[r4,#0x30]
        0x08004494:    4288        .B      CMP      r0,r1
        0x08004496:    d302        ..      BCC      0x800449e ; mqtt_read_buf_malloc + 66
        0x08004498:    f44f6080    O..`    MOV      r0,#0x400
        0x0800449c:    6320         c      STR      r0,[r4,#0x30]
        0x0800449e:    6b20         k      LDR      r0,[r4,#0x30]
        0x080044a0:    f000ffa4    ....    BL       platform_memory_alloc ; 0x80053ec
        0x080044a4:    61e0        .a      STR      r0,[r4,#0x1c]
        0x080044a6:    69e0        .i      LDR      r0,[r4,#0x1c]
        0x080044a8:    b960        `.      CBNZ     r0,0x80044c4 ; mqtt_read_buf_malloc + 104
        0x080044aa:    4b07        .K      LDR      r3,[pc,#28] ; [0x80044c8] = 0x8008044
        0x080044ac:    f44f6287    O..b    MOV      r2,#0x438
        0x080044b0:    a106        ..      ADR      r1,{pc}+0x1c ; 0x80044cc
        0x080044b2:    a019        ..      ADR      r0,{pc}+0x66 ; 0x8004518
        0x080044b4:    f7fefc56    ..V.    BL       __0printf$8 ; 0x8002d64
        0x080044b8:    a016        ..      ADR      r0,{pc}+0x5c ; 0x8004514
        0x080044ba:    f7fefc53    ..S.    BL       __0printf$8 ; 0x8002d64
        0x080044be:    f06f0002    o...    MVN      r0,#2
        0x080044c2:    e7da        ..      B        0x800447a ; mqtt_read_buf_malloc + 30
        0x080044c4:    6b20         k      LDR      r0,[r4,#0x30]
        0x080044c6:    e7d8        ..      B        0x800447a ; mqtt_read_buf_malloc + 30
    $d
        0x080044c8:    08008044    D...    DCD    134250564
        0x080044cc:    4d5c2e2e    ..\M    DCD    1297886766
        0x080044d0:    43545451    QTTC    DCD    1129600081
        0x080044d4:    6e65696c    lien    DCD    1852139884
        0x080044d8:    716d5c74    t\mq    DCD    1902992500
        0x080044dc:    6c637474    ttcl    DCD    1818457204
        0x080044e0:    746e6569    ient    DCD    1953391977
        0x080044e4:    74716d5c    \mqt    DCD    1953590620
        0x080044e8:    696c6374    tcli    DCD    1768711028
        0x080044ec:    2e746e65    ent.    DCD    779382373
        0x080044f0:    00000063    c...    DCD    99
        0x080044f4:    253a7325    %s:%    DCD    624587557
        0x080044f8:    73252064    d %s    DCD    1931812964
        0x080044fc:    2e2e2928    ()..    DCD    774777128
        0x08004500:    6863202e    . ch    DCD    1751326766
        0x08004504:    206b6365    eck     DCD    543908709
        0x08004508:    20726f66    for     DCD    544370534
        0x0800450c:    6f727265    erro    DCD    1869771365
        0x08004510:    00002e72    r...    DCD    11890
        0x08004514:    0000000a    ....    DCD    10
        0x08004518:    253a7325    %s:%    DCD    624587557
        0x0800451c:    73252064    d %s    DCD    1931812964
        0x08004520:    2e2e2928    ()..    DCD    774777128
        0x08004524:    616d202e    . ma    DCD    1634541614
        0x08004528:    636f6c6c    lloc    DCD    1668246636
        0x0800452c:    61657220     rea    DCD    1634038304
        0x08004530:    75622064    d bu    DCD    1969365092
        0x08004534:    61662066    f fa    DCD    1634082918
        0x08004538:    64656c69    iled    DCD    1684368489
        0x0800453c:    002e2e2e    ....    DCD    3026478
    $t
    i.mqtt_read_packet
    mqtt_read_packet
        0x08004540:    e92d47fc    -..G    PUSH     {r2-r10,lr}
        0x08004544:    4604        .F      MOV      r4,r0
        0x08004546:    460e        .F      MOV      r6,r1
        0x08004548:    4617        .F      MOV      r7,r2
        0x0800454a:    2000        .       MOVS     r0,#0
        0x0800454c:    9001        ..      STR      r0,[sp,#4]
        0x0800454e:    2501        .%      MOVS     r5,#1
        0x08004550:    9000        ..      STR      r0,[sp,#0]
        0x08004552:    b916        ..      CBNZ     r6,0x800455a ; mqtt_read_packet + 26
        0x08004554:    1e80        ..      SUBS     r0,r0,#2
        0x08004556:    e8bd87fc    ....    POP      {r2-r10,pc}
        0x0800455a:    4638        8F      MOV      r0,r7
        0x0800455c:    f001f903    ....    BL       platform_timer_init ; 0x8005766
        0x08004560:    4638        8F      MOV      r0,r7
        0x08004562:    6ae1        .j      LDR      r1,[r4,#0x2c]
        0x08004564:    f001f8f5    ....    BL       platform_timer_cutdown ; 0x8005752
        0x08004568:    4638        8F      MOV      r0,r7
        0x0800456a:    f001f90e    ....    BL       platform_timer_remain ; 0x800578a
        0x0800456e:    4681        .F      MOV      r9,r0
        0x08004570:    464b        KF      MOV      r3,r9
        0x08004572:    462a        *F      MOV      r2,r5
        0x08004574:    69e1        .i      LDR      r1,[r4,#0x1c]
        0x08004576:    6ea0        .n      LDR      r0,[r4,#0x68]
        0x08004578:    f000fe42    ..B.    BL       network_read ; 0x8005200
        0x0800457c:    4680        .F      MOV      r8,r0
        0x0800457e:    45a8        .E      CMP      r8,r5
        0x08004580:    d002        ..      BEQ      0x8004588 ; mqtt_read_packet + 72
        0x08004582:    f06f0006    o...    MVN      r0,#6
        0x08004586:    e7e6        ..      B        0x8004556 ; mqtt_read_packet + 22
        0x08004588:    4638        8F      MOV      r0,r7
        0x0800458a:    f001f8fe    ....    BL       platform_timer_remain ; 0x800578a
        0x0800458e:    4681        .F      MOV      r9,r0
        0x08004590:    464a        JF      MOV      r2,r9
        0x08004592:    4669        iF      MOV      r1,sp
        0x08004594:    4620         F      MOV      r0,r4
        0x08004596:    f7fffa23    ..#.    BL       mqtt_decode_packet ; 0x80039e0
        0x0800459a:    69e1        .i      LDR      r1,[r4,#0x1c]
        0x0800459c:    1948        H.      ADDS     r0,r1,r5
        0x0800459e:    9900        ..      LDR      r1,[sp,#0]
        0x080045a0:    f7fdfcce    ....    BL       MQTTPacket_encode ; 0x8001f40
        0x080045a4:    4405        .D      ADD      r5,r5,r0
        0x080045a6:    9800        ..      LDR      r0,[sp,#0]
        0x080045a8:    4428        (D      ADD      r0,r0,r5
        0x080045aa:    6b21        !k      LDR      r1,[r4,#0x30]
        0x080045ac:    4288        .B      CMP      r0,r1
        0x080045ae:    d907        ..      BLS      0x80045c0 ; mqtt_read_packet + 128
        0x080045b0:    4639        9F      MOV      r1,r7
        0x080045b2:    4620         F      MOV      r0,r4
        0x080045b4:    9a00        ..      LDR      r2,[sp,#0]
        0x080045b6:    f7fffcbe    ....    BL       mqtt_packet_drain ; 0x8003f36
        0x080045ba:    f06f0007    o...    MVN      r0,#7
        0x080045be:    e7ca        ..      B        0x8004556 ; mqtt_read_packet + 22
        0x080045c0:    9800        ..      LDR      r0,[sp,#0]
        0x080045c2:    2800        .(      CMP      r0,#0
        0x080045c4:    dd11        ..      BLE      0x80045ea ; mqtt_read_packet + 170
        0x080045c6:    4638        8F      MOV      r0,r7
        0x080045c8:    f001f8df    ....    BL       platform_timer_remain ; 0x800578a
        0x080045cc:    4681        .F      MOV      r9,r0
        0x080045ce:    69e2        .i      LDR      r2,[r4,#0x1c]
        0x080045d0:    1951        Q.      ADDS     r1,r2,r5
        0x080045d2:    464b        KF      MOV      r3,r9
        0x080045d4:    6ea0        .n      LDR      r0,[r4,#0x68]
        0x080045d6:    9a00        ..      LDR      r2,[sp,#0]
        0x080045d8:    f000fe12    ....    BL       network_read ; 0x8005200
        0x080045dc:    4680        .F      MOV      r8,r0
        0x080045de:    9900        ..      LDR      r1,[sp,#0]
        0x080045e0:    4288        .B      CMP      r0,r1
        0x080045e2:    d002        ..      BEQ      0x80045ea ; mqtt_read_packet + 170
        0x080045e4:    f06f0006    o...    MVN      r0,#6
        0x080045e8:    e7b5        ..      B        0x8004556 ; mqtt_read_packet + 22
        0x080045ea:    69e0        .i      LDR      r0,[r4,#0x1c]
        0x080045ec:    7800        .x      LDRB     r0,[r0,#0]
        0x080045ee:    f88d0004    ....    STRB     r0,[sp,#4]
        0x080045f2:    9801        ..      LDR      r0,[sp,#4]
        0x080045f4:    f3c01003    ....    UBFX     r0,r0,#4,#4
        0x080045f8:    6030        0`      STR      r0,[r6,#0]
        0x080045fa:    8ca0        ..      LDRH     r0,[r4,#0x24]
        0x080045fc:    f44f727a    O.zr    MOV      r2,#0x3e8
        0x08004600:    fb00f102    ....    MUL      r1,r0,r2
        0x08004604:    f1040074    ..t.    ADD      r0,r4,#0x74
        0x08004608:    f001f8a3    ....    BL       platform_timer_cutdown ; 0x8005752
        0x0800460c:    2000        .       MOVS     r0,#0
        0x0800460e:    e7a2        ..      B        0x8004556 ; mqtt_read_packet + 22
    i.mqtt_send_packet
    mqtt_send_packet
        0x08004610:    e92d47f0    -..G    PUSH     {r4-r10,lr}
        0x08004614:    4604        .F      MOV      r4,r0
        0x08004616:    460d        .F      MOV      r5,r1
        0x08004618:    4617        .F      MOV      r7,r2
        0x0800461a:    f04f0800    O...    MOV      r8,#0
        0x0800461e:    2600        .&      MOVS     r6,#0
        0x08004620:    4638        8F      MOV      r0,r7
        0x08004622:    f001f8a0    ....    BL       platform_timer_init ; 0x8005766
        0x08004626:    4638        8F      MOV      r0,r7
        0x08004628:    6ae1        .j      LDR      r1,[r4,#0x2c]
        0x0800462a:    f001f892    ....    BL       platform_timer_cutdown ; 0x8005752
        0x0800462e:    e010        ..      B        0x8004652 ; mqtt_send_packet + 66
        0x08004630:    4638        8F      MOV      r0,r7
        0x08004632:    f001f8aa    ....    BL       platform_timer_remain ; 0x800578a
        0x08004636:    4681        .F      MOV      r9,r0
        0x08004638:    6a22        "j      LDR      r2,[r4,#0x20]
        0x0800463a:    1991        ..      ADDS     r1,r2,r6
        0x0800463c:    464b        KF      MOV      r3,r9
        0x0800463e:    462a        *F      MOV      r2,r5
        0x08004640:    6ea0        .n      LDR      r0,[r4,#0x68]
        0x08004642:    f000fdf8    ....    BL       network_write ; 0x8005236
        0x08004646:    4680        .F      MOV      r8,r0
        0x08004648:    f1b80f00    ....    CMP      r8,#0
        0x0800464c:    dc00        ..      BGT      0x8004650 ; mqtt_send_packet + 64
        0x0800464e:    e007        ..      B        0x8004660 ; mqtt_send_packet + 80
        0x08004650:    4446        FD      ADD      r6,r6,r8
        0x08004652:    42ae        .B      CMP      r6,r5
        0x08004654:    da04        ..      BGE      0x8004660 ; mqtt_send_packet + 80
        0x08004656:    4638        8F      MOV      r0,r7
        0x08004658:    f001f888    ....    BL       platform_timer_is_expired ; 0x800576c
        0x0800465c:    2800        .(      CMP      r0,#0
        0x0800465e:    d0e7        ..      BEQ      0x8004630 ; mqtt_send_packet + 32
        0x08004660:    bf00        ..      NOP      
        0x08004662:    42ae        .B      CMP      r6,r5
        0x08004664:    d10b        ..      BNE      0x800467e ; mqtt_send_packet + 110
        0x08004666:    8ca0        ..      LDRH     r0,[r4,#0x24]
        0x08004668:    f44f727a    O.zr    MOV      r2,#0x3e8
        0x0800466c:    fb00f102    ....    MUL      r1,r0,r2
        0x08004670:    f1040070    ..p.    ADD      r0,r4,#0x70
        0x08004674:    f001f86d    ..m.    BL       platform_timer_cutdown ; 0x8005752
        0x08004678:    2000        .       MOVS     r0,#0
        0x0800467a:    e8bd87f0    ....    POP      {r4-r10,pc}
        0x0800467e:    f06f0012    o...    MVN      r0,#0x12
        0x08004682:    e7fa        ..      B        0x800467a ; mqtt_send_packet + 106
    i.mqtt_set_clean_session
    mqtt_set_clean_session
        0x08004684:    b570        p.      PUSH     {r4-r6,lr}
        0x08004686:    4604        .F      MOV      r4,r0
        0x08004688:    460d        .F      MOV      r5,r1
        0x0800468a:    b95c        \.      CBNZ     r4,0x80046a4 ; mqtt_set_clean_session + 32
        0x0800468c:    4b0a        .K      LDR      r3,[pc,#40] ; [0x80046b8] = 0x8008121
        0x0800468e:    f240428d    @..B    MOV      r2,#0x48d
        0x08004692:    a10a        ..      ADR      r1,{pc}+0x2a ; 0x80046bc
        0x08004694:    a013        ..      ADR      r0,{pc}+0x50 ; 0x80046e4
        0x08004696:    f7fefb65    ..e.    BL       __0printf$8 ; 0x8002d64
        0x0800469a:    a01a        ..      ADR      r0,{pc}+0x6a ; 0x8004704
        0x0800469c:    f7fefb62    ..b.    BL       __0printf$8 ; 0x8002d64
        0x080046a0:    2000        .       MOVS     r0,#0
        0x080046a2:    bd70        p.      POP      {r4-r6,pc}
        0x080046a4:    6aa0        .j      LDR      r0,[r4,#0x28]
        0x080046a6:    f3650041    e.A.    BFI      r0,r5,#1,#1
        0x080046aa:    62a0        .b      STR      r0,[r4,#0x28]
        0x080046ac:    f8940028    ..(.    LDRB     r0,[r4,#0x28]
        0x080046b0:    f3c00040    ..@.    UBFX     r0,r0,#1,#1
        0x080046b4:    e7f5        ..      B        0x80046a2 ; mqtt_set_clean_session + 30
    $d
        0x080046b6:    0000        ..      DCW    0
        0x080046b8:    08008121    !...    DCD    134250785
        0x080046bc:    4d5c2e2e    ..\M    DCD    1297886766
        0x080046c0:    43545451    QTTC    DCD    1129600081
        0x080046c4:    6e65696c    lien    DCD    1852139884
        0x080046c8:    716d5c74    t\mq    DCD    1902992500
        0x080046cc:    6c637474    ttcl    DCD    1818457204
        0x080046d0:    746e6569    ient    DCD    1953391977
        0x080046d4:    74716d5c    \mqt    DCD    1953590620
        0x080046d8:    696c6374    tcli    DCD    1768711028
        0x080046dc:    2e746e65    ent.    DCD    779382373
        0x080046e0:    00000063    c...    DCD    99
        0x080046e4:    253a7325    %s:%    DCD    624587557
        0x080046e8:    73252064    d %s    DCD    1931812964
        0x080046ec:    2e2e2928    ()..    DCD    774777128
        0x080046f0:    6863202e    . ch    DCD    1751326766
        0x080046f4:    206b6365    eck     DCD    543908709
        0x080046f8:    20726f66    for     DCD    544370534
        0x080046fc:    6f727265    erro    DCD    1869771365
        0x08004700:    00002e72    r...    DCD    11890
        0x08004704:    0000000a    ....    DCD    10
    $t
    i.mqtt_set_client_id
    mqtt_set_client_id
        0x08004708:    b570        p.      PUSH     {r4-r6,lr}
        0x0800470a:    4604        .F      MOV      r4,r0
        0x0800470c:    460d        .F      MOV      r5,r1
        0x0800470e:    b95c        \.      CBNZ     r4,0x8004728 ; mqtt_set_client_id + 32
        0x08004710:    4b07        .K      LDR      r3,[pc,#28] ; [0x8004730] = 0x8008079
        0x08004712:    f2404284    @..B    MOV      r2,#0x484
        0x08004716:    a107        ..      ADR      r1,{pc}+0x1e ; 0x8004734
        0x08004718:    a010        ..      ADR      r0,{pc}+0x44 ; 0x800475c
        0x0800471a:    f7fefb23    ..#.    BL       __0printf$8 ; 0x8002d64
        0x0800471e:    a017        ..      ADR      r0,{pc}+0x5e ; 0x800477c
        0x08004720:    f7fefb20    .. .    BL       __0printf$8 ; 0x8002d64
        0x08004724:    2000        .       MOVS     r0,#0
        0x08004726:    bd70        p.      POP      {r4-r6,pc}
        0x08004728:    6025        %`      STR      r5,[r4,#0]
        0x0800472a:    6820         h      LDR      r0,[r4,#0]
        0x0800472c:    e7fb        ..      B        0x8004726 ; mqtt_set_client_id + 30
    $d
        0x0800472e:    0000        ..      DCW    0
        0x08004730:    08008079    y...    DCD    134250617
        0x08004734:    4d5c2e2e    ..\M    DCD    1297886766
        0x08004738:    43545451    QTTC    DCD    1129600081
        0x0800473c:    6e65696c    lien    DCD    1852139884
        0x08004740:    716d5c74    t\mq    DCD    1902992500
        0x08004744:    6c637474    ttcl    DCD    1818457204
        0x08004748:    746e6569    ient    DCD    1953391977
        0x0800474c:    74716d5c    \mqt    DCD    1953590620
        0x08004750:    696c6374    tcli    DCD    1768711028
        0x08004754:    2e746e65    ent.    DCD    779382373
        0x08004758:    00000063    c...    DCD    99
        0x0800475c:    253a7325    %s:%    DCD    624587557
        0x08004760:    73252064    d %s    DCD    1931812964
        0x08004764:    2e2e2928    ()..    DCD    774777128
        0x08004768:    6863202e    . ch    DCD    1751326766
        0x0800476c:    206b6365    eck     DCD    543908709
        0x08004770:    20726f66    for     DCD    544370534
        0x08004774:    6f727265    erro    DCD    1869771365
        0x08004778:    00002e72    r...    DCD    11890
        0x0800477c:    0000000a    ....    DCD    10
    $t
    i.mqtt_set_client_state
    mqtt_set_client_state
        0x08004780:    b570        p.      PUSH     {r4-r6,lr}
        0x08004782:    4604        .F      MOV      r4,r0
        0x08004784:    460d        .F      MOV      r5,r1
        0x08004786:    f1040054    ..T.    ADD      r0,r4,#0x54
        0x0800478a:    f000fe52    ..R.    BL       platform_mutex_lock ; 0x8005432
        0x0800478e:    f884504c    ..LP    STRB     r5,[r4,#0x4c]
        0x08004792:    f1040054    ..T.    ADD      r0,r4,#0x54
        0x08004796:    f000fe5c    ..\.    BL       platform_mutex_unlock ; 0x8005452
        0x0800479a:    bd70        p.      POP      {r4-r6,pc}
    i.mqtt_set_host
    mqtt_set_host
        0x0800479c:    b570        p.      PUSH     {r4-r6,lr}
        0x0800479e:    4604        .F      MOV      r4,r0
        0x080047a0:    460d        .F      MOV      r5,r1
        0x080047a2:    b95c        \.      CBNZ     r4,0x80047bc ; mqtt_set_host + 32
        0x080047a4:    4b07        .K      LDR      r3,[pc,#28] ; [0x80047c4] = 0x80080b1
        0x080047a6:    f2404287    @..B    MOV      r2,#0x487
        0x080047aa:    a107        ..      ADR      r1,{pc}+0x1e ; 0x80047c8
        0x080047ac:    a010        ..      ADR      r0,{pc}+0x44 ; 0x80047f0
        0x080047ae:    f7fefad9    ....    BL       __0printf$8 ; 0x8002d64
        0x080047b2:    a017        ..      ADR      r0,{pc}+0x5e ; 0x8004810
        0x080047b4:    f7fefad6    ....    BL       __0printf$8 ; 0x8002d64
        0x080047b8:    2000        .       MOVS     r0,#0
        0x080047ba:    bd70        p.      POP      {r4-r6,pc}
        0x080047bc:    60e5        .`      STR      r5,[r4,#0xc]
        0x080047be:    68e0        .h      LDR      r0,[r4,#0xc]
        0x080047c0:    e7fb        ..      B        0x80047ba ; mqtt_set_host + 30
    $d
        0x080047c2:    0000        ..      DCW    0
        0x080047c4:    080080b1    ....    DCD    134250673
        0x080047c8:    4d5c2e2e    ..\M    DCD    1297886766
        0x080047cc:    43545451    QTTC    DCD    1129600081
        0x080047d0:    6e65696c    lien    DCD    1852139884
        0x080047d4:    716d5c74    t\mq    DCD    1902992500
        0x080047d8:    6c637474    ttcl    DCD    1818457204
        0x080047dc:    746e6569    ient    DCD    1953391977
        0x080047e0:    74716d5c    \mqt    DCD    1953590620
        0x080047e4:    696c6374    tcli    DCD    1768711028
        0x080047e8:    2e746e65    ent.    DCD    779382373
        0x080047ec:    00000063    c...    DCD    99
        0x080047f0:    253a7325    %s:%    DCD    624587557
        0x080047f4:    73252064    d %s    DCD    1931812964
        0x080047f8:    2e2e2928    ()..    DCD    774777128
        0x080047fc:    6863202e    . ch    DCD    1751326766
        0x08004800:    206b6365    eck     DCD    543908709
        0x08004804:    20726f66    for     DCD    544370534
        0x08004808:    6f727265    erro    DCD    1869771365
        0x0800480c:    00002e72    r...    DCD    11890
        0x08004810:    0000000a    ....    DCD    10
    $t
    i.mqtt_set_password
    mqtt_set_password
        0x08004814:    b570        p.      PUSH     {r4-r6,lr}
        0x08004816:    4604        .F      MOV      r4,r0
        0x08004818:    460d        .F      MOV      r5,r1
        0x0800481a:    b95c        \.      CBNZ     r4,0x8004834 ; mqtt_set_password + 32
        0x0800481c:    4b07        .K      LDR      r3,[pc,#28] ; [0x800483c] = 0x800809f
        0x0800481e:    f2404286    @..B    MOV      r2,#0x486
        0x08004822:    a107        ..      ADR      r1,{pc}+0x1e ; 0x8004840
        0x08004824:    a010        ..      ADR      r0,{pc}+0x44 ; 0x8004868
        0x08004826:    f7fefa9d    ....    BL       __0printf$8 ; 0x8002d64
        0x0800482a:    a017        ..      ADR      r0,{pc}+0x5e ; 0x8004888
        0x0800482c:    f7fefa9a    ....    BL       __0printf$8 ; 0x8002d64
        0x08004830:    2000        .       MOVS     r0,#0
        0x08004832:    bd70        p.      POP      {r4-r6,pc}
        0x08004834:    60a5        .`      STR      r5,[r4,#8]
        0x08004836:    68a0        .h      LDR      r0,[r4,#8]
        0x08004838:    e7fb        ..      B        0x8004832 ; mqtt_set_password + 30
    $d
        0x0800483a:    0000        ..      DCW    0
        0x0800483c:    0800809f    ....    DCD    134250655
        0x08004840:    4d5c2e2e    ..\M    DCD    1297886766
        0x08004844:    43545451    QTTC    DCD    1129600081
        0x08004848:    6e65696c    lien    DCD    1852139884
        0x0800484c:    716d5c74    t\mq    DCD    1902992500
        0x08004850:    6c637474    ttcl    DCD    1818457204
        0x08004854:    746e6569    ient    DCD    1953391977
        0x08004858:    74716d5c    \mqt    DCD    1953590620
        0x0800485c:    696c6374    tcli    DCD    1768711028
        0x08004860:    2e746e65    ent.    DCD    779382373
        0x08004864:    00000063    c...    DCD    99
        0x08004868:    253a7325    %s:%    DCD    624587557
        0x0800486c:    73252064    d %s    DCD    1931812964
        0x08004870:    2e2e2928    ()..    DCD    774777128
        0x08004874:    6863202e    . ch    DCD    1751326766
        0x08004878:    206b6365    eck     DCD    543908709
        0x0800487c:    20726f66    for     DCD    544370534
        0x08004880:    6f727265    erro    DCD    1869771365
        0x08004884:    00002e72    r...    DCD    11890
        0x08004888:    0000000a    ....    DCD    10
    $t
    i.mqtt_set_port
    mqtt_set_port
        0x0800488c:    b570        p.      PUSH     {r4-r6,lr}
        0x0800488e:    4604        .F      MOV      r4,r0
        0x08004890:    460d        .F      MOV      r5,r1
        0x08004892:    b95c        \.      CBNZ     r4,0x80048ac ; mqtt_set_port + 32
        0x08004894:    4b07        .K      LDR      r3,[pc,#28] ; [0x80048b4] = 0x80080bf
        0x08004896:    f44f6291    O..b    MOV      r2,#0x488
        0x0800489a:    a107        ..      ADR      r1,{pc}+0x1e ; 0x80048b8
        0x0800489c:    a010        ..      ADR      r0,{pc}+0x44 ; 0x80048e0
        0x0800489e:    f7fefa61    ..a.    BL       __0printf$8 ; 0x8002d64
        0x080048a2:    a017        ..      ADR      r0,{pc}+0x5e ; 0x8004900
        0x080048a4:    f7fefa5e    ..^.    BL       __0printf$8 ; 0x8002d64
        0x080048a8:    2000        .       MOVS     r0,#0
        0x080048aa:    bd70        p.      POP      {r4-r6,pc}
        0x080048ac:    6125        %a      STR      r5,[r4,#0x10]
        0x080048ae:    6920         i      LDR      r0,[r4,#0x10]
        0x080048b0:    e7fb        ..      B        0x80048aa ; mqtt_set_port + 30
    $d
        0x080048b2:    0000        ..      DCW    0
        0x080048b4:    080080bf    ....    DCD    134250687
        0x080048b8:    4d5c2e2e    ..\M    DCD    1297886766
        0x080048bc:    43545451    QTTC    DCD    1129600081
        0x080048c0:    6e65696c    lien    DCD    1852139884
        0x080048c4:    716d5c74    t\mq    DCD    1902992500
        0x080048c8:    6c637474    ttcl    DCD    1818457204
        0x080048cc:    746e6569    ient    DCD    1953391977
        0x080048d0:    74716d5c    \mqt    DCD    1953590620
        0x080048d4:    696c6374    tcli    DCD    1768711028
        0x080048d8:    2e746e65    ent.    DCD    779382373
        0x080048dc:    00000063    c...    DCD    99
        0x080048e0:    253a7325    %s:%    DCD    624587557
        0x080048e4:    73252064    d %s    DCD    1931812964
        0x080048e8:    2e2e2928    ()..    DCD    774777128
        0x080048ec:    6863202e    . ch    DCD    1751326766
        0x080048f0:    206b6365    eck     DCD    543908709
        0x080048f4:    20726f66    for     DCD    544370534
        0x080048f8:    6f727265    erro    DCD    1869771365
        0x080048fc:    00002e72    r...    DCD    11890
        0x08004900:    0000000a    ....    DCD    10
    $t
    i.mqtt_set_publish_dup
    mqtt_set_publish_dup
        0x08004904:    b53e        >.      PUSH     {r1-r5,lr}
        0x08004906:    4604        .F      MOV      r4,r0
        0x08004908:    460d        .F      MOV      r5,r1
        0x0800490a:    6a20         j      LDR      r0,[r4,#0x20]
        0x0800490c:    9002        ..      STR      r0,[sp,#8]
        0x0800490e:    6a20         j      LDR      r0,[r4,#0x20]
        0x08004910:    9001        ..      STR      r0,[sp,#4]
        0x08004912:    2000        .       MOVS     r0,#0
        0x08004914:    9000        ..      STR      r0,[sp,#0]
        0x08004916:    6a20         j      LDR      r0,[r4,#0x20]
        0x08004918:    b910        ..      CBNZ     r0,0x8004920 ; mqtt_set_publish_dup + 28
        0x0800491a:    f06f0018    o...    MVN      r0,#0x18
        0x0800491e:    bd3e        >.      POP      {r1-r5,pc}
        0x08004920:    a802        ..      ADD      r0,sp,#8
        0x08004922:    f001fdad    ....    BL       readChar ; 0x8006480
        0x08004926:    f88d0000    ....    STRB     r0,[sp,#0]
        0x0800492a:    9800        ..      LDR      r0,[sp,#0]
        0x0800492c:    f3c01003    ....    UBFX     r0,r0,#4,#4
        0x08004930:    2803        .(      CMP      r0,#3
        0x08004932:    d002        ..      BEQ      0x800493a ; mqtt_set_publish_dup + 54
        0x08004934:    f06f0018    o...    MVN      r0,#0x18
        0x08004938:    e7f1        ..      B        0x800491e ; mqtt_set_publish_dup + 26
        0x0800493a:    9800        ..      LDR      r0,[sp,#0]
        0x0800493c:    f36500c3    e...    BFI      r0,r5,#3,#1
        0x08004940:    9000        ..      STR      r0,[sp,#0]
        0x08004942:    f89d1000    ....    LDRB     r1,[sp,#0]
        0x08004946:    a801        ..      ADD      r0,sp,#4
        0x08004948:    f002fa6e    ..n.    BL       writeChar ; 0x8006e28
        0x0800494c:    2000        .       MOVS     r0,#0
        0x0800494e:    e7e6        ..      B        0x800491e ; mqtt_set_publish_dup + 26
    i.mqtt_set_user_name
    mqtt_set_user_name
        0x08004950:    b570        p.      PUSH     {r4-r6,lr}
        0x08004952:    4604        .F      MOV      r4,r0
        0x08004954:    460d        .F      MOV      r5,r1
        0x08004956:    b95c        \.      CBNZ     r4,0x8004970 ; mqtt_set_user_name + 32
        0x08004958:    4b07        .K      LDR      r3,[pc,#28] ; [0x8004978] = 0x800808c
        0x0800495a:    f2404285    @..B    MOV      r2,#0x485
        0x0800495e:    a107        ..      ADR      r1,{pc}+0x1e ; 0x800497c
        0x08004960:    a010        ..      ADR      r0,{pc}+0x44 ; 0x80049a4
        0x08004962:    f7fef9ff    ....    BL       __0printf$8 ; 0x8002d64
        0x08004966:    a017        ..      ADR      r0,{pc}+0x5e ; 0x80049c4
        0x08004968:    f7fef9fc    ....    BL       __0printf$8 ; 0x8002d64
        0x0800496c:    2000        .       MOVS     r0,#0
        0x0800496e:    bd70        p.      POP      {r4-r6,pc}
        0x08004970:    6065        e`      STR      r5,[r4,#4]
        0x08004972:    6860        `h      LDR      r0,[r4,#4]
        0x08004974:    e7fb        ..      B        0x800496e ; mqtt_set_user_name + 30
    $d
        0x08004976:    0000        ..      DCW    0
        0x08004978:    0800808c    ....    DCD    134250636
        0x0800497c:    4d5c2e2e    ..\M    DCD    1297886766
        0x08004980:    43545451    QTTC    DCD    1129600081
        0x08004984:    6e65696c    lien    DCD    1852139884
        0x08004988:    716d5c74    t\mq    DCD    1902992500
        0x0800498c:    6c637474    ttcl    DCD    1818457204
        0x08004990:    746e6569    ient    DCD    1953391977
        0x08004994:    74716d5c    \mqt    DCD    1953590620
        0x08004998:    696c6374    tcli    DCD    1768711028
        0x0800499c:    2e746e65    ent.    DCD    779382373
        0x080049a0:    00000063    c...    DCD    99
        0x080049a4:    253a7325    %s:%    DCD    624587557
        0x080049a8:    73252064    d %s    DCD    1931812964
        0x080049ac:    2e2e2928    ()..    DCD    774777128
        0x080049b0:    6863202e    . ch    DCD    1751326766
        0x080049b4:    206b6365    eck     DCD    543908709
        0x080049b8:    20726f66    for     DCD    544370534
        0x080049bc:    6f727265    erro    DCD    1869771365
        0x080049c0:    00002e72    r...    DCD    11890
        0x080049c4:    0000000a    ....    DCD    10
    $t
    i.mqtt_sleep_ms
    mqtt_sleep_ms
        0x080049c8:    b510        ..      PUSH     {r4,lr}
        0x080049ca:    4604        .F      MOV      r4,r0
        0x080049cc:    f44f717a    O.zq    MOV      r1,#0x3e8
        0x080049d0:    fb04f001    ....    MUL      r0,r4,r1
        0x080049d4:    f000fee6    ....    BL       platform_timer_usleep ; 0x80057a4
        0x080049d8:    bd10        ..      POP      {r4,pc}
        0x080049da:    0000        ..      MOVS     r0,r0
    i.mqtt_suback_packet_handle
    mqtt_suback_packet_handle
        0x080049dc:    b5f0        ..      PUSH     {r4-r7,lr}
        0x080049de:    b087        ..      SUB      sp,sp,#0x1c
        0x080049e0:    4604        .F      MOV      r4,r0
        0x080049e2:    460f        .F      MOV      r7,r1
        0x080049e4:    f04f35ff    O..5    MOV      r5,#0xffffffff
        0x080049e8:    2000        .       MOVS     r0,#0
        0x080049ea:    9006        ..      STR      r0,[sp,#0x18]
        0x080049ec:    9005        ..      STR      r0,[sp,#0x14]
        0x080049ee:    2600        .&      MOVS     r6,#0
        0x080049f0:    9003        ..      STR      r0,[sp,#0xc]
        0x080049f2:    4620         F      MOV      r0,r4
        0x080049f4:    f7fff930    ..0.    BL       mqtt_is_connected ; 0x8003c58
        0x080049f8:    4605        .F      MOV      r5,r0
        0x080049fa:    b115        ..      CBZ      r5,0x8004a02 ; mqtt_suback_packet_handle + 38
        0x080049fc:    4628        (F      MOV      r0,r5
        0x080049fe:    b007        ..      ADD      sp,sp,#0x1c
        0x08004a00:    bdf0        ..      POP      {r4-r7,pc}
        0x08004a02:    6b21        !k      LDR      r1,[r4,#0x30]
        0x08004a04:    69e0        .i      LDR      r0,[r4,#0x1c]
        0x08004a06:    ab05        ..      ADD      r3,sp,#0x14
        0x08004a08:    aa06        ..      ADD      r2,sp,#0x18
        0x08004a0a:    e9cd0100    ....    STRD     r0,r1,[sp,#0]
        0x08004a0e:    2101        .!      MOVS     r1,#1
        0x08004a10:    a804        ..      ADD      r0,sp,#0x10
        0x08004a12:    f7fdf9fa    ....    BL       MQTTDeserialize_suback ; 0x8001e0a
        0x08004a16:    2801        .(      CMP      r0,#1
        0x08004a18:    d002        ..      BEQ      0x8004a20 ; mqtt_suback_packet_handle + 68
        0x08004a1a:    f06f000c    o...    MVN      r0,#0xc
        0x08004a1e:    e7ee        ..      B        0x80049fe ; mqtt_suback_packet_handle + 34
        0x08004a20:    9805        ..      LDR      r0,[sp,#0x14]
        0x08004a22:    2880        .(      CMP      r0,#0x80
        0x08004a24:    d101        ..      BNE      0x8004a2a ; mqtt_suback_packet_handle + 78
        0x08004a26:    2001        .       MOVS     r0,#1
        0x08004a28:    e000        ..      B        0x8004a2c ; mqtt_suback_packet_handle + 80
        0x08004a2a:    2000        .       MOVS     r0,#0
        0x08004a2c:    4606        .F      MOV      r6,r0
        0x08004a2e:    ab03        ..      ADD      r3,sp,#0xc
        0x08004a30:    f8bd2010    ...     LDRH     r2,[sp,#0x10]
        0x08004a34:    2109        .!      MOVS     r1,#9
        0x08004a36:    4620         F      MOV      r0,r4
        0x08004a38:    f7fefe11    ....    BL       mqtt_ack_list_unrecord ; 0x800365e
        0x08004a3c:    4605        .F      MOV      r5,r0
        0x08004a3e:    9803        ..      LDR      r0,[sp,#0xc]
        0x08004a40:    b910        ..      CBNZ     r0,0x8004a48 ; mqtt_suback_packet_handle + 108
        0x08004a42:    f06f0002    o...    MVN      r0,#2
        0x08004a46:    e7da        ..      B        0x80049fe ; mqtt_suback_packet_handle + 34
        0x08004a48:    b15e        ^.      CBZ      r6,0x8004a62 ; mqtt_suback_packet_handle + 134
        0x08004a4a:    9803        ..      LDR      r0,[sp,#0xc]
        0x08004a4c:    f7fff9ed    ....    BL       mqtt_msg_handler_destory ; 0x8003e2a
        0x08004a50:    a007        ..      ADR      r0,{pc}+0x20 ; 0x8004a70
        0x08004a52:    f7fef987    ....    BL       __0printf$8 ; 0x8002d64
        0x08004a56:    a00d        ..      ADR      r0,{pc}+0x36 ; 0x8004a8c
        0x08004a58:    f7fef984    ....    BL       __0printf$8 ; 0x8002d64
        0x08004a5c:    f06f000e    o...    MVN      r0,#0xe
        0x08004a60:    e7cd        ..      B        0x80049fe ; mqtt_suback_packet_handle + 34
        0x08004a62:    4620         F      MOV      r0,r4
        0x08004a64:    9903        ..      LDR      r1,[sp,#0xc]
        0x08004a66:    f7fffa37    ..7.    BL       mqtt_msg_handlers_install ; 0x8003ed8
        0x08004a6a:    4605        .F      MOV      r5,r0
        0x08004a6c:    4628        (F      MOV      r0,r5
        0x08004a6e:    e7c6        ..      B        0x80049fe ; mqtt_suback_packet_handle + 34
    $d
        0x08004a70:    73627573    subs    DCD    1935832435
        0x08004a74:    62697263    crib    DCD    1651077731
        0x08004a78:    6f742065    e to    DCD    1869881445
        0x08004a7c:    20636970    pic     DCD    543385968
        0x08004a80:    6c696166    fail    DCD    1818845542
        0x08004a84:    2e2e6465    ed..    DCD    774792293
        0x08004a88:    0000002e    ....    DCD    46
        0x08004a8c:    0000000a    ....    DCD    10
    $t
    i.mqtt_subscribe
    mqtt_subscribe
        0x08004a90:    e92d47ff    -..G    PUSH     {r0-r10,lr}
        0x08004a94:    b088        ..      SUB      sp,sp,#0x20
        0x08004a96:    4604        .F      MOV      r4,r0
        0x08004a98:    460d        .F      MOV      r5,r1
        0x08004a9a:    461e        .F      MOV      r6,r3
        0x08004a9c:    f06f0913    o...    MVN      r9,#0x13
        0x08004aa0:    2700        .'      MOVS     r7,#0
        0x08004aa2:    2000        .       MOVS     r0,#0
        0x08004aa4:    9004        ..      STR      r0,[sp,#0x10]
        0x08004aa6:    9005        ..      STR      r0,[sp,#0x14]
        0x08004aa8:    9006        ..      STR      r0,[sp,#0x18]
        0x08004aaa:    9504        ..      STR      r5,[sp,#0x10]
        0x08004aac:    4680        .F      MOV      r8,r0
        0x08004aae:    4620         F      MOV      r0,r4
        0x08004ab0:    f7fff802    ....    BL       mqtt_get_client_state ; 0x8003ab8
        0x08004ab4:    2801        .(      CMP      r0,#1
        0x08004ab6:    d004        ..      BEQ      0x8004ac2 ; mqtt_subscribe + 50
        0x08004ab8:    f06f000d    o...    MVN      r0,#0xd
        0x08004abc:    b00c        ..      ADD      sp,sp,#0x30
        0x08004abe:    e8bd87f0    ....    POP      {r4-r10,pc}
        0x08004ac2:    4620         F      MOV      r0,r4
        0x08004ac4:    f7fff81d    ....    BL       mqtt_get_next_packet_id ; 0x8003b02
        0x08004ac8:    4682        .F      MOV      r10,r0
        0x08004aca:    f1040050    ..P.    ADD      r0,r4,#0x50
        0x08004ace:    f000fcb0    ....    BL       platform_mutex_lock ; 0x8005432
        0x08004ad2:    a80a        ..      ADD      r0,sp,#0x28
        0x08004ad4:    a904        ..      ADD      r1,sp,#0x10
        0x08004ad6:    2201        ."      MOVS     r2,#1
        0x08004ad8:    e9cd2100    ...!    STRD     r2,r1,[sp,#0]
        0x08004adc:    9002        ..      STR      r0,[sp,#8]
        0x08004ade:    4653        SF      MOV      r3,r10
        0x08004ae0:    2200        ."      MOVS     r2,#0
        0x08004ae2:    6b61        ak      LDR      r1,[r4,#0x34]
        0x08004ae4:    6a20         j      LDR      r0,[r4,#0x20]
        0x08004ae6:    f7fdfc16    ....    BL       MQTTSerialize_subscribe ; 0x8002316
        0x08004aea:    4607        .F      MOV      r7,r0
        0x08004aec:    2f00        ./      CMP      r7,#0
        0x08004aee:    dc00        ..      BGT      0x8004af2 ; mqtt_subscribe + 98
        0x08004af0:    e021        !.      B        0x8004b36 ; mqtt_subscribe + 166
        0x08004af2:    aa07        ..      ADD      r2,sp,#0x1c
        0x08004af4:    4639        9F      MOV      r1,r7
        0x08004af6:    4620         F      MOV      r0,r4
        0x08004af8:    f7fffd8a    ....    BL       mqtt_send_packet ; 0x8004610
        0x08004afc:    f1b00900    ....    SUBS     r9,r0,#0
        0x08004b00:    d000        ..      BEQ      0x8004b04 ; mqtt_subscribe + 116
        0x08004b02:    e018        ..      B        0x8004b36 ; mqtt_subscribe + 166
        0x08004b04:    b906        ..      CBNZ     r6,0x8004b08 ; mqtt_subscribe + 120
        0x08004b06:    4e0f        .N      LDR      r6,[pc,#60] ; [0x8004b44] = 0x80032bd
        0x08004b08:    4632        2F      MOV      r2,r6
        0x08004b0a:    f89d1028    ..(.    LDRB     r1,[sp,#0x28]
        0x08004b0e:    4628        (F      MOV      r0,r5
        0x08004b10:    f7fff975    ..u.    BL       mqtt_msg_handler_create ; 0x8003dfe
        0x08004b14:    4680        .F      MOV      r8,r0
        0x08004b16:    f1b80f00    ....    CMP      r8,#0
        0x08004b1a:    d102        ..      BNE      0x8004b22 ; mqtt_subscribe + 146
        0x08004b1c:    f06f0902    o...    MVN      r9,#2
        0x08004b20:    e009        ..      B        0x8004b36 ; mqtt_subscribe + 166
        0x08004b22:    b2bb        ..      UXTH     r3,r7
        0x08004b24:    4652        RF      MOV      r2,r10
        0x08004b26:    2109        .!      MOVS     r1,#9
        0x08004b28:    4620         F      MOV      r0,r4
        0x08004b2a:    f8cd8000    ....    STR      r8,[sp,#0]
        0x08004b2e:    f7fefd20    .. .    BL       mqtt_ack_list_record ; 0x8003572
        0x08004b32:    4681        .F      MOV      r9,r0
        0x08004b34:    bf00        ..      NOP      
        0x08004b36:    f1040050    ..P.    ADD      r0,r4,#0x50
        0x08004b3a:    f000fc8a    ....    BL       platform_mutex_unlock ; 0x8005452
        0x08004b3e:    4648        HF      MOV      r0,r9
        0x08004b40:    e7bc        ..      B        0x8004abc ; mqtt_subscribe + 44
    $d
        0x08004b42:    0000        ..      DCW    0
        0x08004b44:    080032bd    .2..    DCD    134230717
    $t
    i.mqtt_subtract_ack_handler_num
    mqtt_subtract_ack_handler_num
        0x08004b48:    b570        p.      PUSH     {r4-r6,lr}
        0x08004b4a:    4604        .F      MOV      r4,r0
        0x08004b4c:    2500        .%      MOVS     r5,#0
        0x08004b4e:    f1040054    ..T.    ADD      r0,r4,#0x54
        0x08004b52:    f000fc6e    ..n.    BL       platform_mutex_lock ; 0x8005432
        0x08004b56:    6aa0        .j      LDR      r0,[r4,#0x28]
        0x08004b58:    0a00        ..      LSRS     r0,r0,#8
        0x08004b5a:    2800        .(      CMP      r0,#0
        0x08004b5c:    dc00        ..      BGT      0x8004b60 ; mqtt_subtract_ack_handler_num + 24
        0x08004b5e:    e007        ..      B        0x8004b70 ; mqtt_subtract_ack_handler_num + 40
        0x08004b60:    2101        .!      MOVS     r1,#1
        0x08004b62:    6aa0        .j      LDR      r0,[r4,#0x28]
        0x08004b64:    ebc12110    ...!    RSB      r1,r1,r0,LSR #8
        0x08004b68:    f361201f    a..     BFI      r0,r1,#8,#24
        0x08004b6c:    62a0        .b      STR      r0,[r4,#0x28]
        0x08004b6e:    bf00        ..      NOP      
        0x08004b70:    f1040054    ..T.    ADD      r0,r4,#0x54
        0x08004b74:    f000fc6d    ..m.    BL       platform_mutex_unlock ; 0x8005452
        0x08004b78:    4628        (F      MOV      r0,r5
        0x08004b7a:    bd70        p.      POP      {r4-r6,pc}
    i.mqtt_topic_is_matched
    mqtt_topic_is_matched
        0x08004b7c:    b570        p.      PUSH     {r4-r6,lr}
        0x08004b7e:    4605        .F      MOV      r5,r0
        0x08004b80:    460c        .F      MOV      r4,r1
        0x08004b82:    4629        )F      MOV      r1,r5
        0x08004b84:    68a2        .h      LDR      r2,[r4,#8]
        0x08004b86:    6860        `h      LDR      r0,[r4,#4]
        0x08004b88:    1883        ..      ADDS     r3,r0,r2
        0x08004b8a:    e025        %.      B        0x8004bd8 ; mqtt_topic_is_matched + 92
        0x08004b8c:    7810        .x      LDRB     r0,[r2,#0]
        0x08004b8e:    282f        /(      CMP      r0,#0x2f
        0x08004b90:    d103        ..      BNE      0x8004b9a ; mqtt_topic_is_matched + 30
        0x08004b92:    7808        .x      LDRB     r0,[r1,#0]
        0x08004b94:    282f        /(      CMP      r0,#0x2f
        0x08004b96:    d000        ..      BEQ      0x8004b9a ; mqtt_topic_is_matched + 30
        0x08004b98:    e022        ".      B        0x8004be0 ; mqtt_topic_is_matched + 100
        0x08004b9a:    7808        .x      LDRB     r0,[r1,#0]
        0x08004b9c:    282b        +(      CMP      r0,#0x2b
        0x08004b9e:    d007        ..      BEQ      0x8004bb0 ; mqtt_topic_is_matched + 52
        0x08004ba0:    7808        .x      LDRB     r0,[r1,#0]
        0x08004ba2:    2823        #(      CMP      r0,#0x23
        0x08004ba4:    d004        ..      BEQ      0x8004bb0 ; mqtt_topic_is_matched + 52
        0x08004ba6:    7808        .x      LDRB     r0,[r1,#0]
        0x08004ba8:    7816        .x      LDRB     r6,[r2,#0]
        0x08004baa:    42b0        .B      CMP      r0,r6
        0x08004bac:    d000        ..      BEQ      0x8004bb0 ; mqtt_topic_is_matched + 52
        0x08004bae:    e017        ..      B        0x8004be0 ; mqtt_topic_is_matched + 100
        0x08004bb0:    7808        .x      LDRB     r0,[r1,#0]
        0x08004bb2:    282b        +(      CMP      r0,#0x2b
        0x08004bb4:    d10a        ..      BNE      0x8004bcc ; mqtt_topic_is_matched + 80
        0x08004bb6:    1c50        P.      ADDS     r0,r2,#1
        0x08004bb8:    e002        ..      B        0x8004bc0 ; mqtt_topic_is_matched + 68
        0x08004bba:    1c56        V.      ADDS     r6,r2,#1
        0x08004bbc:    4632        2F      MOV      r2,r6
        0x08004bbe:    1c70        p.      ADDS     r0,r6,#1
        0x08004bc0:    4298        .B      CMP      r0,r3
        0x08004bc2:    d202        ..      BCS      0x8004bca ; mqtt_topic_is_matched + 78
        0x08004bc4:    7806        .x      LDRB     r6,[r0,#0]
        0x08004bc6:    2e2f        /.      CMP      r6,#0x2f
        0x08004bc8:    d1f7        ..      BNE      0x8004bba ; mqtt_topic_is_matched + 62
        0x08004bca:    e003        ..      B        0x8004bd4 ; mqtt_topic_is_matched + 88
        0x08004bcc:    7808        .x      LDRB     r0,[r1,#0]
        0x08004bce:    2823        #(      CMP      r0,#0x23
        0x08004bd0:    d100        ..      BNE      0x8004bd4 ; mqtt_topic_is_matched + 88
        0x08004bd2:    1e5a        Z.      SUBS     r2,r3,#1
        0x08004bd4:    1c49        I.      ADDS     r1,r1,#1
        0x08004bd6:    1c52        R.      ADDS     r2,r2,#1
        0x08004bd8:    7808        .x      LDRB     r0,[r1,#0]
        0x08004bda:    b108        ..      CBZ      r0,0x8004be0 ; mqtt_topic_is_matched + 100
        0x08004bdc:    429a        .B      CMP      r2,r3
        0x08004bde:    d3d5        ..      BCC      0x8004b8c ; mqtt_topic_is_matched + 16
        0x08004be0:    bf00        ..      NOP      
        0x08004be2:    429a        .B      CMP      r2,r3
        0x08004be4:    d103        ..      BNE      0x8004bee ; mqtt_topic_is_matched + 114
        0x08004be6:    7808        .x      LDRB     r0,[r1,#0]
        0x08004be8:    b908        ..      CBNZ     r0,0x8004bee ; mqtt_topic_is_matched + 114
        0x08004bea:    2001        .       MOVS     r0,#1
        0x08004bec:    bd70        p.      POP      {r4-r6,pc}
        0x08004bee:    2000        .       MOVS     r0,#0
        0x08004bf0:    e7fc        ..      B        0x8004bec ; mqtt_topic_is_matched + 112
        0x08004bf2:    0000        ..      MOVS     r0,r0
    i.mqtt_try_do_reconnect
    mqtt_try_do_reconnect
        0x08004bf4:    b538        8.      PUSH     {r3-r5,lr}
        0x08004bf6:    4605        .F      MOV      r5,r0
        0x08004bf8:    f06f0403    o...    MVN      r4,#3
        0x08004bfc:    4628        (F      MOV      r0,r5
        0x08004bfe:    f7feff5b    ..[.    BL       mqtt_get_client_state ; 0x8003ab8
        0x08004c02:    2801        .(      CMP      r0,#1
        0x08004c04:    d003        ..      BEQ      0x8004c0e ; mqtt_try_do_reconnect + 26
        0x08004c06:    4628        (F      MOV      r0,r5
        0x08004c08:    f7fefdad    ....    BL       mqtt_connect ; 0x8003766
        0x08004c0c:    4604        .F      MOV      r4,r0
        0x08004c0e:    b93c        <.      CBNZ     r4,0x8004c20 ; mqtt_try_do_reconnect + 44
        0x08004c10:    4628        (F      MOV      r0,r5
        0x08004c12:    f000f85b    ..[.    BL       mqtt_try_resubscribe ; 0x8004ccc
        0x08004c16:    4604        .F      MOV      r4,r0
        0x08004c18:    2100        .!      MOVS     r1,#0
        0x08004c1a:    4628        (F      MOV      r0,r5
        0x08004c1c:    f7fefcd5    ....    BL       mqtt_ack_list_scan ; 0x80035ca
        0x08004c20:    4260        `B      RSBS     r0,r4,#0
        0x08004c22:    4b06        .K      LDR      r3,[pc,#24] ; [0x8004c3c] = 0x8007f9f
        0x08004c24:    f240225b    @.["    MOV      r2,#0x25b
        0x08004c28:    a105        ..      ADR      r1,{pc}+0x18 ; 0x8004c40
        0x08004c2a:    9000        ..      STR      r0,[sp,#0]
        0x08004c2c:    a00e        ..      ADR      r0,{pc}+0x3c ; 0x8004c68
        0x08004c2e:    f7fef899    ....    BL       __0printf$8 ; 0x8002d64
        0x08004c32:    a01a        ..      ADR      r0,{pc}+0x6a ; 0x8004c9c
        0x08004c34:    f7fef896    ....    BL       __0printf$8 ; 0x8002d64
        0x08004c38:    4620         F      MOV      r0,r4
        0x08004c3a:    bd38        8.      POP      {r3-r5,pc}
    $d
        0x08004c3c:    08007f9f    ....    DCD    134250399
        0x08004c40:    4d5c2e2e    ..\M    DCD    1297886766
        0x08004c44:    43545451    QTTC    DCD    1129600081
        0x08004c48:    6e65696c    lien    DCD    1852139884
        0x08004c4c:    716d5c74    t\mq    DCD    1902992500
        0x08004c50:    6c637474    ttcl    DCD    1818457204
        0x08004c54:    746e6569    ient    DCD    1953391977
        0x08004c58:    74716d5c    \mqt    DCD    1953590620
        0x08004c5c:    696c6374    tcli    DCD    1768711028
        0x08004c60:    2e746e65    ent.    DCD    779382373
        0x08004c64:    00000063    c...    DCD    99
        0x08004c68:    253a7325    %s:%    DCD    624587557
        0x08004c6c:    73252064    d %s    DCD    1931812964
        0x08004c70:    2e2e2928    ()..    DCD    774777128
        0x08004c74:    716d202e    . mq    DCD    1902977070
        0x08004c78:    74207474    tt t    DCD    1948284020
        0x08004c7c:    63207972    ry c    DCD    1663072626
        0x08004c80:    656e6e6f    onne    DCD    1701736047
        0x08004c84:    72207463    ct r    DCD    1914729571
        0x08004c88:    6c757365    esul    DCD    1819636581
        0x08004c8c:    73692074    t is    DCD    1936269428
        0x08004c90:    78302d20     -0x    DCD    2016423200
        0x08004c94:    78343025    %04x    DCD    2016686117
        0x08004c98:    00000000    ....    DCD    0
        0x08004c9c:    0000000a    ....    DCD    10
    $t
    i.mqtt_try_reconnect
    mqtt_try_reconnect
        0x08004ca0:    b570        p.      PUSH     {r4-r6,lr}
        0x08004ca2:    4604        .F      MOV      r4,r0
        0x08004ca4:    2500        .%      MOVS     r5,#0
        0x08004ca6:    6fa0        .o      LDR      r0,[r4,#0x78]
        0x08004ca8:    b118        ..      CBZ      r0,0x8004cb2 ; mqtt_try_reconnect + 18
        0x08004caa:    4620         F      MOV      r0,r4
        0x08004cac:    6fa2        .o      LDR      r2,[r4,#0x78]
        0x08004cae:    69a1        .i      LDR      r1,[r4,#0x18]
        0x08004cb0:    4790        .G      BLX      r2
        0x08004cb2:    4620         F      MOV      r0,r4
        0x08004cb4:    f7ffff9e    ....    BL       mqtt_try_do_reconnect ; 0x8004bf4
        0x08004cb8:    4605        .F      MOV      r5,r0
        0x08004cba:    b12d        -.      CBZ      r5,0x8004cc8 ; mqtt_try_reconnect + 40
        0x08004cbc:    6ba0        .k      LDR      r0,[r4,#0x38]
        0x08004cbe:    f7fffe83    ....    BL       mqtt_sleep_ms ; 0x80049c8
        0x08004cc2:    f06f000f    o...    MVN      r0,#0xf
        0x08004cc6:    bd70        p.      POP      {r4-r6,pc}
        0x08004cc8:    4628        (F      MOV      r0,r5
        0x08004cca:    e7fc        ..      B        0x8004cc6 ; mqtt_try_reconnect + 38
    i.mqtt_try_resubscribe
    mqtt_try_resubscribe
        0x08004ccc:    e92d41f0    -..A    PUSH     {r4-r8,lr}
        0x08004cd0:    4605        .F      MOV      r5,r0
        0x08004cd2:    f06f0814    o...    MVN      r8,#0x14
        0x08004cd6:    4b18        .K      LDR      r3,[pc,#96] ; [0x8004d38] = 0x8007f8a
        0x08004cd8:    f240223d    @.="    MOV      r2,#0x23d
        0x08004cdc:    a117        ..      ADR      r1,{pc}+0x60 ; 0x8004d3c
        0x08004cde:    a021        !.      ADR      r0,{pc}+0x86 ; 0x8004d64
        0x08004ce0:    f7fef840    ..@.    BL       __0printf$8 ; 0x8002d64
        0x08004ce4:    a029        ).      ADR      r0,{pc}+0xa8 ; 0x8004d8c
        0x08004ce6:    f7fef83d    ..=.    BL       __0printf$8 ; 0x8002d64
        0x08004cea:    f1050058    ..X.    ADD      r0,r5,#0x58
        0x08004cee:    f7fff87e    ..~.    BL       mqtt_list_is_empty ; 0x8003dee
        0x08004cf2:    b110        ..      CBZ      r0,0x8004cfa ; mqtt_try_resubscribe + 46
        0x08004cf4:    2000        .       MOVS     r0,#0
        0x08004cf6:    e8bd81f0    ....    POP      {r4-r8,pc}
        0x08004cfa:    6dac        .m      LDR      r4,[r5,#0x58]
        0x08004cfc:    6827        'h      LDR      r7,[r4,#0]
        0x08004cfe:    e015        ..      B        0x8004d2c ; mqtt_try_resubscribe + 96
        0x08004d00:    4626        &F      MOV      r6,r4
        0x08004d02:    7a32        2z      LDRB     r2,[r6,#8]
        0x08004d04:    4628        (F      MOV      r0,r5
        0x08004d06:    e9d61303    ....    LDRD     r1,r3,[r6,#0xc]
        0x08004d0a:    f7fffec1    ....    BL       mqtt_subscribe ; 0x8004a90
        0x08004d0e:    4680        .F      MOV      r8,r0
        0x08004d10:    3016        .0      ADDS     r0,r0,#0x16
        0x08004d12:    b948        H.      CBNZ     r0,0x8004d28 ; mqtt_try_resubscribe + 92
        0x08004d14:    4b08        .K      LDR      r3,[pc,#32] ; [0x8004d38] = 0x8007f8a
        0x08004d16:    f2402247    @.G"    MOV      r2,#0x247
        0x08004d1a:    a108        ..      ADR      r1,{pc}+0x22 ; 0x8004d3c
        0x08004d1c:    a01c        ..      ADR      r0,{pc}+0x74 ; 0x8004d90
        0x08004d1e:    f7fef821    ..!.    BL       __0printf$8 ; 0x8002d64
        0x08004d22:    a01a        ..      ADR      r0,{pc}+0x6a ; 0x8004d8c
        0x08004d24:    f7fef81e    ....    BL       __0printf$8 ; 0x8002d64
        0x08004d28:    463c        <F      MOV      r4,r7
        0x08004d2a:    6827        'h      LDR      r7,[r4,#0]
        0x08004d2c:    f1050058    ..X.    ADD      r0,r5,#0x58
        0x08004d30:    4284        .B      CMP      r4,r0
        0x08004d32:    d1e5        ..      BNE      0x8004d00 ; mqtt_try_resubscribe + 52
        0x08004d34:    4640        @F      MOV      r0,r8
        0x08004d36:    e7de        ..      B        0x8004cf6 ; mqtt_try_resubscribe + 42
    $d
        0x08004d38:    08007f8a    ....    DCD    134250378
        0x08004d3c:    4d5c2e2e    ..\M    DCD    1297886766
        0x08004d40:    43545451    QTTC    DCD    1129600081
        0x08004d44:    6e65696c    lien    DCD    1852139884
        0x08004d48:    716d5c74    t\mq    DCD    1902992500
        0x08004d4c:    6c637474    ttcl    DCD    1818457204
        0x08004d50:    746e6569    ient    DCD    1953391977
        0x08004d54:    74716d5c    \mqt    DCD    1953590620
        0x08004d58:    696c6374    tcli    DCD    1768711028
        0x08004d5c:    2e746e65    ent.    DCD    779382373
        0x08004d60:    00000063    c...    DCD    99
        0x08004d64:    253a7325    %s:%    DCD    624587557
        0x08004d68:    73252064    d %s    DCD    1931812964
        0x08004d6c:    2e2e2928    ()..    DCD    774777128
        0x08004d70:    716d202e    . mq    DCD    1902977070
        0x08004d74:    74207474    tt t    DCD    1948284020
        0x08004d78:    72207972    ry r    DCD    1914730866
        0x08004d7c:    62757365    esub    DCD    1651864421
        0x08004d80:    69726373    scri    DCD    1769104243
        0x08004d84:    2e206562    be .    DCD    773875042
        0x08004d88:    00002e2e    ....    DCD    11822
        0x08004d8c:    0000000a    ....    DCD    10
        0x08004d90:    253a7325    %s:%    DCD    624587557
        0x08004d94:    73252064    d %s    DCD    1931812964
        0x08004d98:    2e2e2928    ()..    DCD    774777128
        0x08004d9c:    716d202e    . mq    DCD    1902977070
        0x08004da0:    61207474    tt a    DCD    1629516916
        0x08004da4:    68206b63    ck h    DCD    1746955107
        0x08004da8:    6c646e61    andl    DCD    1818521185
        0x08004dac:    6e207265    er n    DCD    1847620197
        0x08004db0:    74206d75    um t    DCD    1948282229
        0x08004db4:    6d206f6f    oo m    DCD    1830842223
        0x08004db8:    20686375    uch     DCD    543712117
        0x08004dbc:    002e2e2e    ....    DCD    3026478
    $t
    i.mqtt_unsuback_packet_handle
    mqtt_unsuback_packet_handle
        0x08004dc0:    b57c        |.      PUSH     {r2-r6,lr}
        0x08004dc2:    4604        .F      MOV      r4,r0
        0x08004dc4:    460e        .F      MOV      r6,r1
        0x08004dc6:    f04f35ff    O..5    MOV      r5,#0xffffffff
        0x08004dca:    2000        .       MOVS     r0,#0
        0x08004dcc:    9000        ..      STR      r0,[sp,#0]
        0x08004dce:    4620         F      MOV      r0,r4
        0x08004dd0:    f7feff42    ..B.    BL       mqtt_is_connected ; 0x8003c58
        0x08004dd4:    4605        .F      MOV      r5,r0
        0x08004dd6:    b10d        ..      CBZ      r5,0x8004ddc ; mqtt_unsuback_packet_handle + 28
        0x08004dd8:    4628        (F      MOV      r0,r5
        0x08004dda:    bd7c        |.      POP      {r2-r6,pc}
        0x08004ddc:    4668        hF      MOV      r0,sp
        0x08004dde:    6b22        "k      LDR      r2,[r4,#0x30]
        0x08004de0:    69e1        .i      LDR      r1,[r4,#0x1c]
        0x08004de2:    f7fdf85b    ..[.    BL       MQTTDeserialize_unsuback ; 0x8001e9c
        0x08004de6:    2801        .(      CMP      r0,#1
        0x08004de8:    d002        ..      BEQ      0x8004df0 ; mqtt_unsuback_packet_handle + 48
        0x08004dea:    f06f000b    o...    MVN      r0,#0xb
        0x08004dee:    e7f4        ..      B        0x8004dda ; mqtt_unsuback_packet_handle + 26
        0x08004df0:    ab01        ..      ADD      r3,sp,#4
        0x08004df2:    f8bd2000    ...     LDRH     r2,[sp,#0]
        0x08004df6:    210b        .!      MOVS     r1,#0xb
        0x08004df8:    4620         F      MOV      r0,r4
        0x08004dfa:    f7fefc30    ..0.    BL       mqtt_ack_list_unrecord ; 0x800365e
        0x08004dfe:    4605        .F      MOV      r5,r0
        0x08004e00:    9801        ..      LDR      r0,[sp,#4]
        0x08004e02:    b910        ..      CBNZ     r0,0x8004e0a ; mqtt_unsuback_packet_handle + 74
        0x08004e04:    f06f0002    o...    MVN      r0,#2
        0x08004e08:    e7e7        ..      B        0x8004dda ; mqtt_unsuback_packet_handle + 26
        0x08004e0a:    9801        ..      LDR      r0,[sp,#4]
        0x08004e0c:    f7fff80d    ....    BL       mqtt_msg_handler_destory ; 0x8003e2a
        0x08004e10:    4628        (F      MOV      r0,r5
        0x08004e12:    e7e2        ..      B        0x8004dda ; mqtt_unsuback_packet_handle + 26
    i.mqtt_wait_packet
    mqtt_wait_packet
        0x08004e14:    e92d41f0    -..A    PUSH     {r4-r8,lr}
        0x08004e18:    4607        .F      MOV      r7,r0
        0x08004e1a:    460e        .F      MOV      r6,r1
        0x08004e1c:    4614        .F      MOV      r4,r2
        0x08004e1e:    f04f35ff    O..5    MOV      r5,#0xffffffff
        0x08004e22:    bf00        ..      NOP      
        0x08004e24:    4620         F      MOV      r0,r4
        0x08004e26:    f000fca1    ....    BL       platform_timer_is_expired ; 0x800576c
        0x08004e2a:    b100        ..      CBZ      r0,0x8004e2e ; mqtt_wait_packet + 26
        0x08004e2c:    e008        ..      B        0x8004e40 ; mqtt_wait_packet + 44
        0x08004e2e:    4621        !F      MOV      r1,r4
        0x08004e30:    4638        8F      MOV      r0,r7
        0x08004e32:    f7fff8ad    ....    BL       mqtt_packet_handle ; 0x8003f90
        0x08004e36:    4605        .F      MOV      r5,r0
        0x08004e38:    42b5        .B      CMP      r5,r6
        0x08004e3a:    d001        ..      BEQ      0x8004e40 ; mqtt_wait_packet + 44
        0x08004e3c:    2d00        .-      CMP      r5,#0
        0x08004e3e:    daf1        ..      BGE      0x8004e24 ; mqtt_wait_packet + 16
        0x08004e40:    bf00        ..      NOP      
        0x08004e42:    4628        (F      MOV      r0,r5
        0x08004e44:    e8bd81f0    ....    POP      {r4-r8,pc}
    i.mqtt_write_buf_malloc
    mqtt_write_buf_malloc
        0x08004e48:    b570        p.      PUSH     {r4-r6,lr}
        0x08004e4a:    4604        .F      MOV      r4,r0
        0x08004e4c:    460d        .F      MOV      r5,r1
        0x08004e4e:    b95c        \.      CBNZ     r4,0x8004e68 ; mqtt_write_buf_malloc + 32
        0x08004e50:    4b18        .K      LDR      r3,[pc,#96] ; [0x8004eb4] = 0x8008059
        0x08004e52:    f44f6288    O..b    MOV      r2,#0x440
        0x08004e56:    a118        ..      ADR      r1,{pc}+0x62 ; 0x8004eb8
        0x08004e58:    a021        !.      ADR      r0,{pc}+0x88 ; 0x8004ee0
        0x08004e5a:    f7fdff83    ....    BL       __0printf$8 ; 0x8002d64
        0x08004e5e:    a028        (.      ADR      r0,{pc}+0xa2 ; 0x8004f00
        0x08004e60:    f7fdff80    ....    BL       __0printf$8 ; 0x8002d64
        0x08004e64:    2000        .       MOVS     r0,#0
        0x08004e66:    bd70        p.      POP      {r4-r6,pc}
        0x08004e68:    6a20         j      LDR      r0,[r4,#0x20]
        0x08004e6a:    b110        ..      CBZ      r0,0x8004e72 ; mqtt_write_buf_malloc + 42
        0x08004e6c:    6a20         j      LDR      r0,[r4,#0x20]
        0x08004e6e:    f000faca    ....    BL       platform_memory_free ; 0x8005406
        0x08004e72:    6365        ec      STR      r5,[r4,#0x34]
        0x08004e74:    6b60        `k      LDR      r0,[r4,#0x34]
        0x08004e76:    2802        .(      CMP      r0,#2
        0x08004e78:    d904        ..      BLS      0x8004e84 ; mqtt_write_buf_malloc + 60
        0x08004e7a:    f06f4170    o.pA    MVN      r1,#0xf0000000
        0x08004e7e:    6b60        `k      LDR      r0,[r4,#0x34]
        0x08004e80:    4288        .B      CMP      r0,r1
        0x08004e82:    d302        ..      BCC      0x8004e8a ; mqtt_write_buf_malloc + 66
        0x08004e84:    f44f6080    O..`    MOV      r0,#0x400
        0x08004e88:    6360        `c      STR      r0,[r4,#0x34]
        0x08004e8a:    6b60        `k      LDR      r0,[r4,#0x34]
        0x08004e8c:    f000faae    ....    BL       platform_memory_alloc ; 0x80053ec
        0x08004e90:    6220         b      STR      r0,[r4,#0x20]
        0x08004e92:    6a20         j      LDR      r0,[r4,#0x20]
        0x08004e94:    b960        `.      CBNZ     r0,0x8004eb0 ; mqtt_write_buf_malloc + 104
        0x08004e96:    4b07        .K      LDR      r3,[pc,#28] ; [0x8004eb4] = 0x8008059
        0x08004e98:    f240424e    @.NB    MOV      r2,#0x44e
        0x08004e9c:    a106        ..      ADR      r1,{pc}+0x1c ; 0x8004eb8
        0x08004e9e:    a019        ..      ADR      r0,{pc}+0x66 ; 0x8004f04
        0x08004ea0:    f7fdff60    ..`.    BL       __0printf$8 ; 0x8002d64
        0x08004ea4:    a016        ..      ADR      r0,{pc}+0x5c ; 0x8004f00
        0x08004ea6:    f7fdff5d    ..].    BL       __0printf$8 ; 0x8002d64
        0x08004eaa:    f06f0002    o...    MVN      r0,#2
        0x08004eae:    e7da        ..      B        0x8004e66 ; mqtt_write_buf_malloc + 30
        0x08004eb0:    6b60        `k      LDR      r0,[r4,#0x34]
        0x08004eb2:    e7d8        ..      B        0x8004e66 ; mqtt_write_buf_malloc + 30
    $d
        0x08004eb4:    08008059    Y...    DCD    134250585
        0x08004eb8:    4d5c2e2e    ..\M    DCD    1297886766
        0x08004ebc:    43545451    QTTC    DCD    1129600081
        0x08004ec0:    6e65696c    lien    DCD    1852139884
        0x08004ec4:    716d5c74    t\mq    DCD    1902992500
        0x08004ec8:    6c637474    ttcl    DCD    1818457204
        0x08004ecc:    746e6569    ient    DCD    1953391977
        0x08004ed0:    74716d5c    \mqt    DCD    1953590620
        0x08004ed4:    696c6374    tcli    DCD    1768711028
        0x08004ed8:    2e746e65    ent.    DCD    779382373
        0x08004edc:    00000063    c...    DCD    99
        0x08004ee0:    253a7325    %s:%    DCD    624587557
        0x08004ee4:    73252064    d %s    DCD    1931812964
        0x08004ee8:    2e2e2928    ()..    DCD    774777128
        0x08004eec:    6863202e    . ch    DCD    1751326766
        0x08004ef0:    206b6365    eck     DCD    543908709
        0x08004ef4:    20726f66    for     DCD    544370534
        0x08004ef8:    6f727265    erro    DCD    1869771365
        0x08004efc:    00002e72    r...    DCD    11890
        0x08004f00:    0000000a    ....    DCD    10
        0x08004f04:    253a7325    %s:%    DCD    624587557
        0x08004f08:    73252064    d %s    DCD    1931812964
        0x08004f0c:    2e2e2928    ()..    DCD    774777128
        0x08004f10:    616d202e    . ma    DCD    1634541614
        0x08004f14:    636f6c6c    lloc    DCD    1668246636
        0x08004f18:    69727720     wri    DCD    1769109280
        0x08004f1c:    62206574    te b    DCD    1646290292
        0x08004f20:    66206675    uf f    DCD    1713399413
        0x08004f24:    656c6961    aile    DCD    1701603681
        0x08004f28:    2e2e2e64    d...    DCD    774778468
        0x08004f2c:    00000000    ....    DCD    0
    $t
    i.mqtt_yield
    mqtt_yield
        0x08004f30:    b5f8        ..      PUSH     {r3-r7,lr}
        0x08004f32:    4606        .F      MOV      r6,r0
        0x08004f34:    460f        .F      MOV      r7,r1
        0x08004f36:    2400        .$      MOVS     r4,#0
        0x08004f38:    b90e        ..      CBNZ     r6,0x8004f3e ; mqtt_yield + 14
        0x08004f3a:    1e60        `.      SUBS     r0,r4,#1
        0x08004f3c:    bdf8        ..      POP      {r3-r7,pc}
        0x08004f3e:    b907        ..      CBNZ     r7,0x8004f42 ; mqtt_yield + 18
        0x08004f40:    6af7        .j      LDR      r7,[r6,#0x2c]
        0x08004f42:    4668        hF      MOV      r0,sp
        0x08004f44:    f000fc0f    ....    BL       platform_timer_init ; 0x8005766
        0x08004f48:    4639        9F      MOV      r1,r7
        0x08004f4a:    4668        hF      MOV      r0,sp
        0x08004f4c:    f000fc01    ....    BL       platform_timer_cutdown ; 0x8005752
        0x08004f50:    e030        0.      B        0x8004fb4 ; mqtt_yield + 132
        0x08004f52:    4630        0F      MOV      r0,r6
        0x08004f54:    f7fefdb0    ....    BL       mqtt_get_client_state ; 0x8003ab8
        0x08004f58:    4605        .F      MOV      r5,r0
        0x08004f5a:    2d03        .-      CMP      r5,#3
        0x08004f5c:    d102        ..      BNE      0x8004f64 ; mqtt_yield + 52
        0x08004f5e:    f06f0017    o...    MVN      r0,#0x17
        0x08004f62:    e7eb        ..      B        0x8004f3c ; mqtt_yield + 12
        0x08004f64:    2d01        .-      CMP      r5,#1
        0x08004f66:    d009        ..      BEQ      0x8004f7c ; mqtt_yield + 76
        0x08004f68:    4630        0F      MOV      r0,r6
        0x08004f6a:    f7fffe99    ....    BL       mqtt_try_reconnect ; 0x8004ca0
        0x08004f6e:    4604        .F      MOV      r4,r0
        0x08004f70:    f1140f10    ....    CMN      r4,#0x10
        0x08004f74:    d101        ..      BNE      0x8004f7a ; mqtt_yield + 74
        0x08004f76:    4620         F      MOV      r0,r4
        0x08004f78:    e7e0        ..      B        0x8004f3c ; mqtt_yield + 12
        0x08004f7a:    e01b        ..      B        0x8004fb4 ; mqtt_yield + 132
        0x08004f7c:    4669        iF      MOV      r1,sp
        0x08004f7e:    4630        0F      MOV      r0,r6
        0x08004f80:    f7fff806    ....    BL       mqtt_packet_handle ; 0x8003f90
        0x08004f84:    4604        .F      MOV      r4,r0
        0x08004f86:    2c00        .,      CMP      r4,#0
        0x08004f88:    db04        ..      BLT      0x8004f94 ; mqtt_yield + 100
        0x08004f8a:    2101        .!      MOVS     r1,#1
        0x08004f8c:    4630        0F      MOV      r0,r6
        0x08004f8e:    f7fefb1c    ....    BL       mqtt_ack_list_scan ; 0x80035ca
        0x08004f92:    e00e        ..      B        0x8004fb2 ; mqtt_yield + 130
        0x08004f94:    f1140f0e    ....    CMN      r4,#0xe
        0x08004f98:    d10a        ..      BNE      0x8004fb0 ; mqtt_yield + 128
        0x08004f9a:    4b0a        .K      LDR      r3,[pc,#40] ; [0x8004fc4] = 0x8007fb5
        0x08004f9c:    f2403299    @..2    MOV      r2,#0x399
        0x08004fa0:    a109        ..      ADR      r1,{pc}+0x28 ; 0x8004fc8
        0x08004fa2:    a013        ..      ADR      r0,{pc}+0x4e ; 0x8004ff0
        0x08004fa4:    f7fdfede    ....    BL       __0printf$8 ; 0x8002d64
        0x08004fa8:    a019        ..      ADR      r0,{pc}+0x68 ; 0x8005010
        0x08004faa:    f7fdfedb    ....    BL       __0printf$8 ; 0x8002d64
        0x08004fae:    e000        ..      B        0x8004fb2 ; mqtt_yield + 130
        0x08004fb0:    e005        ..      B        0x8004fbe ; mqtt_yield + 142
        0x08004fb2:    bf00        ..      NOP      
        0x08004fb4:    4668        hF      MOV      r0,sp
        0x08004fb6:    f000fbd9    ....    BL       platform_timer_is_expired ; 0x800576c
        0x08004fba:    2800        .(      CMP      r0,#0
        0x08004fbc:    d0c9        ..      BEQ      0x8004f52 ; mqtt_yield + 34
        0x08004fbe:    bf00        ..      NOP      
        0x08004fc0:    4620         F      MOV      r0,r4
        0x08004fc2:    e7bb        ..      B        0x8004f3c ; mqtt_yield + 12
    $d
        0x08004fc4:    08007fb5    ....    DCD    134250421
        0x08004fc8:    4d5c2e2e    ..\M    DCD    1297886766
        0x08004fcc:    43545451    QTTC    DCD    1129600081
        0x08004fd0:    6e65696c    lien    DCD    1852139884
        0x08004fd4:    716d5c74    t\mq    DCD    1902992500
        0x08004fd8:    6c637474    ttcl    DCD    1818457204
        0x08004fdc:    746e6569    ient    DCD    1953391977
        0x08004fe0:    74716d5c    \mqt    DCD    1953590620
        0x08004fe4:    696c6374    tcli    DCD    1768711028
        0x08004fe8:    2e746e65    ent.    DCD    779382373
        0x08004fec:    00000063    c...    DCD    99
        0x08004ff0:    253a7325    %s:%    DCD    624587557
        0x08004ff4:    73252064    d %s    DCD    1931812964
        0x08004ff8:    2e2e2928    ()..    DCD    774777128
        0x08004ffc:    716d202e    . mq    DCD    1902977070
        0x08005000:    6e207474    tt n    DCD    1847620724
        0x08005004:    6320746f    ot c    DCD    1663071343
        0x08005008:    656e6e6f    onne    DCD    1701736047
        0x0800500c:    00007463    ct..    DCD    29795
        0x08005010:    0000000a    ....    DCD    10
    $t
    i.mqtt_yield_thread
    mqtt_yield_thread
        0x08005014:    e92d41f0    -..A    PUSH     {r4-r8,lr}
        0x08005018:    4606        .F      MOV      r6,r0
        0x0800501a:    4634        4F      MOV      r4,r6
        0x0800501c:    f04f0800    O...    MOV      r8,#0
        0x08005020:    4620         F      MOV      r0,r4
        0x08005022:    f7fefd49    ..I.    BL       mqtt_get_client_state ; 0x8003ab8
        0x08005026:    4607        .F      MOV      r7,r0
        0x08005028:    2f01        ./      CMP      r7,#1
        0x0800502a:    d00c        ..      BEQ      0x8005046 ; mqtt_yield_thread + 50
        0x0800502c:    4b1e        .K      LDR      r3,[pc,#120] ; [0x80050a8] = 0x8007fc0
        0x0800502e:    f24032ab    @..2    MOV      r2,#0x3ab
        0x08005032:    a11e        ..      ADR      r1,{pc}+0x7a ; 0x80050ac
        0x08005034:    a027        '.      ADR      r0,{pc}+0xa0 ; 0x80050d4
        0x08005036:    f7fdfe95    ....    BL       __0printf$8 ; 0x8002d64
        0x0800503a:    a034        4.      ADR      r0,{pc}+0xd2 ; 0x800510c
        0x0800503c:    f7fdfe92    ....    BL       __0printf$8 ; 0x8002d64
        0x08005040:    6ee0        .n      LDR      r0,[r4,#0x6c]
        0x08005042:    f000fb80    ....    BL       platform_thread_stop ; 0x8005746
        0x08005046:    e025        %.      B        0x8005094 ; mqtt_yield_thread + 128
        0x08005048:    4620         F      MOV      r0,r4
        0x0800504a:    6ae1        .j      LDR      r1,[r4,#0x2c]
        0x0800504c:    f7ffff70    ..p.    BL       mqtt_yield ; 0x8004f30
        0x08005050:    4605        .F      MOV      r5,r0
        0x08005052:    f1150f18    ....    CMN      r5,#0x18
        0x08005056:    d110        ..      BNE      0x800507a ; mqtt_yield_thread + 102
        0x08005058:    4b13        .K      LDR      r3,[pc,#76] ; [0x80050a8] = 0x8007fc0
        0x0800505a:    f24032b2    @..2    MOV      r2,#0x3b2
        0x0800505e:    a113        ..      ADR      r1,{pc}+0x4e ; 0x80050ac
        0x08005060:    a02b        +.      ADR      r0,{pc}+0xb0 ; 0x8005110
        0x08005062:    f7fdfe7f    ....    BL       __0printf$8 ; 0x8002d64
        0x08005066:    a029        ).      ADR      r0,{pc}+0xa6 ; 0x800510c
        0x08005068:    f7fdfe7c    ..|.    BL       __0printf$8 ; 0x8002d64
        0x0800506c:    6ea0        .n      LDR      r0,[r4,#0x68]
        0x0800506e:    f000f8b4    ....    BL       network_disconnect ; 0x80051da
        0x08005072:    4620         F      MOV      r0,r4
        0x08005074:    f7fefb32    ..2.    BL       mqtt_clean_session ; 0x80036dc
        0x08005078:    e00d        ..      B        0x8005096 ; mqtt_yield_thread + 130
        0x0800507a:    f1150f10    ....    CMN      r5,#0x10
        0x0800507e:    d109        ..      BNE      0x8005094 ; mqtt_yield_thread + 128
        0x08005080:    4b09        .K      LDR      r3,[pc,#36] ; [0x80050a8] = 0x8007fc0
        0x08005082:    f24032b7    @..2    MOV      r2,#0x3b7
        0x08005086:    a109        ..      ADR      r1,{pc}+0x26 ; 0x80050ac
        0x08005088:    a02b        +.      ADR      r0,{pc}+0xb0 ; 0x8005138
        0x0800508a:    f7fdfe6b    ..k.    BL       __0printf$8 ; 0x8002d64
        0x0800508e:    a01f        ..      ADR      r0,{pc}+0x7e ; 0x800510c
        0x08005090:    f7fdfe68    ..h.    BL       __0printf$8 ; 0x8002d64
        0x08005094:    e7d8        ..      B        0x8005048 ; mqtt_yield_thread + 52
        0x08005096:    f8d4806c    ..l.    LDR      r8,[r4,#0x6c]
        0x0800509a:    2000        .       MOVS     r0,#0
        0x0800509c:    66e0        .f      STR      r0,[r4,#0x6c]
        0x0800509e:    4640        @F      MOV      r0,r8
        0x080050a0:    f000fb20    .. .    BL       platform_thread_destroy ; 0x80056e4
        0x080050a4:    e8bd81f0    ....    POP      {r4-r8,pc}
    $d
        0x080050a8:    08007fc0    ....    DCD    134250432
        0x080050ac:    4d5c2e2e    ..\M    DCD    1297886766
        0x080050b0:    43545451    QTTC    DCD    1129600081
        0x080050b4:    6e65696c    lien    DCD    1852139884
        0x080050b8:    716d5c74    t\mq    DCD    1902992500
        0x080050bc:    6c637474    ttcl    DCD    1818457204
        0x080050c0:    746e6569    ient    DCD    1953391977
        0x080050c4:    74716d5c    \mqt    DCD    1953590620
        0x080050c8:    696c6374    tcli    DCD    1768711028
        0x080050cc:    2e746e65    ent.    DCD    779382373
        0x080050d0:    00000063    c...    DCD    99
        0x080050d4:    253a7325    %s:%    DCD    624587557
        0x080050d8:    73252064    d %s    DCD    1931812964
        0x080050dc:    2e2e2928    ()..    DCD    774777128
        0x080050e0:    6d202c2e    ., m    DCD    1830825006
        0x080050e4:    20747471    qtt     DCD    544502897
        0x080050e8:    6e207369    is n    DCD    1847620457
        0x080050ec:    6320746f    ot c    DCD    1663071343
        0x080050f0:    656e6e6f    onne    DCD    1701736047
        0x080050f4:    64657463    cted    DCD    1684370531
        0x080050f8:    206f7420     to     DCD    544175136
        0x080050fc:    20656874    the     DCD    543516788
        0x08005100:    76726573    serv    DCD    1987208563
        0x08005104:    2e2e7265    er..    DCD    774795877
        0x08005108:    0000002e    ....    DCD    46
        0x0800510c:    0000000a    ....    DCD    10
        0x08005110:    253a7325    %s:%    DCD    624587557
        0x08005114:    73252064    d %s    DCD    1931812964
        0x08005118:    2e2e2928    ()..    DCD    774777128
        0x0800511c:    6d202c2e    ., m    DCD    1830825006
        0x08005120:    20747471    qtt     DCD    544502897
        0x08005124:    61656c63    clea    DCD    1634036835
        0x08005128:    6573206e    n se    DCD    1702043758
        0x0800512c:    6f697373    ssio    DCD    1869181811
        0x08005130:    2e2e2e6e    n...    DCD    774778478
        0x08005134:    0000002e    ....    DCD    46
        0x08005138:    253a7325    %s:%    DCD    624587557
        0x0800513c:    73252064    d %s    DCD    1931812964
        0x08005140:    2e2e2928    ()..    DCD    774777128
        0x08005144:    6d202c2e    ., m    DCD    1830825006
        0x08005148:    20747471    qtt     DCD    544502897
        0x0800514c:    6f636572    reco    DCD    1868785010
        0x08005150:    63656e6e    nnec    DCD    1667591790
        0x08005154:    69742074    t ti    DCD    1769218164
        0x08005158:    756f656d    meou    DCD    1970234733
        0x0800515c:    2e2e2e74    t...    DCD    774778484
        0x08005160:    0000002e    ....    DCD    46
    $t
    i.nettype_tcp_connect
    nettype_tcp_connect
        0x08005164:    b510        ..      PUSH     {r4,lr}
        0x08005166:    4604        .F      MOV      r4,r0
        0x08005168:    2200        ."      MOVS     r2,#0
        0x0800516a:    e9d40100    ....    LDRD     r0,r1,[r4,#0]
        0x0800516e:    f000f9a1    ....    BL       platform_net_socket_connect ; 0x80054b4
        0x08005172:    60a0        .`      STR      r0,[r4,#8]
        0x08005174:    68a0        .h      LDR      r0,[r4,#8]
        0x08005176:    2800        .(      CMP      r0,#0
        0x08005178:    da01        ..      BGE      0x800517e ; nettype_tcp_connect + 26
        0x0800517a:    68a0        .h      LDR      r0,[r4,#8]
        0x0800517c:    bd10        ..      POP      {r4,pc}
        0x0800517e:    2000        .       MOVS     r0,#0
        0x08005180:    e7fc        ..      B        0x800517c ; nettype_tcp_connect + 24
    i.nettype_tcp_disconnect
    nettype_tcp_disconnect
        0x08005182:    b510        ..      PUSH     {r4,lr}
        0x08005184:    4604        .F      MOV      r4,r0
        0x08005186:    b114        ..      CBZ      r4,0x800518e ; nettype_tcp_disconnect + 12
        0x08005188:    68a0        .h      LDR      r0,[r4,#8]
        0x0800518a:    f000f983    ....    BL       platform_net_socket_close ; 0x8005494
        0x0800518e:    f04f30ff    O..0    MOV      r0,#0xffffffff
        0x08005192:    60a0        .`      STR      r0,[r4,#8]
        0x08005194:    bd10        ..      POP      {r4,pc}
    i.nettype_tcp_read
    nettype_tcp_read
        0x08005196:    e92d41f0    -..A    PUSH     {r4-r8,lr}
        0x0800519a:    4604        .F      MOV      r4,r0
        0x0800519c:    460d        .F      MOV      r5,r1
        0x0800519e:    4616        .F      MOV      r6,r2
        0x080051a0:    461f        .F      MOV      r7,r3
        0x080051a2:    463b        ;F      MOV      r3,r7
        0x080051a4:    4632        2F      MOV      r2,r6
        0x080051a6:    4629        )F      MOV      r1,r5
        0x080051a8:    68a0        .h      LDR      r0,[r4,#8]
        0x080051aa:    f000fa29    ..).    BL       platform_net_socket_recv_timeout ; 0x8005600
        0x080051ae:    e8bd81f0    ....    POP      {r4-r8,pc}
    i.nettype_tcp_write
    nettype_tcp_write
        0x080051b2:    e92d41f0    -..A    PUSH     {r4-r8,lr}
        0x080051b6:    4604        .F      MOV      r4,r0
        0x080051b8:    460d        .F      MOV      r5,r1
        0x080051ba:    4616        .F      MOV      r6,r2
        0x080051bc:    461f        .F      MOV      r7,r3
        0x080051be:    463b        ;F      MOV      r3,r7
        0x080051c0:    4632        2F      MOV      r2,r6
        0x080051c2:    4629        )F      MOV      r1,r5
        0x080051c4:    68a0        .h      LDR      r0,[r4,#8]
        0x080051c6:    f000fa31    ..1.    BL       platform_net_socket_write_timeout ; 0x800562c
        0x080051ca:    e8bd81f0    ....    POP      {r4-r8,pc}
    i.network_connect
    network_connect
        0x080051ce:    b510        ..      PUSH     {r4,lr}
        0x080051d0:    4604        .F      MOV      r4,r0
        0x080051d2:    4620         F      MOV      r0,r4
        0x080051d4:    f7ffffc6    ....    BL       nettype_tcp_connect ; 0x8005164
        0x080051d8:    bd10        ..      POP      {r4,pc}
    i.network_disconnect
    network_disconnect
        0x080051da:    b510        ..      PUSH     {r4,lr}
        0x080051dc:    4604        .F      MOV      r4,r0
        0x080051de:    4620         F      MOV      r0,r4
        0x080051e0:    f7ffffcf    ....    BL       nettype_tcp_disconnect ; 0x8005182
        0x080051e4:    bd10        ..      POP      {r4,pc}
    i.network_init
    network_init
        0x080051e6:    b510        ..      PUSH     {r4,lr}
        0x080051e8:    4604        .F      MOV      r4,r0
        0x080051ea:    b914        ..      CBNZ     r4,0x80051f2 ; network_init + 12
        0x080051ec:    f06f0001    o...    MVN      r0,#1
        0x080051f0:    bd10        ..      POP      {r4,pc}
        0x080051f2:    f04f30ff    O..0    MOV      r0,#0xffffffff
        0x080051f6:    60a0        .`      STR      r0,[r4,#8]
        0x080051f8:    6021        !`      STR      r1,[r4,#0]
        0x080051fa:    6062        b`      STR      r2,[r4,#4]
        0x080051fc:    2000        .       MOVS     r0,#0
        0x080051fe:    e7f7        ..      B        0x80051f0 ; network_init + 10
    i.network_read
    network_read
        0x08005200:    e92d41f0    -..A    PUSH     {r4-r8,lr}
        0x08005204:    4604        .F      MOV      r4,r0
        0x08005206:    460d        .F      MOV      r5,r1
        0x08005208:    4616        .F      MOV      r6,r2
        0x0800520a:    461f        .F      MOV      r7,r3
        0x0800520c:    463b        ;F      MOV      r3,r7
        0x0800520e:    4632        2F      MOV      r2,r6
        0x08005210:    4629        )F      MOV      r1,r5
        0x08005212:    4620         F      MOV      r0,r4
        0x08005214:    f7ffffbf    ....    BL       nettype_tcp_read ; 0x8005196
        0x08005218:    e8bd81f0    ....    POP      {r4-r8,pc}
    i.network_release
    network_release
        0x0800521c:    b510        ..      PUSH     {r4,lr}
        0x0800521e:    4604        .F      MOV      r4,r0
        0x08005220:    68a0        .h      LDR      r0,[r4,#8]
        0x08005222:    2800        .(      CMP      r0,#0
        0x08005224:    db02        ..      BLT      0x800522c ; network_release + 16
        0x08005226:    4620         F      MOV      r0,r4
        0x08005228:    f7ffffd7    ....    BL       network_disconnect ; 0x80051da
        0x0800522c:    2000        .       MOVS     r0,#0
        0x0800522e:    6020         `      STR      r0,[r4,#0]
        0x08005230:    6060        ``      STR      r0,[r4,#4]
        0x08005232:    60a0        .`      STR      r0,[r4,#8]
        0x08005234:    bd10        ..      POP      {r4,pc}
    i.network_write
    network_write
        0x08005236:    e92d41f0    -..A    PUSH     {r4-r8,lr}
        0x0800523a:    4604        .F      MOV      r4,r0
        0x0800523c:    460d        .F      MOV      r5,r1
        0x0800523e:    4616        .F      MOV      r6,r2
        0x08005240:    461f        .F      MOV      r7,r3
        0x08005242:    463b        ;F      MOV      r3,r7
        0x08005244:    4632        2F      MOV      r2,r6
        0x08005246:    4629        )F      MOV      r1,r5
        0x08005248:    4620         F      MOV      r0,r4
        0x0800524a:    f7ffffb2    ....    BL       nettype_tcp_write ; 0x80051b2
        0x0800524e:    e8bd81f0    ....    POP      {r4-r8,pc}
        0x08005252:    0000        ..      MOVS     r0,r0
    i.osDelay
    osDelay
        0x08005254:    b570        p.      PUSH     {r4-r6,lr}
        0x08005256:    4605        .F      MOV      r5,r0
        0x08005258:    f7fdfdc7    ....    BL       __get_IPSR ; 0x8002dea
        0x0800525c:    b948        H.      CBNZ     r0,0x8005272 ; osDelay + 30
        0x0800525e:    f7fdfdc7    ....    BL       __get_PRIMASK ; 0x8002df0
        0x08005262:    b930        0.      CBNZ     r0,0x8005272 ; osDelay + 30
        0x08005264:    4808        .H      LDR      r0,[pc,#32] ; [0x8005288] = 0x2000006c
        0x08005266:    6800        .h      LDR      r0,[r0,#0]
        0x08005268:    2802        .(      CMP      r0,#2
        0x0800526a:    d105        ..      BNE      0x8005278 ; osDelay + 36
        0x0800526c:    f7fdfdba    ....    BL       __get_BASEPRI ; 0x8002de4
        0x08005270:    b110        ..      CBZ      r0,0x8005278 ; osDelay + 36
        0x08005272:    f06f0405    o...    MVN      r4,#5
        0x08005276:    e004        ..      B        0x8005282 ; osDelay + 46
        0x08005278:    2400        .$      MOVS     r4,#0
        0x0800527a:    b115        ..      CBZ      r5,0x8005282 ; osDelay + 46
        0x0800527c:    4628        (F      MOV      r0,r5
        0x0800527e:    f001fb1f    ....    BL       vTaskDelay ; 0x80068c0
        0x08005282:    4620         F      MOV      r0,r4
        0x08005284:    bd70        p.      POP      {r4-r6,pc}
    $d
        0x08005286:    0000        ..      DCW    0
        0x08005288:    2000006c    l..     DCD    536871020
    $t
    i.osKernelInitialize
    osKernelInitialize
        0x0800528c:    b510        ..      PUSH     {r4,lr}
        0x0800528e:    f7fdfdac    ....    BL       __get_IPSR ; 0x8002dea
        0x08005292:    b948        H.      CBNZ     r0,0x80052a8 ; osKernelInitialize + 28
        0x08005294:    f7fdfdac    ....    BL       __get_PRIMASK ; 0x8002df0
        0x08005298:    b930        0.      CBNZ     r0,0x80052a8 ; osKernelInitialize + 28
        0x0800529a:    480b        .H      LDR      r0,[pc,#44] ; [0x80052c8] = 0x2000006c
        0x0800529c:    6800        .h      LDR      r0,[r0,#0]
        0x0800529e:    2802        .(      CMP      r0,#2
        0x080052a0:    d105        ..      BNE      0x80052ae ; osKernelInitialize + 34
        0x080052a2:    f7fdfd9f    ....    BL       __get_BASEPRI ; 0x8002de4
        0x080052a6:    b110        ..      CBZ      r0,0x80052ae ; osKernelInitialize + 34
        0x080052a8:    f06f0405    o...    MVN      r4,#5
        0x080052ac:    e009        ..      B        0x80052c2 ; osKernelInitialize + 54
        0x080052ae:    4806        .H      LDR      r0,[pc,#24] ; [0x80052c8] = 0x2000006c
        0x080052b0:    6800        .h      LDR      r0,[r0,#0]
        0x080052b2:    b920         .      CBNZ     r0,0x80052be ; osKernelInitialize + 50
        0x080052b4:    2001        .       MOVS     r0,#1
        0x080052b6:    4904        .I      LDR      r1,[pc,#16] ; [0x80052c8] = 0x2000006c
        0x080052b8:    6008        .`      STR      r0,[r1,#0]
        0x080052ba:    2400        .$      MOVS     r4,#0
        0x080052bc:    e001        ..      B        0x80052c2 ; osKernelInitialize + 54
        0x080052be:    f04f34ff    O..4    MOV      r4,#0xffffffff
        0x080052c2:    4620         F      MOV      r0,r4
        0x080052c4:    bd10        ..      POP      {r4,pc}
    $d
        0x080052c6:    0000        ..      DCW    0
        0x080052c8:    2000006c    l..     DCD    536871020
    $t
    i.osKernelStart
    osKernelStart
        0x080052cc:    b510        ..      PUSH     {r4,lr}
        0x080052ce:    f7fdfd8c    ....    BL       __get_IPSR ; 0x8002dea
        0x080052d2:    b948        H.      CBNZ     r0,0x80052e8 ; osKernelStart + 28
        0x080052d4:    f7fdfd8c    ....    BL       __get_PRIMASK ; 0x8002df0
        0x080052d8:    b930        0.      CBNZ     r0,0x80052e8 ; osKernelStart + 28
        0x080052da:    480c        .H      LDR      r0,[pc,#48] ; [0x800530c] = 0x2000006c
        0x080052dc:    6800        .h      LDR      r0,[r0,#0]
        0x080052de:    2802        .(      CMP      r0,#2
        0x080052e0:    d105        ..      BNE      0x80052ee ; osKernelStart + 34
        0x080052e2:    f7fdfd7f    ....    BL       __get_BASEPRI ; 0x8002de4
        0x080052e6:    b110        ..      CBZ      r0,0x80052ee ; osKernelStart + 34
        0x080052e8:    f06f0405    o...    MVN      r4,#5
        0x080052ec:    e00c        ..      B        0x8005308 ; osKernelStart + 60
        0x080052ee:    4807        .H      LDR      r0,[pc,#28] ; [0x800530c] = 0x2000006c
        0x080052f0:    6800        .h      LDR      r0,[r0,#0]
        0x080052f2:    2801        .(      CMP      r0,#1
        0x080052f4:    d106        ..      BNE      0x8005304 ; osKernelStart + 56
        0x080052f6:    2002        .       MOVS     r0,#2
        0x080052f8:    4904        .I      LDR      r1,[pc,#16] ; [0x800530c] = 0x2000006c
        0x080052fa:    6008        .`      STR      r0,[r1,#0]
        0x080052fc:    f001fc70    ..p.    BL       vTaskStartScheduler ; 0x8006be0
        0x08005300:    2400        .$      MOVS     r4,#0
        0x08005302:    e001        ..      B        0x8005308 ; osKernelStart + 60
        0x08005304:    f04f34ff    O..4    MOV      r4,#0xffffffff
        0x08005308:    4620         F      MOV      r0,r4
        0x0800530a:    bd10        ..      POP      {r4,pc}
    $d
        0x0800530c:    2000006c    l..     DCD    536871020
    $t
    i.osThreadNew
    osThreadNew
        0x08005310:    e92d47f0    -..G    PUSH     {r4-r10,lr}
        0x08005314:    b086        ..      SUB      sp,sp,#0x18
        0x08005316:    4680        .F      MOV      r8,r0
        0x08005318:    4689        .F      MOV      r9,r1
        0x0800531a:    4614        .F      MOV      r4,r2
        0x0800531c:    2000        .       MOVS     r0,#0
        0x0800531e:    9004        ..      STR      r0,[sp,#0x10]
        0x08005320:    f7fdfd63    ..c.    BL       __get_IPSR ; 0x8002dea
        0x08005324:    2800        .(      CMP      r0,#0
        0x08005326:    d15d        ].      BNE      0x80053e4 ; osThreadNew + 212
        0x08005328:    f7fdfd62    ..b.    BL       __get_PRIMASK ; 0x8002df0
        0x0800532c:    2800        .(      CMP      r0,#0
        0x0800532e:    d159        Y.      BNE      0x80053e4 ; osThreadNew + 212
        0x08005330:    482d        -H      LDR      r0,[pc,#180] ; [0x80053e8] = 0x2000006c
        0x08005332:    6800        .h      LDR      r0,[r0,#0]
        0x08005334:    2802        .(      CMP      r0,#2
        0x08005336:    d103        ..      BNE      0x8005340 ; osThreadNew + 48
        0x08005338:    f7fdfd54    ..T.    BL       __get_BASEPRI ; 0x8002de4
        0x0800533c:    2800        .(      CMP      r0,#0
        0x0800533e:    d151        Q.      BNE      0x80053e4 ; osThreadNew + 212
        0x08005340:    f1b80f00    ....    CMP      r8,#0
        0x08005344:    d04e        N.      BEQ      0x80053e4 ; osThreadNew + 212
        0x08005346:    2680        .&      MOVS     r6,#0x80
        0x08005348:    2518        .%      MOVS     r5,#0x18
        0x0800534a:    2000        .       MOVS     r0,#0
        0x0800534c:    9005        ..      STR      r0,[sp,#0x14]
        0x0800534e:    f10d0a14    ....    ADD      r10,sp,#0x14
        0x08005352:    1e47        G.      SUBS     r7,r0,#1
        0x08005354:    b344        D.      CBZ      r4,0x80053a8 ; osThreadNew + 152
        0x08005356:    6820         h      LDR      r0,[r4,#0]
        0x08005358:    b108        ..      CBZ      r0,0x800535e ; osThreadNew + 78
        0x0800535a:    f8d4a000    ....    LDR      r10,[r4,#0]
        0x0800535e:    69a0        .i      LDR      r0,[r4,#0x18]
        0x08005360:    b100        ..      CBZ      r0,0x8005364 ; osThreadNew + 84
        0x08005362:    69a5        .i      LDR      r5,[r4,#0x18]
        0x08005364:    b12d        -.      CBZ      r5,0x8005372 ; osThreadNew + 98
        0x08005366:    2d38        8-      CMP      r5,#0x38
        0x08005368:    d803        ..      BHI      0x8005372 ; osThreadNew + 98
        0x0800536a:    7920         y      LDRB     r0,[r4,#4]
        0x0800536c:    f0000001    ....    AND      r0,r0,#1
        0x08005370:    b118        ..      CBZ      r0,0x800537a ; osThreadNew + 106
        0x08005372:    2000        .       MOVS     r0,#0
        0x08005374:    b006        ..      ADD      sp,sp,#0x18
        0x08005376:    e8bd87f0    ....    POP      {r4-r10,pc}
        0x0800537a:    6960        `i      LDR      r0,[r4,#0x14]
        0x0800537c:    b108        ..      CBZ      r0,0x8005382 ; osThreadNew + 114
        0x0800537e:    6960        `i      LDR      r0,[r4,#0x14]
        0x08005380:    0886        ..      LSRS     r6,r0,#2
        0x08005382:    68a0        .h      LDR      r0,[r4,#8]
        0x08005384:    b140        @.      CBZ      r0,0x8005398 ; osThreadNew + 136
        0x08005386:    68e0        .h      LDR      r0,[r4,#0xc]
        0x08005388:    285c        \(      CMP      r0,#0x5c
        0x0800538a:    d305        ..      BCC      0x8005398 ; osThreadNew + 136
        0x0800538c:    6920         i      LDR      r0,[r4,#0x10]
        0x0800538e:    b118        ..      CBZ      r0,0x8005398 ; osThreadNew + 136
        0x08005390:    6960        `i      LDR      r0,[r4,#0x14]
        0x08005392:    b108        ..      CBZ      r0,0x8005398 ; osThreadNew + 136
        0x08005394:    2701        .'      MOVS     r7,#1
        0x08005396:    e008        ..      B        0x80053aa ; osThreadNew + 154
        0x08005398:    68a0        .h      LDR      r0,[r4,#8]
        0x0800539a:    b930        0.      CBNZ     r0,0x80053aa ; osThreadNew + 154
        0x0800539c:    68e0        .h      LDR      r0,[r4,#0xc]
        0x0800539e:    b920         .      CBNZ     r0,0x80053aa ; osThreadNew + 154
        0x080053a0:    6920         i      LDR      r0,[r4,#0x10]
        0x080053a2:    b910        ..      CBNZ     r0,0x80053aa ; osThreadNew + 154
        0x080053a4:    2700        .'      MOVS     r7,#0
        0x080053a6:    e000        ..      B        0x80053aa ; osThreadNew + 154
        0x080053a8:    2700        .'      MOVS     r7,#0
        0x080053aa:    2f01        ./      CMP      r7,#1
        0x080053ac:    d10c        ..      BNE      0x80053c8 ; osThreadNew + 184
        0x080053ae:    6921        !i      LDR      r1,[r4,#0x10]
        0x080053b0:    68a0        .h      LDR      r0,[r4,#8]
        0x080053b2:    464b        KF      MOV      r3,r9
        0x080053b4:    4632        2F      MOV      r2,r6
        0x080053b6:    e9cd5100    ...Q    STRD     r5,r1,[sp,#0]
        0x080053ba:    9002        ..      STR      r0,[sp,#8]
        0x080053bc:    4651        QF      MOV      r1,r10
        0x080053be:    4640        @F      MOV      r0,r8
        0x080053c0:    f002fa9e    ....    BL       xTaskCreateStatic ; 0x8007900
        0x080053c4:    9004        ..      STR      r0,[sp,#0x10]
        0x080053c6:    e00d        ..      B        0x80053e4 ; osThreadNew + 212
        0x080053c8:    b967        g.      CBNZ     r7,0x80053e4 ; osThreadNew + 212
        0x080053ca:    a804        ..      ADD      r0,sp,#0x10
        0x080053cc:    b2b2        ..      UXTH     r2,r6
        0x080053ce:    464b        KF      MOV      r3,r9
        0x080053d0:    4651        QF      MOV      r1,r10
        0x080053d2:    e9cd5000    ...P    STRD     r5,r0,[sp,#0]
        0x080053d6:    4640        @F      MOV      r0,r8
        0x080053d8:    f002fa60    ..`.    BL       xTaskCreate ; 0x800789c
        0x080053dc:    2801        .(      CMP      r0,#1
        0x080053de:    d001        ..      BEQ      0x80053e4 ; osThreadNew + 212
        0x080053e0:    2000        .       MOVS     r0,#0
        0x080053e2:    9004        ..      STR      r0,[sp,#0x10]
        0x080053e4:    9804        ..      LDR      r0,[sp,#0x10]
        0x080053e6:    e7c5        ..      B        0x8005374 ; osThreadNew + 100
    $d
        0x080053e8:    2000006c    l..     DCD    536871020
    $t
    i.platform_memory_alloc
    platform_memory_alloc
        0x080053ec:    b570        p.      PUSH     {r4-r6,lr}
        0x080053ee:    4604        .F      MOV      r4,r0
        0x080053f0:    4620         F      MOV      r0,r4
        0x080053f2:    f000ff01    ....    BL       pvPortMalloc ; 0x80061f8
        0x080053f6:    4605        .F      MOV      r5,r0
        0x080053f8:    b11d        ..      CBZ      r5,0x8005402 ; platform_memory_alloc + 22
        0x080053fa:    4621        !F      MOV      r1,r4
        0x080053fc:    4628        (F      MOV      r0,r5
        0x080053fe:    f7faff3c    ..<.    BL       __aeabi_memclr ; 0x800027a
        0x08005402:    4628        (F      MOV      r0,r5
        0x08005404:    bd70        p.      POP      {r4-r6,pc}
    i.platform_memory_free
    platform_memory_free
        0x08005406:    b510        ..      PUSH     {r4,lr}
        0x08005408:    4604        .F      MOV      r4,r0
        0x0800540a:    4620         F      MOV      r0,r4
        0x0800540c:    f001f982    ....    BL       vPortFree ; 0x8006714
        0x08005410:    bd10        ..      POP      {r4,pc}
    i.platform_mutex_init
    platform_mutex_init
        0x08005412:    b510        ..      PUSH     {r4,lr}
        0x08005414:    4604        .F      MOV      r4,r0
        0x08005416:    2203        ."      MOVS     r2,#3
        0x08005418:    2100        .!      MOVS     r1,#0
        0x0800541a:    2001        .       MOVS     r0,#1
        0x0800541c:    f001fdbe    ....    BL       xQueueGenericCreate ; 0x8006f9c
        0x08005420:    6020         `      STR      r0,[r4,#0]
        0x08005422:    2300        .#      MOVS     r3,#0
        0x08005424:    461a        .F      MOV      r2,r3
        0x08005426:    4619        .F      MOV      r1,r3
        0x08005428:    6820         h      LDR      r0,[r4,#0]
        0x0800542a:    f001fea1    ....    BL       xQueueGenericSend ; 0x8007170
        0x0800542e:    2000        .       MOVS     r0,#0
        0x08005430:    bd10        ..      POP      {r4,pc}
    i.platform_mutex_lock
    platform_mutex_lock
        0x08005432:    b510        ..      PUSH     {r4,lr}
        0x08005434:    4604        .F      MOV      r4,r0
        0x08005436:    f04f31ff    O..1    MOV      r1,#0xffffffff
        0x0800543a:    6820         h      LDR      r0,[r4,#0]
        0x0800543c:    f002f90c    ....    BL       xQueueSemaphoreTake ; 0x8007658
        0x08005440:    bd10        ..      POP      {r4,pc}
    i.platform_mutex_lock_timeout
    platform_mutex_lock_timeout
        0x08005442:    b570        p.      PUSH     {r4-r6,lr}
        0x08005444:    4604        .F      MOV      r4,r0
        0x08005446:    460d        .F      MOV      r5,r1
        0x08005448:    4629        )F      MOV      r1,r5
        0x0800544a:    6820         h      LDR      r0,[r4,#0]
        0x0800544c:    f002f904    ....    BL       xQueueSemaphoreTake ; 0x8007658
        0x08005450:    bd70        p.      POP      {r4-r6,pc}
    i.platform_mutex_unlock
    platform_mutex_unlock
        0x08005452:    b510        ..      PUSH     {r4,lr}
        0x08005454:    4604        .F      MOV      r4,r0
        0x08005456:    2300        .#      MOVS     r3,#0
        0x08005458:    461a        .F      MOV      r2,r3
        0x0800545a:    4619        .F      MOV      r1,r3
        0x0800545c:    6820         h      LDR      r0,[r4,#0]
        0x0800545e:    f001fe87    ....    BL       xQueueGenericSend ; 0x8007170
        0x08005462:    bd10        ..      POP      {r4,pc}
    i.platform_mutex_unlock_from_isr
    platform_mutex_unlock_from_isr
        0x08005464:    b510        ..      PUSH     {r4,lr}
        0x08005466:    4604        .F      MOV      r4,r0
        0x08005468:    4908        .I      LDR      r1,[pc,#32] ; [0x800548c] = 0x2000009c
        0x0800546a:    6820         h      LDR      r0,[r4,#0]
        0x0800546c:    f001ffd0    ....    BL       xQueueGiveFromISR ; 0x8007410
        0x08005470:    4806        .H      LDR      r0,[pc,#24] ; [0x800548c] = 0x2000009c
        0x08005472:    6800        .h      LDR      r0,[r0,#0]
        0x08005474:    b138        8.      CBZ      r0,0x8005486 ; platform_mutex_unlock_from_isr + 34
        0x08005476:    f04f5080    O..P    MOV      r0,#0x10000000
        0x0800547a:    4905        .I      LDR      r1,[pc,#20] ; [0x8005490] = 0xe000ed04
        0x0800547c:    6008        .`      STR      r0,[r1,#0]
        0x0800547e:    f3bf8f4f    ..O.    DSB      
        0x08005482:    f3bf8f6f    ..o.    ISB      
        0x08005486:    2001        .       MOVS     r0,#1
        0x08005488:    bd10        ..      POP      {r4,pc}
    $d
        0x0800548a:    0000        ..      DCW    0
        0x0800548c:    2000009c    ...     DCD    536871068
        0x08005490:    e000ed04    ....    DCD    3758157060
    $t
    i.platform_net_socket_close
    platform_net_socket_close
        0x08005494:    b510        ..      PUSH     {r4,lr}
        0x08005496:    4604        .F      MOV      r4,r0
        0x08005498:    f44f63fa    O..c    MOV      r3,#0x7d0
        0x0800549c:    2200        ."      MOVS     r2,#0
        0x0800549e:    4611        .F      MOV      r1,r2
        0x080054a0:    a001        ..      ADR      r0,{pc}+8 ; 0x80054a8
        0x080054a2:    f7fafffd    ....    BL       ATSendCmd ; 0x80004a0
        0x080054a6:    bd10        ..      POP      {r4,pc}
    $d
        0x080054a8:    432b5441    AT+C    DCD    1126913089
        0x080054ac:    4c435049    IPCL    DCD    1279479881
        0x080054b0:    0045534f    OSE.    DCD    4543311
    $t
    i.platform_net_socket_connect
    platform_net_socket_connect
        0x080054b4:    b5f0        ..      PUSH     {r4-r7,lr}
        0x080054b6:    b099        ..      SUB      sp,sp,#0x64
        0x080054b8:    4605        .F      MOV      r5,r0
        0x080054ba:    460e        .F      MOV      r6,r1
        0x080054bc:    4617        .F      MOV      r7,r2
        0x080054be:    e042        B.      B        0x8005546 ; platform_net_socket_connect + 146
        0x080054c0:    f44f63fa    O..c    MOV      r3,#0x7d0
        0x080054c4:    2200        ."      MOVS     r2,#0
        0x080054c6:    4611        .F      MOV      r1,r2
        0x080054c8:    a021        !.      ADR      r0,{pc}+0x88 ; 0x8005550
        0x080054ca:    f7faffe9    ....    BL       ATSendCmd ; 0x80004a0
        0x080054ce:    4604        .F      MOV      r4,r0
        0x080054d0:    b11c        ..      CBZ      r4,0x80054da ; platform_net_socket_connect + 38
        0x080054d2:    4621        !F      MOV      r1,r4
        0x080054d4:    a021        !.      ADR      r0,{pc}+0x88 ; 0x800555c
        0x080054d6:    f7fdfc45    ..E.    BL       __0printf$8 ; 0x8002d64
        0x080054da:    f2427310    B..s    MOV      r3,#0x2710
        0x080054de:    2200        ."      MOVS     r2,#0
        0x080054e0:    4611        .F      MOV      r1,r2
        0x080054e2:    a024        $.      ADR      r0,{pc}+0x92 ; 0x8005574
        0x080054e4:    f7faffdc    ....    BL       ATSendCmd ; 0x80004a0
        0x080054e8:    4604        .F      MOV      r4,r0
        0x080054ea:    b124        $.      CBZ      r4,0x80054f6 ; platform_net_socket_connect + 66
        0x080054ec:    4621        !F      MOV      r1,r4
        0x080054ee:    a029        ).      ADR      r0,{pc}+0xa6 ; 0x8005594
        0x080054f0:    f7fdfc38    ..8.    BL       __0printf$8 ; 0x8002d64
        0x080054f4:    e027        '.      B        0x8005546 ; platform_net_socket_connect + 146
        0x080054f6:    f44f63fa    O..c    MOV      r3,#0x7d0
        0x080054fa:    2200        ."      MOVS     r2,#0
        0x080054fc:    4611        .F      MOV      r1,r2
        0x080054fe:    a02b        +.      ADR      r0,{pc}+0xae ; 0x80055ac
        0x08005500:    f7faffce    ....    BL       ATSendCmd ; 0x80004a0
        0x08005504:    4604        .F      MOV      r4,r0
        0x08005506:    b937        7.      CBNZ     r7,0x8005516 ; platform_net_socket_connect + 98
        0x08005508:    4633        3F      MOV      r3,r6
        0x0800550a:    462a        *F      MOV      r2,r5
        0x0800550c:    a12a        *.      ADR      r1,{pc}+0xac ; 0x80055b8
        0x0800550e:    4668        hF      MOV      r0,sp
        0x08005510:    f7fdfc38    ..8.    BL       __0sprintf$8 ; 0x8002d84
        0x08005514:    e005        ..      B        0x8005522 ; platform_net_socket_connect + 110
        0x08005516:    4633        3F      MOV      r3,r6
        0x08005518:    462a        *F      MOV      r2,r5
        0x0800551a:    a12e        ..      ADR      r1,{pc}+0xba ; 0x80055d4
        0x0800551c:    4668        hF      MOV      r0,sp
        0x0800551e:    f7fdfc31    ..1.    BL       __0sprintf$8 ; 0x8002d84
        0x08005522:    f6446320    D. c    MOV      r3,#0x4e20
        0x08005526:    2200        ."      MOVS     r2,#0
        0x08005528:    4611        .F      MOV      r1,r2
        0x0800552a:    4668        hF      MOV      r0,sp
        0x0800552c:    f7faffb8    ....    BL       ATSendCmd ; 0x80004a0
        0x08005530:    4604        .F      MOV      r4,r0
        0x08005532:    b12c        ,.      CBZ      r4,0x8005540 ; platform_net_socket_connect + 140
        0x08005534:    4622        "F      MOV      r2,r4
        0x08005536:    4669        iF      MOV      r1,sp
        0x08005538:    a02d        -.      ADR      r0,{pc}+0xb8 ; 0x80055f0
        0x0800553a:    f7fdfc13    ....    BL       __0printf$8 ; 0x8002d64
        0x0800553e:    e002        ..      B        0x8005546 ; platform_net_socket_connect + 146
        0x08005540:    b904        ..      CBNZ     r4,0x8005544 ; platform_net_socket_connect + 144
        0x08005542:    e001        ..      B        0x8005548 ; platform_net_socket_connect + 148
        0x08005544:    bf00        ..      NOP      
        0x08005546:    e7bb        ..      B        0x80054c0 ; platform_net_socket_connect + 12
        0x08005548:    bf00        ..      NOP      
        0x0800554a:    2000        .       MOVS     r0,#0
        0x0800554c:    b019        ..      ADD      sp,sp,#0x64
        0x0800554e:    bdf0        ..      POP      {r4-r7,pc}
    $d
        0x08005550:    432b5441    AT+C    DCD    1126913089
        0x08005554:    444f4d57    WMOD    DCD    1146047831
        0x08005558:    00313d45    E=1.    DCD    3226949
        0x0800555c:    432b5441    AT+C    DCD    1126913089
        0x08005560:    444f4d57    WMOD    DCD    1146047831
        0x08005564:    20313d45    E=1     DCD    540097861
        0x08005568:    20727265    err     DCD    544371301
        0x0800556c:    6425203d    = %d    DCD    1680154685
        0x08005570:    00000a0d    ....    DCD    2573
        0x08005574:    432b5441    AT+C    DCD    1126913089
        0x08005578:    50414a57    WJAP    DCD    1346456151
        0x0800557c:    3257223d    ="W2    DCD    844571197
        0x08005580:    31333130    0131    DCD    825438512
        0x08005584:    2c224834    4H",    DCD    740444212
        0x08005588:    67656822    "heg    DCD    1734699042
        0x0800558c:    61626f75    uoba    DCD    1633841013
        0x08005590:    0000226f    o"..    DCD    8815
        0x08005594:    6e6e6f63    conn    DCD    1852731235
        0x08005598:    20746365    ect     DCD    544498533
        0x0800559c:    65205041    AP e    DCD    1696616513
        0x080055a0:    3d207272    rr =    DCD    1025536626
        0x080055a4:    0d642520     %d.    DCD    224666912
        0x080055a8:    0000000a    ....    DCD    10
        0x080055ac:    432b5441    AT+C    DCD    1126913089
        0x080055b0:    4c435049    IPCL    DCD    1279479881
        0x080055b4:    0045534f    OSE.    DCD    4543311
        0x080055b8:    432b5441    AT+C    DCD    1126913089
        0x080055bc:    54535049    IPST    DCD    1414746185
        0x080055c0:    3d545241    ART=    DCD    1028936257
        0x080055c4:    50435422    "TCP    DCD    1346589730
        0x080055c8:    25222c22    ","%    DCD    622996514
        0x080055cc:    252c2273    s",%    DCD    623649395
        0x080055d0:    00000073    s...    DCD    115
        0x080055d4:    432b5441    AT+C    DCD    1126913089
        0x080055d8:    54535049    IPST    DCD    1414746185
        0x080055dc:    3d545241    ART=    DCD    1028936257
        0x080055e0:    50445522    "UDP    DCD    1346655522
        0x080055e4:    25222c22    ","%    DCD    622996514
        0x080055e8:    252c2273    s",%    DCD    623649395
        0x080055ec:    00000073    s...    DCD    115
        0x080055f0:    65207325    %s e    DCD    1696625445
        0x080055f4:    3d207272    rr =    DCD    1025536626
        0x080055f8:    0d642520     %d.    DCD    224666912
        0x080055fc:    0000000a    ....    DCD    10
    $t
    i.platform_net_socket_recv_timeout
    platform_net_socket_recv_timeout
        0x08005600:    e92d47f0    -..G    PUSH     {r4-r10,lr}
        0x08005604:    4681        .F      MOV      r9,r0
        0x08005606:    460f        .F      MOV      r7,r1
        0x08005608:    4614        .F      MOV      r4,r2
        0x0800560a:    4698        .F      MOV      r8,r3
        0x0800560c:    2500        .%      MOVS     r5,#0
        0x0800560e:    e009        ..      B        0x8005624 ; platform_net_socket_recv_timeout + 36
        0x08005610:    1978        x.      ADDS     r0,r7,r5
        0x08005612:    4641        AF      MOV      r1,r8
        0x08005614:    f7fafed0    ....    BL       ATReadData ; 0x80003b8
        0x08005618:    4606        .F      MOV      r6,r0
        0x0800561a:    b116        ..      CBZ      r6,0x8005622 ; platform_net_socket_recv_timeout + 34
        0x0800561c:    2000        .       MOVS     r0,#0
        0x0800561e:    e8bd87f0    ....    POP      {r4-r10,pc}
        0x08005622:    1c6d        m.      ADDS     r5,r5,#1
        0x08005624:    42a5        .B      CMP      r5,r4
        0x08005626:    dbf3        ..      BLT      0x8005610 ; platform_net_socket_recv_timeout + 16
        0x08005628:    4620         F      MOV      r0,r4
        0x0800562a:    e7f8        ..      B        0x800561e ; platform_net_socket_recv_timeout + 30
    i.platform_net_socket_write_timeout
    platform_net_socket_write_timeout
        0x0800562c:    e92d41f0    -..A    PUSH     {r4-r8,lr}
        0x08005630:    b09e        ..      SUB      sp,sp,#0x78
        0x08005632:    4680        .F      MOV      r8,r0
        0x08005634:    460e        .F      MOV      r6,r1
        0x08005636:    4615        .F      MOV      r5,r2
        0x08005638:    461f        .F      MOV      r7,r3
        0x0800563a:    462a        *F      MOV      r2,r5
        0x0800563c:    a115        ..      ADR      r1,{pc}+0x58 ; 0x8005694
        0x0800563e:    a819        ..      ADD      r0,sp,#0x64
        0x08005640:    f7fdfba0    ....    BL       __0sprintf$8 ; 0x8002d84
        0x08005644:    463b        ;F      MOV      r3,r7
        0x08005646:    2264        d"      MOVS     r2,#0x64
        0x08005648:    4669        iF      MOV      r1,sp
        0x0800564a:    a819        ..      ADD      r0,sp,#0x64
        0x0800564c:    f7faff28    ..(.    BL       ATSendCmd ; 0x80004a0
        0x08005650:    4604        .F      MOV      r4,r0
        0x08005652:    b184        ..      CBZ      r4,0x8005676 ; platform_net_socket_write_timeout + 74
        0x08005654:    2000        .       MOVS     r0,#0
        0x08005656:    f88d0063    ..c.    STRB     r0,[sp,#0x63]
        0x0800565a:    463b        ;F      MOV      r3,r7
        0x0800565c:    4622        "F      MOV      r2,r4
        0x0800565e:    a919        ..      ADD      r1,sp,#0x64
        0x08005660:    a010        ..      ADR      r0,{pc}+0x44 ; 0x80056a4
        0x08005662:    f7fdfb7f    ....    BL       __0printf$8 ; 0x8002d64
        0x08005666:    4669        iF      MOV      r1,sp
        0x08005668:    a015        ..      ADR      r0,{pc}+0x58 ; 0x80056c0
        0x0800566a:    f7fdfb7b    ..{.    BL       __0printf$8 ; 0x8002d64
        0x0800566e:    4620         F      MOV      r0,r4
        0x08005670:    b01e        ..      ADD      sp,sp,#0x78
        0x08005672:    e8bd81f0    ....    POP      {r4-r8,pc}
        0x08005676:    463a        :F      MOV      r2,r7
        0x08005678:    4629        )F      MOV      r1,r5
        0x0800567a:    4630        0F      MOV      r0,r6
        0x0800567c:    f7faff46    ..F.    BL       ATSendData ; 0x800050c
        0x08005680:    4604        .F      MOV      r4,r0
        0x08005682:    b12c        ,.      CBZ      r4,0x8005690 ; platform_net_socket_write_timeout + 100
        0x08005684:    4621        !F      MOV      r1,r4
        0x08005686:    a011        ..      ADR      r0,{pc}+0x46 ; 0x80056cc
        0x08005688:    f7fdfb6c    ..l.    BL       __0printf$8 ; 0x8002d64
        0x0800568c:    4620         F      MOV      r0,r4
        0x0800568e:    e7ef        ..      B        0x8005670 ; platform_net_socket_write_timeout + 68
        0x08005690:    4628        (F      MOV      r0,r5
        0x08005692:    e7ed        ..      B        0x8005670 ; platform_net_socket_write_timeout + 68
    $d
        0x08005694:    432b5441    AT+C    DCD    1126913089
        0x08005698:    45535049    IPSE    DCD    1163087945
        0x0800569c:    253d444e    ND=%    DCD    624772174
        0x080056a0:    00000064    d...    DCD    100
        0x080056a4:    65207325    %s e    DCD    1696625445
        0x080056a8:    3d207272    rr =    DCD    1025536626
        0x080056ac:    2c642520     %d,    DCD    744760608
        0x080056b0:    6d697420     tim    DCD    1835627552
        0x080056b4:    74756f65    eout    DCD    1953853285
        0x080056b8:    25203d20     = %    DCD    622869792
        0x080056bc:    000a0d64    d...    DCD    658788
        0x080056c0:    70736572    resp    DCD    1886610802
        0x080056c4:    25203a20     : %    DCD    622869024
        0x080056c8:    000a0d73    s...    DCD    658803
        0x080056cc:    65535441    ATSe    DCD    1699959873
        0x080056d0:    6144646e    ndDa    DCD    1631872110
        0x080056d4:    65206174    ta e    DCD    1696620916
        0x080056d8:    3d207272    rr =    DCD    1025536626
        0x080056dc:    0d642520     %d.    DCD    224666912
        0x080056e0:    0000000a    ....    DCD    10
    $t
    i.platform_thread_destroy
    platform_thread_destroy
        0x080056e4:    b510        ..      PUSH     {r4,lr}
        0x080056e6:    4604        .F      MOV      r4,r0
        0x080056e8:    b114        ..      CBZ      r4,0x80056f0 ; platform_thread_destroy + 12
        0x080056ea:    6820         h      LDR      r0,[r4,#0]
        0x080056ec:    f001f916    ....    BL       vTaskDelete ; 0x800691c
        0x080056f0:    4620         F      MOV      r0,r4
        0x080056f2:    f7fffe88    ....    BL       platform_memory_free ; 0x8005406
        0x080056f6:    bd10        ..      POP      {r4,pc}
    i.platform_thread_init
    platform_thread_init
        0x080056f8:    e92d5ffc    -.._    PUSH     {r2-r12,lr}
        0x080056fc:    4604        .F      MOV      r4,r0
        0x080056fe:    460d        .F      MOV      r5,r1
        0x08005700:    4616        .F      MOV      r6,r2
        0x08005702:    461f        .F      MOV      r7,r3
        0x08005704:    e9dd9b0c    ....    LDRD     r9,r11,[sp,#0x30]
        0x08005708:    2004        .       MOVS     r0,#4
        0x0800570a:    f7fffe6f    ..o.    BL       platform_memory_alloc ; 0x80053ec
        0x0800570e:    4680        .F      MOV      r8,r0
        0x08005710:    b2ba        ..      UXTH     r2,r7
        0x08005712:    4633        3F      MOV      r3,r6
        0x08005714:    4621        !F      MOV      r1,r4
        0x08005716:    4628        (F      MOV      r0,r5
        0x08005718:    e9cd9800    ....    STRD     r9,r8,[sp,#0]
        0x0800571c:    f002f8be    ....    BL       xTaskCreate ; 0x800789c
        0x08005720:    4682        .F      MOV      r10,r0
        0x08005722:    f1ba0f01    ....    CMP      r10,#1
        0x08005726:    d005        ..      BEQ      0x8005734 ; platform_thread_init + 60
        0x08005728:    4640        @F      MOV      r0,r8
        0x0800572a:    f7fffe6c    ..l.    BL       platform_memory_free ; 0x8005406
        0x0800572e:    2000        .       MOVS     r0,#0
        0x08005730:    e8bd9ffc    ....    POP      {r2-r12,pc}
        0x08005734:    4640        @F      MOV      r0,r8
        0x08005736:    e7fb        ..      B        0x8005730 ; platform_thread_init + 56
    i.platform_thread_start
    platform_thread_start
        0x08005738:    b510        ..      PUSH     {r4,lr}
        0x0800573a:    4604        .F      MOV      r4,r0
        0x0800573c:    6820         h      LDR      r0,[r4,#0]
        0x0800573e:    f001fa07    ....    BL       vTaskResume ; 0x8006b50
        0x08005742:    bd10        ..      POP      {r4,pc}
    i.platform_thread_startup
    platform_thread_startup
        0x08005744:    4770        pG      BX       lr
    i.platform_thread_stop
    platform_thread_stop
        0x08005746:    b510        ..      PUSH     {r4,lr}
        0x08005748:    4604        .F      MOV      r4,r0
        0x0800574a:    6820         h      LDR      r0,[r4,#0]
        0x0800574c:    f001faa4    ....    BL       vTaskSuspend ; 0x8006c98
        0x08005750:    bd10        ..      POP      {r4,pc}
    i.platform_timer_cutdown
    platform_timer_cutdown
        0x08005752:    b570        p.      PUSH     {r4-r6,lr}
        0x08005754:    4604        .F      MOV      r4,r0
        0x08005756:    460d        .F      MOV      r5,r1
        0x08005758:    f000f82e    ....    BL       platform_uptime_ms ; 0x80057b8
        0x0800575c:    6020         `      STR      r0,[r4,#0]
        0x0800575e:    6820         h      LDR      r0,[r4,#0]
        0x08005760:    4428        (D      ADD      r0,r0,r5
        0x08005762:    6020         `      STR      r0,[r4,#0]
        0x08005764:    bd70        p.      POP      {r4-r6,pc}
    i.platform_timer_init
    platform_timer_init
        0x08005766:    2100        .!      MOVS     r1,#0
        0x08005768:    6001        .`      STR      r1,[r0,#0]
        0x0800576a:    4770        pG      BX       lr
    i.platform_timer_is_expired
    platform_timer_is_expired
        0x0800576c:    b510        ..      PUSH     {r4,lr}
        0x0800576e:    4604        .F      MOV      r4,r0
        0x08005770:    f000f822    ..".    BL       platform_uptime_ms ; 0x80057b8
        0x08005774:    6821        !h      LDR      r1,[r4,#0]
        0x08005776:    4288        .B      CMP      r0,r1
        0x08005778:    d901        ..      BLS      0x800577e ; platform_timer_is_expired + 18
        0x0800577a:    2001        .       MOVS     r0,#1
        0x0800577c:    bd10        ..      POP      {r4,pc}
        0x0800577e:    2000        .       MOVS     r0,#0
        0x08005780:    e7fc        ..      B        0x800577c ; platform_timer_is_expired + 16
    i.platform_timer_now
    platform_timer_now
        0x08005782:    b510        ..      PUSH     {r4,lr}
        0x08005784:    f000f818    ....    BL       platform_uptime_ms ; 0x80057b8
        0x08005788:    bd10        ..      POP      {r4,pc}
    i.platform_timer_remain
    platform_timer_remain
        0x0800578a:    b570        p.      PUSH     {r4-r6,lr}
        0x0800578c:    4604        .F      MOV      r4,r0
        0x0800578e:    f000f813    ....    BL       platform_uptime_ms ; 0x80057b8
        0x08005792:    4605        .F      MOV      r5,r0
        0x08005794:    6820         h      LDR      r0,[r4,#0]
        0x08005796:    42a8        .B      CMP      r0,r5
        0x08005798:    d801        ..      BHI      0x800579e ; platform_timer_remain + 20
        0x0800579a:    2000        .       MOVS     r0,#0
        0x0800579c:    bd70        p.      POP      {r4-r6,pc}
        0x0800579e:    6820         h      LDR      r0,[r4,#0]
        0x080057a0:    1b40        @.      SUBS     r0,r0,r5
        0x080057a2:    e7fb        ..      B        0x800579c ; platform_timer_remain + 18
    i.platform_timer_usleep
    platform_timer_usleep
        0x080057a4:    b570        p.      PUSH     {r4-r6,lr}
        0x080057a6:    4604        .F      MOV      r4,r0
        0x080057a8:    b114        ..      CBZ      r4,0x80057b0 ; platform_timer_usleep + 12
        0x080057aa:    4625        %F      MOV      r5,r4
        0x080057ac:    b905        ..      CBNZ     r5,0x80057b0 ; platform_timer_usleep + 12
        0x080057ae:    2501        .%      MOVS     r5,#1
        0x080057b0:    4628        (F      MOV      r0,r5
        0x080057b2:    f001f885    ....    BL       vTaskDelay ; 0x80068c0
        0x080057b6:    bd70        p.      POP      {r4-r6,pc}
    i.platform_uptime_ms
    platform_uptime_ms
        0x080057b8:    b510        ..      PUSH     {r4,lr}
        0x080057ba:    f002f90d    ....    BL       xTaskGetTickCount ; 0x80079d8
        0x080057be:    bd10        ..      POP      {r4,pc}
    i.prvAddCurrentTaskToDelayedList
    prvAddCurrentTaskToDelayedList
        0x080057c0:    e92d41f0    -..A    PUSH     {r4-r8,lr}
        0x080057c4:    4605        .F      MOV      r5,r0
        0x080057c6:    460e        .F      MOV      r6,r1
        0x080057c8:    4816        .H      LDR      r0,[pc,#88] ; [0x8005824] = 0x20000030
        0x080057ca:    6807        .h      LDR      r7,[r0,#0]
        0x080057cc:    4816        .H      LDR      r0,[pc,#88] ; [0x8005828] = 0x2000001c
        0x080057ce:    6800        .h      LDR      r0,[r0,#0]
        0x080057d0:    1d00        ..      ADDS     r0,r0,#4
        0x080057d2:    f000fef5    ....    BL       uxListRemove ; 0x80065c0
        0x080057d6:    1c68        h.      ADDS     r0,r5,#1
        0x080057d8:    b938        8.      CBNZ     r0,0x80057ea ; prvAddCurrentTaskToDelayedList + 42
        0x080057da:    b136        6.      CBZ      r6,0x80057ea ; prvAddCurrentTaskToDelayedList + 42
        0x080057dc:    4812        .H      LDR      r0,[pc,#72] ; [0x8005828] = 0x2000001c
        0x080057de:    6801        .h      LDR      r1,[r0,#0]
        0x080057e0:    1d09        ..      ADDS     r1,r1,#4
        0x080057e2:    4812        .H      LDR      r0,[pc,#72] ; [0x800582c] = 0x20000a80
        0x080057e4:    f000ff42    ..B.    BL       vListInsertEnd ; 0x800666c
        0x080057e8:    e01a        ..      B        0x8005820 ; prvAddCurrentTaskToDelayedList + 96
        0x080057ea:    197c        |.      ADDS     r4,r7,r5
        0x080057ec:    480e        .H      LDR      r0,[pc,#56] ; [0x8005828] = 0x2000001c
        0x080057ee:    6800        .h      LDR      r0,[r0,#0]
        0x080057f0:    6044        D`      STR      r4,[r0,#4]
        0x080057f2:    42bc        .B      CMP      r4,r7
        0x080057f4:    d207        ..      BCS      0x8005806 ; prvAddCurrentTaskToDelayedList + 70
        0x080057f6:    480c        .H      LDR      r0,[pc,#48] ; [0x8005828] = 0x2000001c
        0x080057f8:    6801        .h      LDR      r1,[r0,#0]
        0x080057fa:    1d09        ..      ADDS     r1,r1,#4
        0x080057fc:    480c        .H      LDR      r0,[pc,#48] ; [0x8005830] = 0x20000024
        0x080057fe:    6800        .h      LDR      r0,[r0,#0]
        0x08005800:    f000ff1a    ....    BL       vListInsert ; 0x8006638
        0x08005804:    e00c        ..      B        0x8005820 ; prvAddCurrentTaskToDelayedList + 96
        0x08005806:    4808        .H      LDR      r0,[pc,#32] ; [0x8005828] = 0x2000001c
        0x08005808:    6801        .h      LDR      r1,[r0,#0]
        0x0800580a:    1d09        ..      ADDS     r1,r1,#4
        0x0800580c:    4809        .H      LDR      r0,[pc,#36] ; [0x8005834] = 0x20000020
        0x0800580e:    6800        .h      LDR      r0,[r0,#0]
        0x08005810:    f000ff12    ....    BL       vListInsert ; 0x8006638
        0x08005814:    4808        .H      LDR      r0,[pc,#32] ; [0x8005838] = 0x2000004c
        0x08005816:    6800        .h      LDR      r0,[r0,#0]
        0x08005818:    4284        .B      CMP      r4,r0
        0x0800581a:    d201        ..      BCS      0x8005820 ; prvAddCurrentTaskToDelayedList + 96
        0x0800581c:    4806        .H      LDR      r0,[pc,#24] ; [0x8005838] = 0x2000004c
        0x0800581e:    6004        .`      STR      r4,[r0,#0]
        0x08005820:    e8bd81f0    ....    POP      {r4-r8,pc}
    $d
        0x08005824:    20000030    0..     DCD    536870960
        0x08005828:    2000001c    ...     DCD    536870940
        0x0800582c:    20000a80    ...     DCD    536873600
        0x08005830:    20000024    $..     DCD    536870948
        0x08005834:    20000020     ..     DCD    536870944
        0x08005838:    2000004c    L..     DCD    536870988
    $t
    i.prvAddNewTaskToReadyList
    prvAddNewTaskToReadyList
        0x0800583c:    b510        ..      PUSH     {r4,lr}
        0x0800583e:    4604        .F      MOV      r4,r0
        0x08005840:    f000ff20    .. .    BL       vPortEnterCritical ; 0x8006684
        0x08005844:    4824        $H      LDR      r0,[pc,#144] ; [0x80058d8] = 0x2000002c
        0x08005846:    6800        .h      LDR      r0,[r0,#0]
        0x08005848:    1c40        @.      ADDS     r0,r0,#1
        0x0800584a:    4923        #I      LDR      r1,[pc,#140] ; [0x80058d8] = 0x2000002c
        0x0800584c:    6008        .`      STR      r0,[r1,#0]
        0x0800584e:    4823        #H      LDR      r0,[pc,#140] ; [0x80058dc] = 0x2000001c
        0x08005850:    6800        .h      LDR      r0,[r0,#0]
        0x08005852:    b940        @.      CBNZ     r0,0x8005866 ; prvAddNewTaskToReadyList + 42
        0x08005854:    4821        !H      LDR      r0,[pc,#132] ; [0x80058dc] = 0x2000001c
        0x08005856:    6004        .`      STR      r4,[r0,#0]
        0x08005858:    4608        .F      MOV      r0,r1
        0x0800585a:    6800        .h      LDR      r0,[r0,#0]
        0x0800585c:    2801        .(      CMP      r0,#1
        0x0800585e:    d10d        ..      BNE      0x800587c ; prvAddNewTaskToReadyList + 64
        0x08005860:    f000fa02    ....    BL       prvInitialiseTaskLists ; 0x8005c68
        0x08005864:    e00a        ..      B        0x800587c ; prvAddNewTaskToReadyList + 64
        0x08005866:    481e        .H      LDR      r0,[pc,#120] ; [0x80058e0] = 0x20000038
        0x08005868:    6800        .h      LDR      r0,[r0,#0]
        0x0800586a:    b938        8.      CBNZ     r0,0x800587c ; prvAddNewTaskToReadyList + 64
        0x0800586c:    481b        .H      LDR      r0,[pc,#108] ; [0x80058dc] = 0x2000001c
        0x0800586e:    6800        .h      LDR      r0,[r0,#0]
        0x08005870:    6ac0        .j      LDR      r0,[r0,#0x2c]
        0x08005872:    6ae1        .j      LDR      r1,[r4,#0x2c]
        0x08005874:    4288        .B      CMP      r0,r1
        0x08005876:    d801        ..      BHI      0x800587c ; prvAddNewTaskToReadyList + 64
        0x08005878:    4818        .H      LDR      r0,[pc,#96] ; [0x80058dc] = 0x2000001c
        0x0800587a:    6004        .`      STR      r4,[r0,#0]
        0x0800587c:    4819        .H      LDR      r0,[pc,#100] ; [0x80058e4] = 0x20000048
        0x0800587e:    6800        .h      LDR      r0,[r0,#0]
        0x08005880:    1c40        @.      ADDS     r0,r0,#1
        0x08005882:    4918        .I      LDR      r1,[pc,#96] ; [0x80058e4] = 0x20000048
        0x08005884:    6008        .`      STR      r0,[r1,#0]
        0x08005886:    4608        .F      MOV      r0,r1
        0x08005888:    6800        .h      LDR      r0,[r0,#0]
        0x0800588a:    6460        `d      STR      r0,[r4,#0x44]
        0x0800588c:    4916        .I      LDR      r1,[pc,#88] ; [0x80058e8] = 0x20000034
        0x0800588e:    6ae0        .j      LDR      r0,[r4,#0x2c]
        0x08005890:    6809        .h      LDR      r1,[r1,#0]
        0x08005892:    4288        .B      CMP      r0,r1
        0x08005894:    d902        ..      BLS      0x800589c ; prvAddNewTaskToReadyList + 96
        0x08005896:    4914        .I      LDR      r1,[pc,#80] ; [0x80058e8] = 0x20000034
        0x08005898:    6ae0        .j      LDR      r0,[r4,#0x2c]
        0x0800589a:    6008        .`      STR      r0,[r1,#0]
        0x0800589c:    6ae1        .j      LDR      r1,[r4,#0x2c]
        0x0800589e:    eb010181    ....    ADD      r1,r1,r1,LSL #2
        0x080058a2:    4a12        .J      LDR      r2,[pc,#72] ; [0x80058ec] = 0x200005d0
        0x080058a4:    eb020081    ....    ADD      r0,r2,r1,LSL #2
        0x080058a8:    1d21        !.      ADDS     r1,r4,#4
        0x080058aa:    f000fedf    ....    BL       vListInsertEnd ; 0x800666c
        0x080058ae:    f000ff13    ....    BL       vPortExitCritical ; 0x80066d8
        0x080058b2:    480b        .H      LDR      r0,[pc,#44] ; [0x80058e0] = 0x20000038
        0x080058b4:    6800        .h      LDR      r0,[r0,#0]
        0x080058b6:    b168        h.      CBZ      r0,0x80058d4 ; prvAddNewTaskToReadyList + 152
        0x080058b8:    4808        .H      LDR      r0,[pc,#32] ; [0x80058dc] = 0x2000001c
        0x080058ba:    6800        .h      LDR      r0,[r0,#0]
        0x080058bc:    6ac0        .j      LDR      r0,[r0,#0x2c]
        0x080058be:    6ae1        .j      LDR      r1,[r4,#0x2c]
        0x080058c0:    4288        .B      CMP      r0,r1
        0x080058c2:    d207        ..      BCS      0x80058d4 ; prvAddNewTaskToReadyList + 152
        0x080058c4:    f04f5080    O..P    MOV      r0,#0x10000000
        0x080058c8:    4909        .I      LDR      r1,[pc,#36] ; [0x80058f0] = 0xe000ed04
        0x080058ca:    6008        .`      STR      r0,[r1,#0]
        0x080058cc:    f3bf8f4f    ..O.    DSB      
        0x080058d0:    f3bf8f6f    ..o.    ISB      
        0x080058d4:    bd10        ..      POP      {r4,pc}
    $d
        0x080058d6:    0000        ..      DCW    0
        0x080058d8:    2000002c    ,..     DCD    536870956
        0x080058dc:    2000001c    ...     DCD    536870940
        0x080058e0:    20000038    8..     DCD    536870968
        0x080058e4:    20000048    H..     DCD    536870984
        0x080058e8:    20000034    4..     DCD    536870964
        0x080058ec:    200005d0    ...     DCD    536872400
        0x080058f0:    e000ed04    ....    DCD    3758157060
    $t
    i.prvCheckForValidListAndQueue
    prvCheckForValidListAndQueue
        0x080058f4:    b508        ..      PUSH     {r3,lr}
        0x080058f6:    f000fec5    ....    BL       vPortEnterCritical ; 0x8006684
        0x080058fa:    4812        .H      LDR      r0,[pc,#72] ; [0x8005944] = 0x20000060
        0x080058fc:    6800        .h      LDR      r0,[r0,#0]
        0x080058fe:    b9e8        ..      CBNZ     r0,0x800593c ; prvCheckForValidListAndQueue + 72
        0x08005900:    4811        .H      LDR      r0,[pc,#68] ; [0x8005948] = 0x20000a94
        0x08005902:    f000fe89    ....    BL       vListInitialise ; 0x8006618
        0x08005906:    4811        .H      LDR      r0,[pc,#68] ; [0x800594c] = 0x20000aa8
        0x08005908:    f000fe86    ....    BL       vListInitialise ; 0x8006618
        0x0800590c:    480e        .H      LDR      r0,[pc,#56] ; [0x8005948] = 0x20000a94
        0x0800590e:    4910        .I      LDR      r1,[pc,#64] ; [0x8005950] = 0x20000058
        0x08005910:    6008        .`      STR      r0,[r1,#0]
        0x08005912:    480e        .H      LDR      r0,[pc,#56] ; [0x800594c] = 0x20000aa8
        0x08005914:    490f        .I      LDR      r1,[pc,#60] ; [0x8005954] = 0x2000005c
        0x08005916:    6008        .`      STR      r0,[r1,#0]
        0x08005918:    2000        .       MOVS     r0,#0
        0x0800591a:    4b0f        .K      LDR      r3,[pc,#60] ; [0x8005958] = 0x20000abc
        0x0800591c:    4a0f        .J      LDR      r2,[pc,#60] ; [0x800595c] = 0x20000b0c
        0x0800591e:    2110        .!      MOVS     r1,#0x10
        0x08005920:    9000        ..      STR      r0,[sp,#0]
        0x08005922:    200a        .       MOVS     r0,#0xa
        0x08005924:    f001fb69    ..i.    BL       xQueueGenericCreateStatic ; 0x8006ffa
        0x08005928:    4906        .I      LDR      r1,[pc,#24] ; [0x8005944] = 0x20000060
        0x0800592a:    6008        .`      STR      r0,[r1,#0]
        0x0800592c:    4608        .F      MOV      r0,r1
        0x0800592e:    6800        .h      LDR      r0,[r0,#0]
        0x08005930:    b120         .      CBZ      r0,0x800593c ; prvCheckForValidListAndQueue + 72
        0x08005932:    a10b        ..      ADR      r1,{pc}+0x2e ; 0x8005960
        0x08005934:    4803        .H      LDR      r0,[pc,#12] ; [0x8005944] = 0x20000060
        0x08005936:    6800        .h      LDR      r0,[r0,#0]
        0x08005938:    f000ff86    ....    BL       vQueueAddToRegistry ; 0x8006848
        0x0800593c:    f000fecc    ....    BL       vPortExitCritical ; 0x80066d8
        0x08005940:    bd08        ..      POP      {r3,pc}
    $d
        0x08005942:    0000        ..      DCW    0
        0x08005944:    20000060    `..     DCD    536871008
        0x08005948:    20000a94    ...     DCD    536873620
        0x0800594c:    20000aa8    ...     DCD    536873640
        0x08005950:    20000058    X..     DCD    536871000
        0x08005954:    2000005c    \..     DCD    536871004
        0x08005958:    20000abc    ...     DCD    536873660
        0x0800595c:    20000b0c    ...     DCD    536873740
        0x08005960:    51726d54    TmrQ    DCD    1366453588
        0x08005964:    00000000    ....    DCD    0
    $t
    i.prvCheckTasksWaitingTermination
    prvCheckTasksWaitingTermination
        0x08005968:    b510        ..      PUSH     {r4,lr}
        0x0800596a:    e016        ..      B        0x800599a ; prvCheckTasksWaitingTermination + 50
        0x0800596c:    f000fe8a    ....    BL       vPortEnterCritical ; 0x8006684
        0x08005970:    480c        .H      LDR      r0,[pc,#48] ; [0x80059a4] = 0x20000a6c
        0x08005972:    68c0        .h      LDR      r0,[r0,#0xc]
        0x08005974:    68c4        .h      LDR      r4,[r0,#0xc]
        0x08005976:    1d20         .      ADDS     r0,r4,#4
        0x08005978:    f000fe22    ..".    BL       uxListRemove ; 0x80065c0
        0x0800597c:    480a        .H      LDR      r0,[pc,#40] ; [0x80059a8] = 0x2000002c
        0x0800597e:    6800        .h      LDR      r0,[r0,#0]
        0x08005980:    1e40        @.      SUBS     r0,r0,#1
        0x08005982:    4909        .I      LDR      r1,[pc,#36] ; [0x80059a8] = 0x2000002c
        0x08005984:    6008        .`      STR      r0,[r1,#0]
        0x08005986:    4809        .H      LDR      r0,[pc,#36] ; [0x80059ac] = 0x20000028
        0x08005988:    6800        .h      LDR      r0,[r0,#0]
        0x0800598a:    1e40        @.      SUBS     r0,r0,#1
        0x0800598c:    4907        .I      LDR      r1,[pc,#28] ; [0x80059ac] = 0x20000028
        0x0800598e:    6008        .`      STR      r0,[r1,#0]
        0x08005990:    f000fea2    ....    BL       vPortExitCritical ; 0x80066d8
        0x08005994:    4620         F      MOV      r0,r4
        0x08005996:    f000f85e    ..^.    BL       prvDeleteTCB ; 0x8005a56
        0x0800599a:    4804        .H      LDR      r0,[pc,#16] ; [0x80059ac] = 0x20000028
        0x0800599c:    6800        .h      LDR      r0,[r0,#0]
        0x0800599e:    2800        .(      CMP      r0,#0
        0x080059a0:    d1e4        ..      BNE      0x800596c ; prvCheckTasksWaitingTermination + 4
        0x080059a2:    bd10        ..      POP      {r4,pc}
    $d
        0x080059a4:    20000a6c    l..     DCD    536873580
        0x080059a8:    2000002c    ,..     DCD    536870956
        0x080059ac:    20000028    (..     DCD    536870952
    $t
    i.prvCopyDataFromQueue
    prvCopyDataFromQueue
        0x080059b0:    b570        p.      PUSH     {r4-r6,lr}
        0x080059b2:    4604        .F      MOV      r4,r0
        0x080059b4:    460d        .F      MOV      r5,r1
        0x080059b6:    6c20         l      LDR      r0,[r4,#0x40]
        0x080059b8:    b170        p.      CBZ      r0,0x80059d8 ; prvCopyDataFromQueue + 40
        0x080059ba:    6c21        !l      LDR      r1,[r4,#0x40]
        0x080059bc:    68e0        .h      LDR      r0,[r4,#0xc]
        0x080059be:    4408        .D      ADD      r0,r0,r1
        0x080059c0:    60e0        .`      STR      r0,[r4,#0xc]
        0x080059c2:    6861        ah      LDR      r1,[r4,#4]
        0x080059c4:    68e0        .h      LDR      r0,[r4,#0xc]
        0x080059c6:    4288        .B      CMP      r0,r1
        0x080059c8:    d301        ..      BCC      0x80059ce ; prvCopyDataFromQueue + 30
        0x080059ca:    6820         h      LDR      r0,[r4,#0]
        0x080059cc:    60e0        .`      STR      r0,[r4,#0xc]
        0x080059ce:    4628        (F      MOV      r0,r5
        0x080059d0:    6c22        "l      LDR      r2,[r4,#0x40]
        0x080059d2:    68e1        .h      LDR      r1,[r4,#0xc]
        0x080059d4:    f7fafc38    ..8.    BL       __aeabi_memcpy ; 0x8000248
        0x080059d8:    bd70        p.      POP      {r4-r6,pc}
    i.prvCopyDataToQueue
    prvCopyDataToQueue
        0x080059da:    e92d41f0    -..A    PUSH     {r4-r8,lr}
        0x080059de:    4604        .F      MOV      r4,r0
        0x080059e0:    460f        .F      MOV      r7,r1
        0x080059e2:    4615        .F      MOV      r5,r2
        0x080059e4:    f04f0800    O...    MOV      r8,#0
        0x080059e8:    6ba6        .k      LDR      r6,[r4,#0x38]
        0x080059ea:    6c20         l      LDR      r0,[r4,#0x40]
        0x080059ec:    b940        @.      CBNZ     r0,0x8005a00 ; prvCopyDataToQueue + 38
        0x080059ee:    6820         h      LDR      r0,[r4,#0]
        0x080059f0:    bb60        `.      CBNZ     r0,0x8005a4c ; prvCopyDataToQueue + 114
        0x080059f2:    6860        `h      LDR      r0,[r4,#4]
        0x080059f4:    f002f898    ....    BL       xTaskPriorityDisinherit ; 0x8007b28
        0x080059f8:    4680        .F      MOV      r8,r0
        0x080059fa:    2000        .       MOVS     r0,#0
        0x080059fc:    6060        ``      STR      r0,[r4,#4]
        0x080059fe:    e025        %.      B        0x8005a4c ; prvCopyDataToQueue + 114
        0x08005a00:    b97d        }.      CBNZ     r5,0x8005a22 ; prvCopyDataToQueue + 72
        0x08005a02:    4639        9F      MOV      r1,r7
        0x08005a04:    6c22        "l      LDR      r2,[r4,#0x40]
        0x08005a06:    68a0        .h      LDR      r0,[r4,#8]
        0x08005a08:    f7fafc1e    ....    BL       __aeabi_memcpy ; 0x8000248
        0x08005a0c:    6c21        !l      LDR      r1,[r4,#0x40]
        0x08005a0e:    68a0        .h      LDR      r0,[r4,#8]
        0x08005a10:    4408        .D      ADD      r0,r0,r1
        0x08005a12:    60a0        .`      STR      r0,[r4,#8]
        0x08005a14:    e9d41001    ....    LDRD     r1,r0,[r4,#4]
        0x08005a18:    4288        .B      CMP      r0,r1
        0x08005a1a:    d317        ..      BCC      0x8005a4c ; prvCopyDataToQueue + 114
        0x08005a1c:    6820         h      LDR      r0,[r4,#0]
        0x08005a1e:    60a0        .`      STR      r0,[r4,#8]
        0x08005a20:    e014        ..      B        0x8005a4c ; prvCopyDataToQueue + 114
        0x08005a22:    4639        9F      MOV      r1,r7
        0x08005a24:    6c22        "l      LDR      r2,[r4,#0x40]
        0x08005a26:    68e0        .h      LDR      r0,[r4,#0xc]
        0x08005a28:    f7fafc0e    ....    BL       __aeabi_memcpy ; 0x8000248
        0x08005a2c:    6c21        !l      LDR      r1,[r4,#0x40]
        0x08005a2e:    68e0        .h      LDR      r0,[r4,#0xc]
        0x08005a30:    1a40        @.      SUBS     r0,r0,r1
        0x08005a32:    60e0        .`      STR      r0,[r4,#0xc]
        0x08005a34:    6821        !h      LDR      r1,[r4,#0]
        0x08005a36:    68e0        .h      LDR      r0,[r4,#0xc]
        0x08005a38:    4288        .B      CMP      r0,r1
        0x08005a3a:    d203        ..      BCS      0x8005a44 ; prvCopyDataToQueue + 106
        0x08005a3c:    6c21        !l      LDR      r1,[r4,#0x40]
        0x08005a3e:    6860        `h      LDR      r0,[r4,#4]
        0x08005a40:    1a40        @.      SUBS     r0,r0,r1
        0x08005a42:    60e0        .`      STR      r0,[r4,#0xc]
        0x08005a44:    2d02        .-      CMP      r5,#2
        0x08005a46:    d101        ..      BNE      0x8005a4c ; prvCopyDataToQueue + 114
        0x08005a48:    b106        ..      CBZ      r6,0x8005a4c ; prvCopyDataToQueue + 114
        0x08005a4a:    1e76        v.      SUBS     r6,r6,#1
        0x08005a4c:    1c70        p.      ADDS     r0,r6,#1
        0x08005a4e:    63a0        .c      STR      r0,[r4,#0x38]
        0x08005a50:    4640        @F      MOV      r0,r8
        0x08005a52:    e8bd81f0    ....    POP      {r4-r8,pc}
    i.prvDeleteTCB
    prvDeleteTCB
        0x08005a56:    b510        ..      PUSH     {r4,lr}
        0x08005a58:    4604        .F      MOV      r4,r0
        0x08005a5a:    f8940059    ..Y.    LDRB     r0,[r4,#0x59]
        0x08005a5e:    b930        0.      CBNZ     r0,0x8005a6e ; prvDeleteTCB + 24
        0x08005a60:    6b20         k      LDR      r0,[r4,#0x30]
        0x08005a62:    f000fe57    ..W.    BL       vPortFree ; 0x8006714
        0x08005a66:    4620         F      MOV      r0,r4
        0x08005a68:    f000fe54    ..T.    BL       vPortFree ; 0x8006714
        0x08005a6c:    e01a        ..      B        0x8005aa4 ; prvDeleteTCB + 78
        0x08005a6e:    f8940059    ..Y.    LDRB     r0,[r4,#0x59]
        0x08005a72:    2801        .(      CMP      r0,#1
        0x08005a74:    d103        ..      BNE      0x8005a7e ; prvDeleteTCB + 40
        0x08005a76:    4620         F      MOV      r0,r4
        0x08005a78:    f000fe4c    ..L.    BL       vPortFree ; 0x8006714
        0x08005a7c:    e012        ..      B        0x8005aa4 ; prvDeleteTCB + 78
        0x08005a7e:    f8940059    ..Y.    LDRB     r0,[r4,#0x59]
        0x08005a82:    2802        .(      CMP      r0,#2
        0x08005a84:    d101        ..      BNE      0x8005a8a ; prvDeleteTCB + 52
        0x08005a86:    2001        .       MOVS     r0,#1
        0x08005a88:    e000        ..      B        0x8005a8c ; prvDeleteTCB + 54
        0x08005a8a:    2000        .       MOVS     r0,#0
        0x08005a8c:    b950        P.      CBNZ     r0,0x8005aa4 ; prvDeleteTCB + 78
        0x08005a8e:    bf00        ..      NOP      
        0x08005a90:    2050        P       MOVS     r0,#0x50
        0x08005a92:    f3808811    ....    MSR      BASEPRI,r0
        0x08005a96:    f3bf8f4f    ..O.    DSB      
        0x08005a9a:    f3bf8f6f    ..o.    ISB      
        0x08005a9e:    bf00        ..      NOP      
        0x08005aa0:    bf00        ..      NOP      
        0x08005aa2:    e7fe        ..      B        0x8005aa2 ; prvDeleteTCB + 76
        0x08005aa4:    bd10        ..      POP      {r4,pc}
    i.prvGetDisinheritPriorityAfterTimeout
    prvGetDisinheritPriorityAfterTimeout
        0x08005aa6:    4601        .F      MOV      r1,r0
        0x08005aa8:    6a4a        Jj      LDR      r2,[r1,#0x24]
        0x08005aaa:    b122        ".      CBZ      r2,0x8005ab6 ; prvGetDisinheritPriorityAfterTimeout + 16
        0x08005aac:    6b0a        .k      LDR      r2,[r1,#0x30]
        0x08005aae:    6812        .h      LDR      r2,[r2,#0]
        0x08005ab0:    f1c20038    ..8.    RSB      r0,r2,#0x38
        0x08005ab4:    e000        ..      B        0x8005ab8 ; prvGetDisinheritPriorityAfterTimeout + 18
        0x08005ab6:    2000        .       MOVS     r0,#0
        0x08005ab8:    4770        pG      BX       lr
        0x08005aba:    0000        ..      MOVS     r0,r0
    i.prvGetNextExpireTime
    prvGetNextExpireTime
        0x08005abc:    4601        .F      MOV      r1,r0
        0x08005abe:    4a08        .J      LDR      r2,[pc,#32] ; [0x8005ae0] = 0x20000058
        0x08005ac0:    6812        .h      LDR      r2,[r2,#0]
        0x08005ac2:    6812        .h      LDR      r2,[r2,#0]
        0x08005ac4:    b90a        ..      CBNZ     r2,0x8005aca ; prvGetNextExpireTime + 14
        0x08005ac6:    2201        ."      MOVS     r2,#1
        0x08005ac8:    e000        ..      B        0x8005acc ; prvGetNextExpireTime + 16
        0x08005aca:    2200        ."      MOVS     r2,#0
        0x08005acc:    600a        .`      STR      r2,[r1,#0]
        0x08005ace:    680a        .h      LDR      r2,[r1,#0]
        0x08005ad0:    b922        ".      CBNZ     r2,0x8005adc ; prvGetNextExpireTime + 32
        0x08005ad2:    4a03        .J      LDR      r2,[pc,#12] ; [0x8005ae0] = 0x20000058
        0x08005ad4:    6812        .h      LDR      r2,[r2,#0]
        0x08005ad6:    68d2        .h      LDR      r2,[r2,#0xc]
        0x08005ad8:    6810        .h      LDR      r0,[r2,#0]
        0x08005ada:    e000        ..      B        0x8005ade ; prvGetNextExpireTime + 34
        0x08005adc:    2000        .       MOVS     r0,#0
        0x08005ade:    4770        pG      BX       lr
    $d
        0x08005ae0:    20000058    X..     DCD    536871000
    $t
    i.prvHeapInit
    prvHeapInit
        0x08005ae4:    b530        0.      PUSH     {r4,r5,lr}
        0x08005ae6:    f44f4320    O. C    MOV      r3,#0xa000
        0x08005aea:    4817        .H      LDR      r0,[pc,#92] ; [0x8005b48] = 0x20001264
        0x08005aec:    f0000407    ....    AND      r4,r0,#7
        0x08005af0:    b12c        ,.      CBZ      r4,0x8005afe ; prvHeapInit + 26
        0x08005af2:    1dc0        ..      ADDS     r0,r0,#7
        0x08005af4:    f0200007     ...    BIC      r0,r0,#7
        0x08005af8:    4c13        .L      LDR      r4,[pc,#76] ; [0x8005b48] = 0x20001264
        0x08005afa:    1b04        ..      SUBS     r4,r0,r4
        0x08005afc:    1b1b        ..      SUBS     r3,r3,r4
        0x08005afe:    4602        .F      MOV      r2,r0
        0x08005b00:    4c12        .L      LDR      r4,[pc,#72] ; [0x8005b4c] = 0x20000070
        0x08005b02:    6022        "`      STR      r2,[r4,#0]
        0x08005b04:    2400        .$      MOVS     r4,#0
        0x08005b06:    4d11        .M      LDR      r5,[pc,#68] ; [0x8005b4c] = 0x20000070
        0x08005b08:    606c        l`      STR      r4,[r5,#4]
        0x08005b0a:    18d0        ..      ADDS     r0,r2,r3
        0x08005b0c:    3808        .8      SUBS     r0,r0,#8
        0x08005b0e:    f0200007     ...    BIC      r0,r0,#7
        0x08005b12:    4c0f        .L      LDR      r4,[pc,#60] ; [0x8005b50] = 0x20000078
        0x08005b14:    6020         `      STR      r0,[r4,#0]
        0x08005b16:    2400        .$      MOVS     r4,#0
        0x08005b18:    4d0d        .M      LDR      r5,[pc,#52] ; [0x8005b50] = 0x20000078
        0x08005b1a:    682d        -h      LDR      r5,[r5,#0]
        0x08005b1c:    606c        l`      STR      r4,[r5,#4]
        0x08005b1e:    4d0c        .M      LDR      r5,[pc,#48] ; [0x8005b50] = 0x20000078
        0x08005b20:    682d        -h      LDR      r5,[r5,#0]
        0x08005b22:    602c        ,`      STR      r4,[r5,#0]
        0x08005b24:    4611        .F      MOV      r1,r2
        0x08005b26:    1a44        D.      SUBS     r4,r0,r1
        0x08005b28:    604c        L`      STR      r4,[r1,#4]
        0x08005b2a:    4c09        .L      LDR      r4,[pc,#36] ; [0x8005b50] = 0x20000078
        0x08005b2c:    6824        $h      LDR      r4,[r4,#0]
        0x08005b2e:    600c        .`      STR      r4,[r1,#0]
        0x08005b30:    4d08        .M      LDR      r5,[pc,#32] ; [0x8005b54] = 0x20000080
        0x08005b32:    684c        Lh      LDR      r4,[r1,#4]
        0x08005b34:    602c        ,`      STR      r4,[r5,#0]
        0x08005b36:    4d08        .M      LDR      r5,[pc,#32] ; [0x8005b58] = 0x2000007c
        0x08005b38:    684c        Lh      LDR      r4,[r1,#4]
        0x08005b3a:    602c        ,`      STR      r4,[r5,#0]
        0x08005b3c:    f04f4400    O..D    MOV      r4,#0x80000000
        0x08005b40:    4d06        .M      LDR      r5,[pc,#24] ; [0x8005b5c] = 0x20000084
        0x08005b42:    602c        ,`      STR      r4,[r5,#0]
        0x08005b44:    bd30        0.      POP      {r4,r5,pc}
    $d
        0x08005b46:    0000        ..      DCW    0
        0x08005b48:    20001264    d..     DCD    536875620
        0x08005b4c:    20000070    p..     DCD    536871024
        0x08005b50:    20000078    x..     DCD    536871032
        0x08005b54:    20000080    ...     DCD    536871040
        0x08005b58:    2000007c    |..     DCD    536871036
        0x08005b5c:    20000084    ...     DCD    536871044
    $t
    i.prvIdleTask
    prvIdleTask
        0x08005b60:    bf00        ..      NOP      
        0x08005b62:    f7ffff01    ....    BL       prvCheckTasksWaitingTermination ; 0x8005968
        0x08005b66:    4806        .H      LDR      r0,[pc,#24] ; [0x8005b80] = 0x200005d0
        0x08005b68:    6800        .h      LDR      r0,[r0,#0]
        0x08005b6a:    2801        .(      CMP      r0,#1
        0x08005b6c:    d9f9        ..      BLS      0x8005b62 ; prvIdleTask + 2
        0x08005b6e:    f04f5080    O..P    MOV      r0,#0x10000000
        0x08005b72:    4904        .I      LDR      r1,[pc,#16] ; [0x8005b84] = 0xe000ed04
        0x08005b74:    6008        .`      STR      r0,[r1,#0]
        0x08005b76:    f3bf8f4f    ..O.    DSB      
        0x08005b7a:    f3bf8f6f    ..o.    ISB      
        0x08005b7e:    e7f0        ..      B        0x8005b62 ; prvIdleTask + 2
    $d
        0x08005b80:    200005d0    ...     DCD    536872400
        0x08005b84:    e000ed04    ....    DCD    3758157060
    $t
    i.prvInitialiseNewQueue
    prvInitialiseNewQueue
        0x08005b88:    e92d41f0    -..A    PUSH     {r4-r8,lr}
        0x08005b8c:    4606        .F      MOV      r6,r0
        0x08005b8e:    460d        .F      MOV      r5,r1
        0x08005b90:    4617        .F      MOV      r7,r2
        0x08005b92:    4698        .F      MOV      r8,r3
        0x08005b94:    9c06        ..      LDR      r4,[sp,#0x18]
        0x08005b96:    b90d        ..      CBNZ     r5,0x8005b9c ; prvInitialiseNewQueue + 20
        0x08005b98:    6024        $`      STR      r4,[r4,#0]
        0x08005b9a:    e000        ..      B        0x8005b9e ; prvInitialiseNewQueue + 22
        0x08005b9c:    6027        '`      STR      r7,[r4,#0]
        0x08005b9e:    63e6        .c      STR      r6,[r4,#0x3c]
        0x08005ba0:    6425        %d      STR      r5,[r4,#0x40]
        0x08005ba2:    2101        .!      MOVS     r1,#1
        0x08005ba4:    4620         F      MOV      r0,r4
        0x08005ba6:    f001fa97    ....    BL       xQueueGenericReset ; 0x80070d8
        0x08005baa:    f884804c    ..L.    STRB     r8,[r4,#0x4c]
        0x08005bae:    e8bd81f0    ....    POP      {r4-r8,pc}
    i.prvInitialiseNewTask
    prvInitialiseNewTask
        0x08005bb2:    e92d5ff0    -.._    PUSH     {r4-r12,lr}
        0x08005bb6:    4682        .F      MOV      r10,r0
        0x08005bb8:    460f        .F      MOV      r7,r1
        0x08005bba:    4690        .F      MOV      r8,r2
        0x08005bbc:    469b        .F      MOV      r11,r3
        0x08005bbe:    9e0a        ..      LDR      r6,[sp,#0x28]
        0x08005bc0:    9c0c        ..      LDR      r4,[sp,#0x30]
        0x08005bc2:    ea4f0188    O...    LSL      r1,r8,#2
        0x08005bc6:    22a5        ."      MOVS     r2,#0xa5
        0x08005bc8:    6b20         k      LDR      r0,[r4,#0x30]
        0x08005bca:    f7fafb4f    ..O.    BL       __aeabi_memset ; 0x800026c
        0x08005bce:    f1a80001    ....    SUB      r0,r8,#1
        0x08005bd2:    6b21        !k      LDR      r1,[r4,#0x30]
        0x08005bd4:    eb010980    ....    ADD      r9,r1,r0,LSL #2
        0x08005bd8:    f0290907    )...    BIC      r9,r9,#7
        0x08005bdc:    f0090007    ....    AND      r0,r9,#7
        0x08005be0:    b908        ..      CBNZ     r0,0x8005be6 ; prvInitialiseNewTask + 52
        0x08005be2:    2001        .       MOVS     r0,#1
        0x08005be4:    e000        ..      B        0x8005be8 ; prvInitialiseNewTask + 54
        0x08005be6:    2000        .       MOVS     r0,#0
        0x08005be8:    b950        P.      CBNZ     r0,0x8005c00 ; prvInitialiseNewTask + 78
        0x08005bea:    bf00        ..      NOP      
        0x08005bec:    2050        P       MOVS     r0,#0x50
        0x08005bee:    f3808811    ....    MSR      BASEPRI,r0
        0x08005bf2:    f3bf8f4f    ..O.    DSB      
        0x08005bf6:    f3bf8f6f    ..o.    ISB      
        0x08005bfa:    bf00        ..      NOP      
        0x08005bfc:    bf00        ..      NOP      
        0x08005bfe:    e7fe        ..      B        0x8005bfe ; prvInitialiseNewTask + 76
        0x08005c00:    2500        .%      MOVS     r5,#0
        0x08005c02:    e007        ..      B        0x8005c14 ; prvInitialiseNewTask + 98
        0x08005c04:    5d79        y]      LDRB     r1,[r7,r5]
        0x08005c06:    f1040034    ..4.    ADD      r0,r4,#0x34
        0x08005c0a:    5541        AU      STRB     r1,[r0,r5]
        0x08005c0c:    5d78        x]      LDRB     r0,[r7,r5]
        0x08005c0e:    b900        ..      CBNZ     r0,0x8005c12 ; prvInitialiseNewTask + 96
        0x08005c10:    e002        ..      B        0x8005c18 ; prvInitialiseNewTask + 102
        0x08005c12:    1c6d        m.      ADDS     r5,r5,#1
        0x08005c14:    2d10        .-      CMP      r5,#0x10
        0x08005c16:    d3f5        ..      BCC      0x8005c04 ; prvInitialiseNewTask + 82
        0x08005c18:    bf00        ..      NOP      
        0x08005c1a:    2100        .!      MOVS     r1,#0
        0x08005c1c:    2043        C       MOVS     r0,#0x43
        0x08005c1e:    5501        .U      STRB     r1,[r0,r4]
        0x08005c20:    2e38        8.      CMP      r6,#0x38
        0x08005c22:    d300        ..      BCC      0x8005c26 ; prvInitialiseNewTask + 116
        0x08005c24:    2637        7&      MOVS     r6,#0x37
        0x08005c26:    62e6        .b      STR      r6,[r4,#0x2c]
        0x08005c28:    64e6        .d      STR      r6,[r4,#0x4c]
        0x08005c2a:    2000        .       MOVS     r0,#0
        0x08005c2c:    6520         e      STR      r0,[r4,#0x50]
        0x08005c2e:    1d20         .      ADDS     r0,r4,#4
        0x08005c30:    f000fcff    ....    BL       vListInitialiseItem ; 0x8006632
        0x08005c34:    f1040018    ....    ADD      r0,r4,#0x18
        0x08005c38:    f000fcfb    ....    BL       vListInitialiseItem ; 0x8006632
        0x08005c3c:    6124        $a      STR      r4,[r4,#0x10]
        0x08005c3e:    f1c60038    ..8.    RSB      r0,r6,#0x38
        0x08005c42:    61a0        .a      STR      r0,[r4,#0x18]
        0x08005c44:    6264        db      STR      r4,[r4,#0x24]
        0x08005c46:    2000        .       MOVS     r0,#0
        0x08005c48:    6560        `e      STR      r0,[r4,#0x54]
        0x08005c4a:    f8840058    ..X.    STRB     r0,[r4,#0x58]
        0x08005c4e:    465a        ZF      MOV      r2,r11
        0x08005c50:    4651        QF      MOV      r1,r10
        0x08005c52:    4648        HF      MOV      r0,r9
        0x08005c54:    f000fb7e    ..~.    BL       pxPortInitialiseStack ; 0x8006354
        0x08005c58:    6020         `      STR      r0,[r4,#0]
        0x08005c5a:    980b        ..      LDR      r0,[sp,#0x2c]
        0x08005c5c:    b108        ..      CBZ      r0,0x8005c62 ; prvInitialiseNewTask + 176
        0x08005c5e:    980b        ..      LDR      r0,[sp,#0x2c]
        0x08005c60:    6004        .`      STR      r4,[r0,#0]
        0x08005c62:    e8bd9ff0    ....    POP      {r4-r12,pc}
        0x08005c66:    0000        ..      MOVS     r0,r0
    i.prvInitialiseTaskLists
    prvInitialiseTaskLists
        0x08005c68:    b510        ..      PUSH     {r4,lr}
        0x08005c6a:    2400        .$      MOVS     r4,#0
        0x08005c6c:    e007        ..      B        0x8005c7e ; prvInitialiseTaskLists + 22
        0x08005c6e:    eb040184    ....    ADD      r1,r4,r4,LSL #2
        0x08005c72:    4a0f        .J      LDR      r2,[pc,#60] ; [0x8005cb0] = 0x200005d0
        0x08005c74:    eb020081    ....    ADD      r0,r2,r1,LSL #2
        0x08005c78:    f000fcce    ....    BL       vListInitialise ; 0x8006618
        0x08005c7c:    1c64        d.      ADDS     r4,r4,#1
        0x08005c7e:    2c38        8,      CMP      r4,#0x38
        0x08005c80:    d3f5        ..      BCC      0x8005c6e ; prvInitialiseTaskLists + 6
        0x08005c82:    480c        .H      LDR      r0,[pc,#48] ; [0x8005cb4] = 0x20000a30
        0x08005c84:    f000fcc8    ....    BL       vListInitialise ; 0x8006618
        0x08005c88:    480b        .H      LDR      r0,[pc,#44] ; [0x8005cb8] = 0x20000a44
        0x08005c8a:    f000fcc5    ....    BL       vListInitialise ; 0x8006618
        0x08005c8e:    480b        .H      LDR      r0,[pc,#44] ; [0x8005cbc] = 0x20000a58
        0x08005c90:    f000fcc2    ....    BL       vListInitialise ; 0x8006618
        0x08005c94:    480a        .H      LDR      r0,[pc,#40] ; [0x8005cc0] = 0x20000a6c
        0x08005c96:    f000fcbf    ....    BL       vListInitialise ; 0x8006618
        0x08005c9a:    480a        .H      LDR      r0,[pc,#40] ; [0x8005cc4] = 0x20000a80
        0x08005c9c:    f000fcbc    ....    BL       vListInitialise ; 0x8006618
        0x08005ca0:    4804        .H      LDR      r0,[pc,#16] ; [0x8005cb4] = 0x20000a30
        0x08005ca2:    4909        .I      LDR      r1,[pc,#36] ; [0x8005cc8] = 0x20000020
        0x08005ca4:    6008        .`      STR      r0,[r1,#0]
        0x08005ca6:    4804        .H      LDR      r0,[pc,#16] ; [0x8005cb8] = 0x20000a44
        0x08005ca8:    4908        .I      LDR      r1,[pc,#32] ; [0x8005ccc] = 0x20000024
        0x08005caa:    6008        .`      STR      r0,[r1,#0]
        0x08005cac:    bd10        ..      POP      {r4,pc}
    $d
        0x08005cae:    0000        ..      DCW    0
        0x08005cb0:    200005d0    ...     DCD    536872400
        0x08005cb4:    20000a30    0..     DCD    536873520
        0x08005cb8:    20000a44    D..     DCD    536873540
        0x08005cbc:    20000a58    X..     DCD    536873560
        0x08005cc0:    20000a6c    l..     DCD    536873580
        0x08005cc4:    20000a80    ...     DCD    536873600
        0x08005cc8:    20000020     ..     DCD    536870944
        0x08005ccc:    20000024    $..     DCD    536870948
    $t
    i.prvInsertBlockIntoFreeList
    prvInsertBlockIntoFreeList
        0x08005cd0:    b510        ..      PUSH     {r4,lr}
        0x08005cd2:    4601        .F      MOV      r1,r0
        0x08005cd4:    4816        .H      LDR      r0,[pc,#88] ; [0x8005d30] = 0x20000070
        0x08005cd6:    e000        ..      B        0x8005cda ; prvInsertBlockIntoFreeList + 10
        0x08005cd8:    6800        .h      LDR      r0,[r0,#0]
        0x08005cda:    6803        .h      LDR      r3,[r0,#0]
        0x08005cdc:    428b        .B      CMP      r3,r1
        0x08005cde:    d3fb        ..      BCC      0x8005cd8 ; prvInsertBlockIntoFreeList + 8
        0x08005ce0:    4602        .F      MOV      r2,r0
        0x08005ce2:    6843        Ch      LDR      r3,[r0,#4]
        0x08005ce4:    4413        .D      ADD      r3,r3,r2
        0x08005ce6:    428b        .B      CMP      r3,r1
        0x08005ce8:    d104        ..      BNE      0x8005cf4 ; prvInsertBlockIntoFreeList + 36
        0x08005cea:    6843        Ch      LDR      r3,[r0,#4]
        0x08005cec:    684c        Lh      LDR      r4,[r1,#4]
        0x08005cee:    4423        #D      ADD      r3,r3,r4
        0x08005cf0:    6043        C`      STR      r3,[r0,#4]
        0x08005cf2:    4601        .F      MOV      r1,r0
        0x08005cf4:    460a        .F      MOV      r2,r1
        0x08005cf6:    684b        Kh      LDR      r3,[r1,#4]
        0x08005cf8:    4413        .D      ADD      r3,r3,r2
        0x08005cfa:    6804        .h      LDR      r4,[r0,#0]
        0x08005cfc:    42a3        .B      CMP      r3,r4
        0x08005cfe:    d111        ..      BNE      0x8005d24 ; prvInsertBlockIntoFreeList + 84
        0x08005d00:    4c0c        .L      LDR      r4,[pc,#48] ; [0x8005d34] = 0x20000078
        0x08005d02:    6803        .h      LDR      r3,[r0,#0]
        0x08005d04:    6824        $h      LDR      r4,[r4,#0]
        0x08005d06:    42a3        .B      CMP      r3,r4
        0x08005d08:    d008        ..      BEQ      0x8005d1c ; prvInsertBlockIntoFreeList + 76
        0x08005d0a:    684b        Kh      LDR      r3,[r1,#4]
        0x08005d0c:    6804        .h      LDR      r4,[r0,#0]
        0x08005d0e:    6864        dh      LDR      r4,[r4,#4]
        0x08005d10:    4423        #D      ADD      r3,r3,r4
        0x08005d12:    604b        K`      STR      r3,[r1,#4]
        0x08005d14:    6803        .h      LDR      r3,[r0,#0]
        0x08005d16:    681b        .h      LDR      r3,[r3,#0]
        0x08005d18:    600b        .`      STR      r3,[r1,#0]
        0x08005d1a:    e005        ..      B        0x8005d28 ; prvInsertBlockIntoFreeList + 88
        0x08005d1c:    4b05        .K      LDR      r3,[pc,#20] ; [0x8005d34] = 0x20000078
        0x08005d1e:    681b        .h      LDR      r3,[r3,#0]
        0x08005d20:    600b        .`      STR      r3,[r1,#0]
        0x08005d22:    e001        ..      B        0x8005d28 ; prvInsertBlockIntoFreeList + 88
        0x08005d24:    6803        .h      LDR      r3,[r0,#0]
        0x08005d26:    600b        .`      STR      r3,[r1,#0]
        0x08005d28:    4288        .B      CMP      r0,r1
        0x08005d2a:    d000        ..      BEQ      0x8005d2e ; prvInsertBlockIntoFreeList + 94
        0x08005d2c:    6001        .`      STR      r1,[r0,#0]
        0x08005d2e:    bd10        ..      POP      {r4,pc}
    $d
        0x08005d30:    20000070    p..     DCD    536871024
        0x08005d34:    20000078    x..     DCD    536871032
    $t
    i.prvInsertTimerInActiveList
    prvInsertTimerInActiveList
        0x08005d38:    e92d41f0    -..A    PUSH     {r4-r8,lr}
        0x08005d3c:    4604        .F      MOV      r4,r0
        0x08005d3e:    460d        .F      MOV      r5,r1
        0x08005d40:    4616        .F      MOV      r6,r2
        0x08005d42:    461f        .F      MOV      r7,r3
        0x08005d44:    f04f0800    O...    MOV      r8,#0
        0x08005d48:    6065        e`      STR      r5,[r4,#4]
        0x08005d4a:    6124        $a      STR      r4,[r4,#0x10]
        0x08005d4c:    42b5        .B      CMP      r5,r6
        0x08005d4e:    d80c        ..      BHI      0x8005d6a ; prvInsertTimerInActiveList + 50
        0x08005d50:    1bf0        ..      SUBS     r0,r6,r7
        0x08005d52:    69a1        .i      LDR      r1,[r4,#0x18]
        0x08005d54:    4288        .B      CMP      r0,r1
        0x08005d56:    d302        ..      BCC      0x8005d5e ; prvInsertTimerInActiveList + 38
        0x08005d58:    f04f0801    O...    MOV      r8,#1
        0x08005d5c:    e011        ..      B        0x8005d82 ; prvInsertTimerInActiveList + 74
        0x08005d5e:    1d21        !.      ADDS     r1,r4,#4
        0x08005d60:    4809        .H      LDR      r0,[pc,#36] ; [0x8005d88] = 0x2000005c
        0x08005d62:    6800        .h      LDR      r0,[r0,#0]
        0x08005d64:    f000fc68    ..h.    BL       vListInsert ; 0x8006638
        0x08005d68:    e00b        ..      B        0x8005d82 ; prvInsertTimerInActiveList + 74
        0x08005d6a:    42be        .B      CMP      r6,r7
        0x08005d6c:    d204        ..      BCS      0x8005d78 ; prvInsertTimerInActiveList + 64
        0x08005d6e:    42bd        .B      CMP      r5,r7
        0x08005d70:    d302        ..      BCC      0x8005d78 ; prvInsertTimerInActiveList + 64
        0x08005d72:    f04f0801    O...    MOV      r8,#1
        0x08005d76:    e004        ..      B        0x8005d82 ; prvInsertTimerInActiveList + 74
        0x08005d78:    1d21        !.      ADDS     r1,r4,#4
        0x08005d7a:    4804        .H      LDR      r0,[pc,#16] ; [0x8005d8c] = 0x20000058
        0x08005d7c:    6800        .h      LDR      r0,[r0,#0]
        0x08005d7e:    f000fc5b    ..[.    BL       vListInsert ; 0x8006638
        0x08005d82:    4640        @F      MOV      r0,r8
        0x08005d84:    e8bd81f0    ....    POP      {r4-r8,pc}
    $d
        0x08005d88:    2000005c    \..     DCD    536871004
        0x08005d8c:    20000058    X..     DCD    536871000
    $t
    i.prvIsQueueEmpty
    prvIsQueueEmpty
        0x08005d90:    b570        p.      PUSH     {r4-r6,lr}
        0x08005d92:    4605        .F      MOV      r5,r0
        0x08005d94:    f000fc76    ..v.    BL       vPortEnterCritical ; 0x8006684
        0x08005d98:    6ba8        .k      LDR      r0,[r5,#0x38]
        0x08005d9a:    b908        ..      CBNZ     r0,0x8005da0 ; prvIsQueueEmpty + 16
        0x08005d9c:    2401        .$      MOVS     r4,#1
        0x08005d9e:    e000        ..      B        0x8005da2 ; prvIsQueueEmpty + 18
        0x08005da0:    2400        .$      MOVS     r4,#0
        0x08005da2:    f000fc99    ....    BL       vPortExitCritical ; 0x80066d8
        0x08005da6:    4620         F      MOV      r0,r4
        0x08005da8:    bd70        p.      POP      {r4-r6,pc}
    i.prvIsQueueFull
    prvIsQueueFull
        0x08005daa:    b570        p.      PUSH     {r4-r6,lr}
        0x08005dac:    4605        .F      MOV      r5,r0
        0x08005dae:    f000fc69    ..i.    BL       vPortEnterCritical ; 0x8006684
        0x08005db2:    6ba8        .k      LDR      r0,[r5,#0x38]
        0x08005db4:    6be9        .k      LDR      r1,[r5,#0x3c]
        0x08005db6:    4288        .B      CMP      r0,r1
        0x08005db8:    d101        ..      BNE      0x8005dbe ; prvIsQueueFull + 20
        0x08005dba:    2401        .$      MOVS     r4,#1
        0x08005dbc:    e000        ..      B        0x8005dc0 ; prvIsQueueFull + 22
        0x08005dbe:    2400        .$      MOVS     r4,#0
        0x08005dc0:    f000fc8a    ....    BL       vPortExitCritical ; 0x80066d8
        0x08005dc4:    4620         F      MOV      r0,r4
        0x08005dc6:    bd70        p.      POP      {r4-r6,pc}
    i.prvProcessExpiredTimer
    prvProcessExpiredTimer
        0x08005dc8:    b5f8        ..      PUSH     {r3-r7,lr}
        0x08005dca:    4605        .F      MOV      r5,r0
        0x08005dcc:    460f        .F      MOV      r7,r1
        0x08005dce:    4816        .H      LDR      r0,[pc,#88] ; [0x8005e28] = 0x20000058
        0x08005dd0:    6800        .h      LDR      r0,[r0,#0]
        0x08005dd2:    68c0        .h      LDR      r0,[r0,#0xc]
        0x08005dd4:    68c4        .h      LDR      r4,[r0,#0xc]
        0x08005dd6:    1d20         .      ADDS     r0,r4,#4
        0x08005dd8:    f000fbf2    ....    BL       uxListRemove ; 0x80065c0
        0x08005ddc:    69e0        .i      LDR      r0,[r4,#0x1c]
        0x08005dde:    2801        .(      CMP      r0,#1
        0x08005de0:    d11d        ..      BNE      0x8005e1e ; prvProcessExpiredTimer + 86
        0x08005de2:    69a0        .i      LDR      r0,[r4,#0x18]
        0x08005de4:    1941        A.      ADDS     r1,r0,r5
        0x08005de6:    462b        +F      MOV      r3,r5
        0x08005de8:    463a        :F      MOV      r2,r7
        0x08005dea:    4620         F      MOV      r0,r4
        0x08005dec:    f7ffffa4    ....    BL       prvInsertTimerInActiveList ; 0x8005d38
        0x08005df0:    b1a8        ..      CBZ      r0,0x8005e1e ; prvProcessExpiredTimer + 86
        0x08005df2:    2000        .       MOVS     r0,#0
        0x08005df4:    4603        .F      MOV      r3,r0
        0x08005df6:    462a        *F      MOV      r2,r5
        0x08005df8:    4601        .F      MOV      r1,r0
        0x08005dfa:    9000        ..      STR      r0,[sp,#0]
        0x08005dfc:    4620         F      MOV      r0,r4
        0x08005dfe:    f002f841    ..A.    BL       xTimerGenericCommand ; 0x8007e84
        0x08005e02:    4606        .F      MOV      r6,r0
        0x08005e04:    b956        V.      CBNZ     r6,0x8005e1c ; prvProcessExpiredTimer + 84
        0x08005e06:    bf00        ..      NOP      
        0x08005e08:    2050        P       MOVS     r0,#0x50
        0x08005e0a:    f3808811    ....    MSR      BASEPRI,r0
        0x08005e0e:    f3bf8f4f    ..O.    DSB      
        0x08005e12:    f3bf8f6f    ..o.    ISB      
        0x08005e16:    bf00        ..      NOP      
        0x08005e18:    bf00        ..      NOP      
        0x08005e1a:    e7fe        ..      B        0x8005e1a ; prvProcessExpiredTimer + 82
        0x08005e1c:    bf00        ..      NOP      
        0x08005e1e:    4620         F      MOV      r0,r4
        0x08005e20:    6a61        aj      LDR      r1,[r4,#0x24]
        0x08005e22:    4788        .G      BLX      r1
        0x08005e24:    bdf8        ..      POP      {r3-r7,pc}
    $d
        0x08005e26:    0000        ..      DCW    0
        0x08005e28:    20000058    X..     DCD    536871000
    $t
    i.prvProcessReceivedCommands
    prvProcessReceivedCommands
        0x08005e2c:    b5f0        ..      PUSH     {r4-r7,lr}
        0x08005e2e:    b087        ..      SUB      sp,sp,#0x1c
        0x08005e30:    e082        ..      B        0x8005f38 ; prvProcessReceivedCommands + 268
        0x08005e32:    9803        ..      LDR      r0,[sp,#0xc]
        0x08005e34:    2800        .(      CMP      r0,#0
        0x08005e36:    da11        ..      BGE      0x8005e5c ; prvProcessReceivedCommands + 48
        0x08005e38:    ae04        ..      ADD      r6,sp,#0x10
        0x08005e3a:    b956        V.      CBNZ     r6,0x8005e52 ; prvProcessReceivedCommands + 38
        0x08005e3c:    bf00        ..      NOP      
        0x08005e3e:    2050        P       MOVS     r0,#0x50
        0x08005e40:    f3808811    ....    MSR      BASEPRI,r0
        0x08005e44:    f3bf8f4f    ..O.    DSB      
        0x08005e48:    f3bf8f6f    ..o.    ISB      
        0x08005e4c:    bf00        ..      NOP      
        0x08005e4e:    bf00        ..      NOP      
        0x08005e50:    e7fe        ..      B        0x8005e50 ; prvProcessReceivedCommands + 36
        0x08005e52:    e9d62000    ...     LDRD     r2,r0,[r6,#0]
        0x08005e56:    68b1        .h      LDR      r1,[r6,#8]
        0x08005e58:    4790        .G      BLX      r2
        0x08005e5a:    bf00        ..      NOP      
        0x08005e5c:    9803        ..      LDR      r0,[sp,#0xc]
        0x08005e5e:    2800        .(      CMP      r0,#0
        0x08005e60:    db6a        j.      BLT      0x8005f38 ; prvProcessReceivedCommands + 268
        0x08005e62:    9c05        ..      LDR      r4,[sp,#0x14]
        0x08005e64:    6960        `i      LDR      r0,[r4,#0x14]
        0x08005e66:    b908        ..      CBNZ     r0,0x8005e6c ; prvProcessReceivedCommands + 64
        0x08005e68:    2001        .       MOVS     r0,#1
        0x08005e6a:    e000        ..      B        0x8005e6e ; prvProcessReceivedCommands + 66
        0x08005e6c:    2000        .       MOVS     r0,#0
        0x08005e6e:    b910        ..      CBNZ     r0,0x8005e76 ; prvProcessReceivedCommands + 74
        0x08005e70:    1d20         .      ADDS     r0,r4,#4
        0x08005e72:    f000fba5    ....    BL       uxListRemove ; 0x80065c0
        0x08005e76:    a802        ..      ADD      r0,sp,#8
        0x08005e78:    f000f8c0    ....    BL       prvSampleTimeNow ; 0x8005ffc
        0x08005e7c:    4605        .F      MOV      r5,r0
        0x08005e7e:    9803        ..      LDR      r0,[sp,#0xc]
        0x08005e80:    280a        .(      CMP      r0,#0xa
        0x08005e82:    d257        W.      BCS      0x8005f34 ; prvProcessReceivedCommands + 264
        0x08005e84:    e8dff000    ....    TBB      [pc,r0]
    $d
        0x08005e88:    31070509    ...1    DCD    822543625
        0x08005e8c:    08064f33    3O..    DCD    134631219
        0x08005e90:    3432        24      DCW    13362
    $t
        0x08005e92:    bf00        ..      NOP      
        0x08005e94:    bf00        ..      NOP      
        0x08005e96:    bf00        ..      NOP      
        0x08005e98:    bf00        ..      NOP      
        0x08005e9a:    9804        ..      LDR      r0,[sp,#0x10]
        0x08005e9c:    69a2        .i      LDR      r2,[r4,#0x18]
        0x08005e9e:    1881        ..      ADDS     r1,r0,r2
        0x08005ea0:    4603        .F      MOV      r3,r0
        0x08005ea2:    462a        *F      MOV      r2,r5
        0x08005ea4:    4620         F      MOV      r0,r4
        0x08005ea6:    f7ffff47    ..G.    BL       prvInsertTimerInActiveList ; 0x8005d38
        0x08005eaa:    b1e8        ..      CBZ      r0,0x8005ee8 ; prvProcessReceivedCommands + 188
        0x08005eac:    4620         F      MOV      r0,r4
        0x08005eae:    6a61        aj      LDR      r1,[r4,#0x24]
        0x08005eb0:    4788        .G      BLX      r1
        0x08005eb2:    69e0        .i      LDR      r0,[r4,#0x1c]
        0x08005eb4:    2801        .(      CMP      r0,#1
        0x08005eb6:    d117        ..      BNE      0x8005ee8 ; prvProcessReceivedCommands + 188
        0x08005eb8:    2000        .       MOVS     r0,#0
        0x08005eba:    9000        ..      STR      r0,[sp,#0]
        0x08005ebc:    9804        ..      LDR      r0,[sp,#0x10]
        0x08005ebe:    69a1        .i      LDR      r1,[r4,#0x18]
        0x08005ec0:    1842        B.      ADDS     r2,r0,r1
        0x08005ec2:    2300        .#      MOVS     r3,#0
        0x08005ec4:    4619        .F      MOV      r1,r3
        0x08005ec6:    4620         F      MOV      r0,r4
        0x08005ec8:    f001ffdc    ....    BL       xTimerGenericCommand ; 0x8007e84
        0x08005ecc:    4607        .F      MOV      r7,r0
        0x08005ece:    b957        W.      CBNZ     r7,0x8005ee6 ; prvProcessReceivedCommands + 186
        0x08005ed0:    bf00        ..      NOP      
        0x08005ed2:    2050        P       MOVS     r0,#0x50
        0x08005ed4:    f3808811    ....    MSR      BASEPRI,r0
        0x08005ed8:    f3bf8f4f    ..O.    DSB      
        0x08005edc:    f3bf8f6f    ..o.    ISB      
        0x08005ee0:    bf00        ..      NOP      
        0x08005ee2:    bf00        ..      NOP      
        0x08005ee4:    e7fe        ..      B        0x8005ee4 ; prvProcessReceivedCommands + 184
        0x08005ee6:    bf00        ..      NOP      
        0x08005ee8:    e025        %.      B        0x8005f36 ; prvProcessReceivedCommands + 266
        0x08005eea:    bf00        ..      NOP      
        0x08005eec:    e023        #.      B        0x8005f36 ; prvProcessReceivedCommands + 266
        0x08005eee:    bf00        ..      NOP      
        0x08005ef0:    9804        ..      LDR      r0,[sp,#0x10]
        0x08005ef2:    61a0        .a      STR      r0,[r4,#0x18]
        0x08005ef4:    69a0        .i      LDR      r0,[r4,#0x18]
        0x08005ef6:    b108        ..      CBZ      r0,0x8005efc ; prvProcessReceivedCommands + 208
        0x08005ef8:    2001        .       MOVS     r0,#1
        0x08005efa:    e000        ..      B        0x8005efe ; prvProcessReceivedCommands + 210
        0x08005efc:    2000        .       MOVS     r0,#0
        0x08005efe:    b950        P.      CBNZ     r0,0x8005f16 ; prvProcessReceivedCommands + 234
        0x08005f00:    bf00        ..      NOP      
        0x08005f02:    2050        P       MOVS     r0,#0x50
        0x08005f04:    f3808811    ....    MSR      BASEPRI,r0
        0x08005f08:    f3bf8f4f    ..O.    DSB      
        0x08005f0c:    f3bf8f6f    ..o.    ISB      
        0x08005f10:    bf00        ..      NOP      
        0x08005f12:    bf00        ..      NOP      
        0x08005f14:    e7fe        ..      B        0x8005f14 ; prvProcessReceivedCommands + 232
        0x08005f16:    69a0        .i      LDR      r0,[r4,#0x18]
        0x08005f18:    1941        A.      ADDS     r1,r0,r5
        0x08005f1a:    462b        +F      MOV      r3,r5
        0x08005f1c:    462a        *F      MOV      r2,r5
        0x08005f1e:    4620         F      MOV      r0,r4
        0x08005f20:    f7ffff0a    ....    BL       prvInsertTimerInActiveList ; 0x8005d38
        0x08005f24:    e007        ..      B        0x8005f36 ; prvProcessReceivedCommands + 266
        0x08005f26:    f894002c    ..,.    LDRB     r0,[r4,#0x2c]
        0x08005f2a:    b910        ..      CBNZ     r0,0x8005f32 ; prvProcessReceivedCommands + 262
        0x08005f2c:    4620         F      MOV      r0,r4
        0x08005f2e:    f000fbf1    ....    BL       vPortFree ; 0x8006714
        0x08005f32:    e000        ..      B        0x8005f36 ; prvProcessReceivedCommands + 266
        0x08005f34:    bf00        ..      NOP      
        0x08005f36:    bf00        ..      NOP      
        0x08005f38:    2200        ."      MOVS     r2,#0
        0x08005f3a:    a903        ..      ADD      r1,sp,#0xc
        0x08005f3c:    4804        .H      LDR      r0,[pc,#16] ; [0x8005f50] = 0x20000060
        0x08005f3e:    6800        .h      LDR      r0,[r0,#0]
        0x08005f40:    f001fad6    ....    BL       xQueueReceive ; 0x80074f0
        0x08005f44:    2800        .(      CMP      r0,#0
        0x08005f46:    f47faf74    ..t.    BNE      0x8005e32 ; prvProcessReceivedCommands + 6
        0x08005f4a:    b007        ..      ADD      sp,sp,#0x1c
        0x08005f4c:    bdf0        ..      POP      {r4-r7,pc}
    $d
        0x08005f4e:    0000        ..      DCW    0
        0x08005f50:    20000060    `..     DCD    536871008
    $t
    i.prvProcessTimerOrBlockTask
    prvProcessTimerOrBlockTask
        0x08005f54:    b5f8        ..      PUSH     {r3-r7,lr}
        0x08005f56:    4605        .F      MOV      r5,r0
        0x08005f58:    460c        .F      MOV      r4,r1
        0x08005f5a:    f000ff01    ....    BL       vTaskSuspendAll ; 0x8006d60
        0x08005f5e:    4668        hF      MOV      r0,sp
        0x08005f60:    f000f84c    ..L.    BL       prvSampleTimeNow ; 0x8005ffc
        0x08005f64:    4606        .F      MOV      r6,r0
        0x08005f66:    9800        ..      LDR      r0,[sp,#0]
        0x08005f68:    bb20         .      CBNZ     r0,0x8005fb4 ; prvProcessTimerOrBlockTask + 96
        0x08005f6a:    b944        D.      CBNZ     r4,0x8005f7e ; prvProcessTimerOrBlockTask + 42
        0x08005f6c:    42b5        .B      CMP      r5,r6
        0x08005f6e:    d806        ..      BHI      0x8005f7e ; prvProcessTimerOrBlockTask + 42
        0x08005f70:    f001feca    ....    BL       xTaskResumeAll ; 0x8007d08
        0x08005f74:    4631        1F      MOV      r1,r6
        0x08005f76:    4628        (F      MOV      r0,r5
        0x08005f78:    f7ffff26    ..&.    BL       prvProcessExpiredTimer ; 0x8005dc8
        0x08005f7c:    e01c        ..      B        0x8005fb8 ; prvProcessTimerOrBlockTask + 100
        0x08005f7e:    b13c        <.      CBZ      r4,0x8005f90 ; prvProcessTimerOrBlockTask + 60
        0x08005f80:    480e        .H      LDR      r0,[pc,#56] ; [0x8005fbc] = 0x2000005c
        0x08005f82:    6800        .h      LDR      r0,[r0,#0]
        0x08005f84:    6800        .h      LDR      r0,[r0,#0]
        0x08005f86:    b908        ..      CBNZ     r0,0x8005f8c ; prvProcessTimerOrBlockTask + 56
        0x08005f88:    2001        .       MOVS     r0,#1
        0x08005f8a:    e000        ..      B        0x8005f8e ; prvProcessTimerOrBlockTask + 58
        0x08005f8c:    2000        .       MOVS     r0,#0
        0x08005f8e:    4604        .F      MOV      r4,r0
        0x08005f90:    1ba9        ..      SUBS     r1,r5,r6
        0x08005f92:    4622        "F      MOV      r2,r4
        0x08005f94:    480a        .H      LDR      r0,[pc,#40] ; [0x8005fc0] = 0x20000060
        0x08005f96:    6800        .h      LDR      r0,[r0,#0]
        0x08005f98:    f000fc6c    ..l.    BL       vQueueWaitForMessageRestricted ; 0x8006874
        0x08005f9c:    f001feb4    ....    BL       xTaskResumeAll ; 0x8007d08
        0x08005fa0:    b950        P.      CBNZ     r0,0x8005fb8 ; prvProcessTimerOrBlockTask + 100
        0x08005fa2:    f04f5080    O..P    MOV      r0,#0x10000000
        0x08005fa6:    4907        .I      LDR      r1,[pc,#28] ; [0x8005fc4] = 0xe000ed04
        0x08005fa8:    6008        .`      STR      r0,[r1,#0]
        0x08005faa:    f3bf8f4f    ..O.    DSB      
        0x08005fae:    f3bf8f6f    ..o.    ISB      
        0x08005fb2:    e001        ..      B        0x8005fb8 ; prvProcessTimerOrBlockTask + 100
        0x08005fb4:    f001fea8    ....    BL       xTaskResumeAll ; 0x8007d08
        0x08005fb8:    bdf8        ..      POP      {r3-r7,pc}
    $d
        0x08005fba:    0000        ..      DCW    0
        0x08005fbc:    2000005c    \..     DCD    536871004
        0x08005fc0:    20000060    `..     DCD    536871008
        0x08005fc4:    e000ed04    ....    DCD    3758157060
    $t
    i.prvResetNextTaskUnblockTime
    prvResetNextTaskUnblockTime
        0x08005fc8:    490a        .I      LDR      r1,[pc,#40] ; [0x8005ff4] = 0x20000020
        0x08005fca:    6809        .h      LDR      r1,[r1,#0]
        0x08005fcc:    6809        .h      LDR      r1,[r1,#0]
        0x08005fce:    b909        ..      CBNZ     r1,0x8005fd4 ; prvResetNextTaskUnblockTime + 12
        0x08005fd0:    2101        .!      MOVS     r1,#1
        0x08005fd2:    e000        ..      B        0x8005fd6 ; prvResetNextTaskUnblockTime + 14
        0x08005fd4:    2100        .!      MOVS     r1,#0
        0x08005fd6:    b121        !.      CBZ      r1,0x8005fe2 ; prvResetNextTaskUnblockTime + 26
        0x08005fd8:    f04f31ff    O..1    MOV      r1,#0xffffffff
        0x08005fdc:    4a06        .J      LDR      r2,[pc,#24] ; [0x8005ff8] = 0x2000004c
        0x08005fde:    6011        .`      STR      r1,[r2,#0]
        0x08005fe0:    e006        ..      B        0x8005ff0 ; prvResetNextTaskUnblockTime + 40
        0x08005fe2:    4904        .I      LDR      r1,[pc,#16] ; [0x8005ff4] = 0x20000020
        0x08005fe4:    6809        .h      LDR      r1,[r1,#0]
        0x08005fe6:    68c9        .h      LDR      r1,[r1,#0xc]
        0x08005fe8:    68c8        .h      LDR      r0,[r1,#0xc]
        0x08005fea:    4a03        .J      LDR      r2,[pc,#12] ; [0x8005ff8] = 0x2000004c
        0x08005fec:    6841        Ah      LDR      r1,[r0,#4]
        0x08005fee:    6011        .`      STR      r1,[r2,#0]
        0x08005ff0:    4770        pG      BX       lr
    $d
        0x08005ff2:    0000        ..      DCW    0
        0x08005ff4:    20000020     ..     DCD    536870944
        0x08005ff8:    2000004c    L..     DCD    536870988
    $t
    i.prvSampleTimeNow
    prvSampleTimeNow
        0x08005ffc:    b570        p.      PUSH     {r4-r6,lr}
        0x08005ffe:    4604        .F      MOV      r4,r0
        0x08006000:    f001fcea    ....    BL       xTaskGetTickCount ; 0x80079d8
        0x08006004:    4605        .F      MOV      r5,r0
        0x08006006:    4807        .H      LDR      r0,[pc,#28] ; [0x8006024] = 0x20000068
        0x08006008:    6800        .h      LDR      r0,[r0,#0]
        0x0800600a:    4285        .B      CMP      r5,r0
        0x0800600c:    d204        ..      BCS      0x8006018 ; prvSampleTimeNow + 28
        0x0800600e:    f000f80b    ....    BL       prvSwitchTimerLists ; 0x8006028
        0x08006012:    2001        .       MOVS     r0,#1
        0x08006014:    6020         `      STR      r0,[r4,#0]
        0x08006016:    e001        ..      B        0x800601c ; prvSampleTimeNow + 32
        0x08006018:    2000        .       MOVS     r0,#0
        0x0800601a:    6020         `      STR      r0,[r4,#0]
        0x0800601c:    4801        .H      LDR      r0,[pc,#4] ; [0x8006024] = 0x20000068
        0x0800601e:    6005        .`      STR      r5,[r0,#0]
        0x08006020:    4628        (F      MOV      r0,r5
        0x08006022:    bd70        p.      POP      {r4-r6,pc}
    $d
        0x08006024:    20000068    h..     DCD    536871016
    $t
    i.prvSwitchTimerLists
    prvSwitchTimerLists
        0x08006028:    e92d43f8    -..C    PUSH     {r3-r9,lr}
        0x0800602c:    e032        2.      B        0x8006094 ; prvSwitchTimerLists + 108
        0x0800602e:    4824        $H      LDR      r0,[pc,#144] ; [0x80060c0] = 0x20000058
        0x08006030:    6800        .h      LDR      r0,[r0,#0]
        0x08006032:    68c0        .h      LDR      r0,[r0,#0xc]
        0x08006034:    6805        .h      LDR      r5,[r0,#0]
        0x08006036:    4822        "H      LDR      r0,[pc,#136] ; [0x80060c0] = 0x20000058
        0x08006038:    6800        .h      LDR      r0,[r0,#0]
        0x0800603a:    68c0        .h      LDR      r0,[r0,#0xc]
        0x0800603c:    68c4        .h      LDR      r4,[r0,#0xc]
        0x0800603e:    1d20         .      ADDS     r0,r4,#4
        0x08006040:    f000fabe    ....    BL       uxListRemove ; 0x80065c0
        0x08006044:    4620         F      MOV      r0,r4
        0x08006046:    6a61        aj      LDR      r1,[r4,#0x24]
        0x08006048:    4788        .G      BLX      r1
        0x0800604a:    69e0        .i      LDR      r0,[r4,#0x1c]
        0x0800604c:    2801        .(      CMP      r0,#1
        0x0800604e:    d121        !.      BNE      0x8006094 ; prvSwitchTimerLists + 108
        0x08006050:    69a0        .i      LDR      r0,[r4,#0x18]
        0x08006052:    1946        F.      ADDS     r6,r0,r5
        0x08006054:    42ae        .B      CMP      r6,r5
        0x08006056:    d907        ..      BLS      0x8006068 ; prvSwitchTimerLists + 64
        0x08006058:    6066        f`      STR      r6,[r4,#4]
        0x0800605a:    6124        $a      STR      r4,[r4,#0x10]
        0x0800605c:    1d21        !.      ADDS     r1,r4,#4
        0x0800605e:    4818        .H      LDR      r0,[pc,#96] ; [0x80060c0] = 0x20000058
        0x08006060:    6800        .h      LDR      r0,[r0,#0]
        0x08006062:    f000fae9    ....    BL       vListInsert ; 0x8006638
        0x08006066:    e015        ..      B        0x8006094 ; prvSwitchTimerLists + 108
        0x08006068:    2000        .       MOVS     r0,#0
        0x0800606a:    4603        .F      MOV      r3,r0
        0x0800606c:    462a        *F      MOV      r2,r5
        0x0800606e:    4601        .F      MOV      r1,r0
        0x08006070:    9000        ..      STR      r0,[sp,#0]
        0x08006072:    4620         F      MOV      r0,r4
        0x08006074:    f001ff06    ....    BL       xTimerGenericCommand ; 0x8007e84
        0x08006078:    4607        .F      MOV      r7,r0
        0x0800607a:    b957        W.      CBNZ     r7,0x8006092 ; prvSwitchTimerLists + 106
        0x0800607c:    bf00        ..      NOP      
        0x0800607e:    2050        P       MOVS     r0,#0x50
        0x08006080:    f3808811    ....    MSR      BASEPRI,r0
        0x08006084:    f3bf8f4f    ..O.    DSB      
        0x08006088:    f3bf8f6f    ..o.    ISB      
        0x0800608c:    bf00        ..      NOP      
        0x0800608e:    bf00        ..      NOP      
        0x08006090:    e7fe        ..      B        0x8006090 ; prvSwitchTimerLists + 104
        0x08006092:    bf00        ..      NOP      
        0x08006094:    480a        .H      LDR      r0,[pc,#40] ; [0x80060c0] = 0x20000058
        0x08006096:    6800        .h      LDR      r0,[r0,#0]
        0x08006098:    6800        .h      LDR      r0,[r0,#0]
        0x0800609a:    b908        ..      CBNZ     r0,0x80060a0 ; prvSwitchTimerLists + 120
        0x0800609c:    2001        .       MOVS     r0,#1
        0x0800609e:    e000        ..      B        0x80060a2 ; prvSwitchTimerLists + 122
        0x080060a0:    2000        .       MOVS     r0,#0
        0x080060a2:    2800        .(      CMP      r0,#0
        0x080060a4:    d0c3        ..      BEQ      0x800602e ; prvSwitchTimerLists + 6
        0x080060a6:    4806        .H      LDR      r0,[pc,#24] ; [0x80060c0] = 0x20000058
        0x080060a8:    f8d08000    ....    LDR      r8,[r0,#0]
        0x080060ac:    4805        .H      LDR      r0,[pc,#20] ; [0x80060c4] = 0x2000005c
        0x080060ae:    6800        .h      LDR      r0,[r0,#0]
        0x080060b0:    4903        .I      LDR      r1,[pc,#12] ; [0x80060c0] = 0x20000058
        0x080060b2:    6008        .`      STR      r0,[r1,#0]
        0x080060b4:    4803        .H      LDR      r0,[pc,#12] ; [0x80060c4] = 0x2000005c
        0x080060b6:    f8c08000    ....    STR      r8,[r0,#0]
        0x080060ba:    e8bd83f8    ....    POP      {r3-r9,pc}
    $d
        0x080060be:    0000        ..      DCW    0
        0x080060c0:    20000058    X..     DCD    536871000
        0x080060c4:    2000005c    \..     DCD    536871004
    $t
    i.prvTaskExitError
    prvTaskExitError
        0x080060c8:    480e        .H      LDR      r0,[pc,#56] ; [0x8006104] = 0x20000088
        0x080060ca:    6800        .h      LDR      r0,[r0,#0]
        0x080060cc:    1c40        @.      ADDS     r0,r0,#1
        0x080060ce:    b908        ..      CBNZ     r0,0x80060d4 ; prvTaskExitError + 12
        0x080060d0:    2001        .       MOVS     r0,#1
        0x080060d2:    e000        ..      B        0x80060d6 ; prvTaskExitError + 14
        0x080060d4:    2000        .       MOVS     r0,#0
        0x080060d6:    b950        P.      CBNZ     r0,0x80060ee ; prvTaskExitError + 38
        0x080060d8:    bf00        ..      NOP      
        0x080060da:    2050        P       MOVS     r0,#0x50
        0x080060dc:    f3808811    ....    MSR      BASEPRI,r0
        0x080060e0:    f3bf8f4f    ..O.    DSB      
        0x080060e4:    f3bf8f6f    ..o.    ISB      
        0x080060e8:    bf00        ..      NOP      
        0x080060ea:    bf00        ..      NOP      
        0x080060ec:    e7fe        ..      B        0x80060ec ; prvTaskExitError + 36
        0x080060ee:    bf00        ..      NOP      
        0x080060f0:    2050        P       MOVS     r0,#0x50
        0x080060f2:    f3808811    ....    MSR      BASEPRI,r0
        0x080060f6:    f3bf8f4f    ..O.    DSB      
        0x080060fa:    f3bf8f6f    ..o.    ISB      
        0x080060fe:    bf00        ..      NOP      
        0x08006100:    bf00        ..      NOP      
        0x08006102:    e7fe        ..      B        0x8006102 ; prvTaskExitError + 58
    $d
        0x08006104:    20000088    ...     DCD    536871048
    $t
    i.prvTaskIsTaskSuspended
    prvTaskIsTaskSuspended
        0x08006108:    b510        ..      PUSH     {r4,lr}
        0x0800610a:    4602        .F      MOV      r2,r0
        0x0800610c:    2000        .       MOVS     r0,#0
        0x0800610e:    4611        .F      MOV      r1,r2
        0x08006110:    b952        R.      CBNZ     r2,0x8006128 ; prvTaskIsTaskSuspended + 32
        0x08006112:    bf00        ..      NOP      
        0x08006114:    2350        P#      MOVS     r3,#0x50
        0x08006116:    f3838811    ....    MSR      BASEPRI,r3
        0x0800611a:    f3bf8f4f    ..O.    DSB      
        0x0800611e:    f3bf8f6f    ..o.    ISB      
        0x08006122:    bf00        ..      NOP      
        0x08006124:    bf00        ..      NOP      
        0x08006126:    e7fe        ..      B        0x8006126 ; prvTaskIsTaskSuspended + 30
        0x08006128:    4c0b        .L      LDR      r4,[pc,#44] ; [0x8006158] = 0x20000a80
        0x0800612a:    694b        Ki      LDR      r3,[r1,#0x14]
        0x0800612c:    42a3        .B      CMP      r3,r4
        0x0800612e:    d101        ..      BNE      0x8006134 ; prvTaskIsTaskSuspended + 44
        0x08006130:    2301        .#      MOVS     r3,#1
        0x08006132:    e000        ..      B        0x8006136 ; prvTaskIsTaskSuspended + 46
        0x08006134:    2300        .#      MOVS     r3,#0
        0x08006136:    b173        s.      CBZ      r3,0x8006156 ; prvTaskIsTaskSuspended + 78
        0x08006138:    4c08        .L      LDR      r4,[pc,#32] ; [0x800615c] = 0x20000a58
        0x0800613a:    6a8b        .j      LDR      r3,[r1,#0x28]
        0x0800613c:    42a3        .B      CMP      r3,r4
        0x0800613e:    d101        ..      BNE      0x8006144 ; prvTaskIsTaskSuspended + 60
        0x08006140:    2301        .#      MOVS     r3,#1
        0x08006142:    e000        ..      B        0x8006146 ; prvTaskIsTaskSuspended + 62
        0x08006144:    2300        .#      MOVS     r3,#0
        0x08006146:    b933        3.      CBNZ     r3,0x8006156 ; prvTaskIsTaskSuspended + 78
        0x08006148:    6a8b        .j      LDR      r3,[r1,#0x28]
        0x0800614a:    b90b        ..      CBNZ     r3,0x8006150 ; prvTaskIsTaskSuspended + 72
        0x0800614c:    2301        .#      MOVS     r3,#1
        0x0800614e:    e000        ..      B        0x8006152 ; prvTaskIsTaskSuspended + 74
        0x08006150:    2300        .#      MOVS     r3,#0
        0x08006152:    b103        ..      CBZ      r3,0x8006156 ; prvTaskIsTaskSuspended + 78
        0x08006154:    2001        .       MOVS     r0,#1
        0x08006156:    bd10        ..      POP      {r4,pc}
    $d
        0x08006158:    20000a80    ...     DCD    536873600
        0x0800615c:    20000a58    X..     DCD    536873560
    $t
    i.prvTimerTask
    prvTimerTask
        0x08006160:    b508        ..      PUSH     {r3,lr}
        0x08006162:    bf00        ..      NOP      
        0x08006164:    4668        hF      MOV      r0,sp
        0x08006166:    f7fffca9    ....    BL       prvGetNextExpireTime ; 0x8005abc
        0x0800616a:    4604        .F      MOV      r4,r0
        0x0800616c:    4620         F      MOV      r0,r4
        0x0800616e:    9900        ..      LDR      r1,[sp,#0]
        0x08006170:    f7fffef0    ....    BL       prvProcessTimerOrBlockTask ; 0x8005f54
        0x08006174:    f7fffe5a    ..Z.    BL       prvProcessReceivedCommands ; 0x8005e2c
        0x08006178:    e7f4        ..      B        0x8006164 ; prvTimerTask + 4
    i.prvUnlockQueue
    prvUnlockQueue
        0x0800617a:    b570        p.      PUSH     {r4-r6,lr}
        0x0800617c:    4604        .F      MOV      r4,r0
        0x0800617e:    f000fa81    ....    BL       vPortEnterCritical ; 0x8006684
        0x08006182:    f9945045    ..EP    LDRSB    r5,[r4,#0x45]
        0x08006186:    e010        ..      B        0x80061aa ; prvUnlockQueue + 48
        0x08006188:    6a60        `j      LDR      r0,[r4,#0x24]
        0x0800618a:    b908        ..      CBNZ     r0,0x8006190 ; prvUnlockQueue + 22
        0x0800618c:    2001        .       MOVS     r0,#1
        0x0800618e:    e000        ..      B        0x8006192 ; prvUnlockQueue + 24
        0x08006190:    2000        .       MOVS     r0,#0
        0x08006192:    b938        8.      CBNZ     r0,0x80061a4 ; prvUnlockQueue + 42
        0x08006194:    f1040024    ..$.    ADD      r0,r4,#0x24
        0x08006198:    f001fd6a    ..j.    BL       xTaskRemoveFromEventList ; 0x8007c70
        0x0800619c:    b118        ..      CBZ      r0,0x80061a6 ; prvUnlockQueue + 44
        0x0800619e:    f000fc2d    ..-.    BL       vTaskMissedYield ; 0x80069fc
        0x080061a2:    e000        ..      B        0x80061a6 ; prvUnlockQueue + 44
        0x080061a4:    e003        ..      B        0x80061ae ; prvUnlockQueue + 52
        0x080061a6:    1e68        h.      SUBS     r0,r5,#1
        0x080061a8:    b245        E.      SXTB     r5,r0
        0x080061aa:    2d00        .-      CMP      r5,#0
        0x080061ac:    dcec        ..      BGT      0x8006188 ; prvUnlockQueue + 14
        0x080061ae:    bf00        ..      NOP      
        0x080061b0:    20ff        .       MOVS     r0,#0xff
        0x080061b2:    f8840045    ..E.    STRB     r0,[r4,#0x45]
        0x080061b6:    f000fa8f    ....    BL       vPortExitCritical ; 0x80066d8
        0x080061ba:    f000fa63    ..c.    BL       vPortEnterCritical ; 0x8006684
        0x080061be:    f9945044    ..DP    LDRSB    r5,[r4,#0x44]
        0x080061c2:    e010        ..      B        0x80061e6 ; prvUnlockQueue + 108
        0x080061c4:    6920         i      LDR      r0,[r4,#0x10]
        0x080061c6:    b908        ..      CBNZ     r0,0x80061cc ; prvUnlockQueue + 82
        0x080061c8:    2001        .       MOVS     r0,#1
        0x080061ca:    e000        ..      B        0x80061ce ; prvUnlockQueue + 84
        0x080061cc:    2000        .       MOVS     r0,#0
        0x080061ce:    b948        H.      CBNZ     r0,0x80061e4 ; prvUnlockQueue + 106
        0x080061d0:    f1040010    ....    ADD      r0,r4,#0x10
        0x080061d4:    f001fd4c    ..L.    BL       xTaskRemoveFromEventList ; 0x8007c70
        0x080061d8:    b108        ..      CBZ      r0,0x80061de ; prvUnlockQueue + 100
        0x080061da:    f000fc0f    ....    BL       vTaskMissedYield ; 0x80069fc
        0x080061de:    1e68        h.      SUBS     r0,r5,#1
        0x080061e0:    b245        E.      SXTB     r5,r0
        0x080061e2:    e000        ..      B        0x80061e6 ; prvUnlockQueue + 108
        0x080061e4:    e001        ..      B        0x80061ea ; prvUnlockQueue + 112
        0x080061e6:    2d00        .-      CMP      r5,#0
        0x080061e8:    dcec        ..      BGT      0x80061c4 ; prvUnlockQueue + 74
        0x080061ea:    bf00        ..      NOP      
        0x080061ec:    20ff        .       MOVS     r0,#0xff
        0x080061ee:    f8840044    ..D.    STRB     r0,[r4,#0x44]
        0x080061f2:    f000fa71    ..q.    BL       vPortExitCritical ; 0x80066d8
        0x080061f6:    bd70        p.      POP      {r4-r6,pc}
    i.pvPortMalloc
    pvPortMalloc
        0x080061f8:    e92d41f0    -..A    PUSH     {r4-r8,lr}
        0x080061fc:    4604        .F      MOV      r4,r0
        0x080061fe:    f04f0800    O...    MOV      r8,#0
        0x08006202:    f000fdad    ....    BL       vTaskSuspendAll ; 0x8006d60
        0x08006206:    4846        FH      LDR      r0,[pc,#280] ; [0x8006320] = 0x20000078
        0x08006208:    6800        .h      LDR      r0,[r0,#0]
        0x0800620a:    b908        ..      CBNZ     r0,0x8006210 ; pvPortMalloc + 24
        0x0800620c:    f7fffc6a    ..j.    BL       prvHeapInit ; 0x8005ae4
        0x08006210:    4844        DH      LDR      r0,[pc,#272] ; [0x8006324] = 0x20000084
        0x08006212:    6800        .h      LDR      r0,[r0,#0]
        0x08006214:    4020         @      ANDS     r0,r0,r4
        0x08006216:    2800        .(      CMP      r0,#0
        0x08006218:    d16b        k.      BNE      0x80062f2 ; pvPortMalloc + 250
        0x0800621a:    b1d4        ..      CBZ      r4,0x8006252 ; pvPortMalloc + 90
        0x0800621c:    3408        .4      ADDS     r4,r4,#8
        0x0800621e:    f0040007    ....    AND      r0,r4,#7
        0x08006222:    b1b0        ..      CBZ      r0,0x8006252 ; pvPortMalloc + 90
        0x08006224:    f0040007    ....    AND      r0,r4,#7
        0x08006228:    f1c00008    ....    RSB      r0,r0,#8
        0x0800622c:    4404        .D      ADD      r4,r4,r0
        0x0800622e:    f0040007    ....    AND      r0,r4,#7
        0x08006232:    b908        ..      CBNZ     r0,0x8006238 ; pvPortMalloc + 64
        0x08006234:    2001        .       MOVS     r0,#1
        0x08006236:    e000        ..      B        0x800623a ; pvPortMalloc + 66
        0x08006238:    2000        .       MOVS     r0,#0
        0x0800623a:    b950        P.      CBNZ     r0,0x8006252 ; pvPortMalloc + 90
        0x0800623c:    bf00        ..      NOP      
        0x0800623e:    2050        P       MOVS     r0,#0x50
        0x08006240:    f3808811    ....    MSR      BASEPRI,r0
        0x08006244:    f3bf8f4f    ..O.    DSB      
        0x08006248:    f3bf8f6f    ..o.    ISB      
        0x0800624c:    bf00        ..      NOP      
        0x0800624e:    bf00        ..      NOP      
        0x08006250:    e7fe        ..      B        0x8006250 ; pvPortMalloc + 88
        0x08006252:    2c00        .,      CMP      r4,#0
        0x08006254:    d04d        M.      BEQ      0x80062f2 ; pvPortMalloc + 250
        0x08006256:    4834        4H      LDR      r0,[pc,#208] ; [0x8006328] = 0x2000007c
        0x08006258:    6800        .h      LDR      r0,[r0,#0]
        0x0800625a:    4284        .B      CMP      r4,r0
        0x0800625c:    d849        I.      BHI      0x80062f2 ; pvPortMalloc + 250
        0x0800625e:    4e33        3N      LDR      r6,[pc,#204] ; [0x800632c] = 0x20000070
        0x08006260:    4630        0F      MOV      r0,r6
        0x08006262:    6805        .h      LDR      r5,[r0,#0]
        0x08006264:    e001        ..      B        0x800626a ; pvPortMalloc + 114
        0x08006266:    462e        .F      MOV      r6,r5
        0x08006268:    682d        -h      LDR      r5,[r5,#0]
        0x0800626a:    6868        hh      LDR      r0,[r5,#4]
        0x0800626c:    42a0        .B      CMP      r0,r4
        0x0800626e:    d202        ..      BCS      0x8006276 ; pvPortMalloc + 126
        0x08006270:    6828        (h      LDR      r0,[r5,#0]
        0x08006272:    2800        .(      CMP      r0,#0
        0x08006274:    d1f7        ..      BNE      0x8006266 ; pvPortMalloc + 110
        0x08006276:    482a        *H      LDR      r0,[pc,#168] ; [0x8006320] = 0x20000078
        0x08006278:    6800        .h      LDR      r0,[r0,#0]
        0x0800627a:    4285        .B      CMP      r5,r0
        0x0800627c:    d039        9.      BEQ      0x80062f2 ; pvPortMalloc + 250
        0x0800627e:    6830        0h      LDR      r0,[r6,#0]
        0x08006280:    f1000808    ....    ADD      r8,r0,#8
        0x08006284:    6828        (h      LDR      r0,[r5,#0]
        0x08006286:    6030        0`      STR      r0,[r6,#0]
        0x08006288:    6868        hh      LDR      r0,[r5,#4]
        0x0800628a:    1b00        ..      SUBS     r0,r0,r4
        0x0800628c:    2810        .(      CMP      r0,#0x10
        0x0800628e:    d919        ..      BLS      0x80062c4 ; pvPortMalloc + 204
        0x08006290:    192f        /.      ADDS     r7,r5,r4
        0x08006292:    f0070007    ....    AND      r0,r7,#7
        0x08006296:    b908        ..      CBNZ     r0,0x800629c ; pvPortMalloc + 164
        0x08006298:    2001        .       MOVS     r0,#1
        0x0800629a:    e000        ..      B        0x800629e ; pvPortMalloc + 166
        0x0800629c:    2000        .       MOVS     r0,#0
        0x0800629e:    b950        P.      CBNZ     r0,0x80062b6 ; pvPortMalloc + 190
        0x080062a0:    bf00        ..      NOP      
        0x080062a2:    2050        P       MOVS     r0,#0x50
        0x080062a4:    f3808811    ....    MSR      BASEPRI,r0
        0x080062a8:    f3bf8f4f    ..O.    DSB      
        0x080062ac:    f3bf8f6f    ..o.    ISB      
        0x080062b0:    bf00        ..      NOP      
        0x080062b2:    bf00        ..      NOP      
        0x080062b4:    e7fe        ..      B        0x80062b4 ; pvPortMalloc + 188
        0x080062b6:    6868        hh      LDR      r0,[r5,#4]
        0x080062b8:    1b00        ..      SUBS     r0,r0,r4
        0x080062ba:    6078        x`      STR      r0,[r7,#4]
        0x080062bc:    606c        l`      STR      r4,[r5,#4]
        0x080062be:    4638        8F      MOV      r0,r7
        0x080062c0:    f7fffd06    ....    BL       prvInsertBlockIntoFreeList ; 0x8005cd0
        0x080062c4:    4918        .I      LDR      r1,[pc,#96] ; [0x8006328] = 0x2000007c
        0x080062c6:    6868        hh      LDR      r0,[r5,#4]
        0x080062c8:    6809        .h      LDR      r1,[r1,#0]
        0x080062ca:    1a08        ..      SUBS     r0,r1,r0
        0x080062cc:    4916        .I      LDR      r1,[pc,#88] ; [0x8006328] = 0x2000007c
        0x080062ce:    6008        .`      STR      r0,[r1,#0]
        0x080062d0:    4608        .F      MOV      r0,r1
        0x080062d2:    6800        .h      LDR      r0,[r0,#0]
        0x080062d4:    4916        .I      LDR      r1,[pc,#88] ; [0x8006330] = 0x20000080
        0x080062d6:    6809        .h      LDR      r1,[r1,#0]
        0x080062d8:    4288        .B      CMP      r0,r1
        0x080062da:    d203        ..      BCS      0x80062e4 ; pvPortMalloc + 236
        0x080062dc:    4812        .H      LDR      r0,[pc,#72] ; [0x8006328] = 0x2000007c
        0x080062de:    6800        .h      LDR      r0,[r0,#0]
        0x080062e0:    4913        .I      LDR      r1,[pc,#76] ; [0x8006330] = 0x20000080
        0x080062e2:    6008        .`      STR      r0,[r1,#0]
        0x080062e4:    490f        .I      LDR      r1,[pc,#60] ; [0x8006324] = 0x20000084
        0x080062e6:    6868        hh      LDR      r0,[r5,#4]
        0x080062e8:    6809        .h      LDR      r1,[r1,#0]
        0x080062ea:    4308        .C      ORRS     r0,r0,r1
        0x080062ec:    6068        h`      STR      r0,[r5,#4]
        0x080062ee:    2000        .       MOVS     r0,#0
        0x080062f0:    6028        (`      STR      r0,[r5,#0]
        0x080062f2:    f001fd09    ....    BL       xTaskResumeAll ; 0x8007d08
        0x080062f6:    f0080007    ....    AND      r0,r8,#7
        0x080062fa:    b908        ..      CBNZ     r0,0x8006300 ; pvPortMalloc + 264
        0x080062fc:    2001        .       MOVS     r0,#1
        0x080062fe:    e000        ..      B        0x8006302 ; pvPortMalloc + 266
        0x08006300:    2000        .       MOVS     r0,#0
        0x08006302:    b950        P.      CBNZ     r0,0x800631a ; pvPortMalloc + 290
        0x08006304:    bf00        ..      NOP      
        0x08006306:    2050        P       MOVS     r0,#0x50
        0x08006308:    f3808811    ....    MSR      BASEPRI,r0
        0x0800630c:    f3bf8f4f    ..O.    DSB      
        0x08006310:    f3bf8f6f    ..o.    ISB      
        0x08006314:    bf00        ..      NOP      
        0x08006316:    bf00        ..      NOP      
        0x08006318:    e7fe        ..      B        0x8006318 ; pvPortMalloc + 288
        0x0800631a:    4640        @F      MOV      r0,r8
        0x0800631c:    e8bd81f0    ....    POP      {r4-r8,pc}
    $d
        0x08006320:    20000078    x..     DCD    536871032
        0x08006324:    20000084    ...     DCD    536871044
        0x08006328:    2000007c    |..     DCD    536871036
        0x0800632c:    20000070    p..     DCD    536871024
        0x08006330:    20000080    ...     DCD    536871040
    $t
    i.pvTaskIncrementMutexHeldCount
    pvTaskIncrementMutexHeldCount
        0x08006334:    4806        .H      LDR      r0,[pc,#24] ; [0x8006350] = 0x2000001c
        0x08006336:    6800        .h      LDR      r0,[r0,#0]
        0x08006338:    b130        0.      CBZ      r0,0x8006348 ; pvTaskIncrementMutexHeldCount + 20
        0x0800633a:    4905        .I      LDR      r1,[pc,#20] ; [0x8006350] = 0x2000001c
        0x0800633c:    6809        .h      LDR      r1,[r1,#0]
        0x0800633e:    f1010050    ..P.    ADD      r0,r1,#0x50
        0x08006342:    6d09        .m      LDR      r1,[r1,#0x50]
        0x08006344:    1c49        I.      ADDS     r1,r1,#1
        0x08006346:    6001        .`      STR      r1,[r0,#0]
        0x08006348:    4801        .H      LDR      r0,[pc,#4] ; [0x8006350] = 0x2000001c
        0x0800634a:    6800        .h      LDR      r0,[r0,#0]
        0x0800634c:    4770        pG      BX       lr
    $d
        0x0800634e:    0000        ..      DCW    0
        0x08006350:    2000001c    ...     DCD    536870940
    $t
    i.pxPortInitialiseStack
    pxPortInitialiseStack
        0x08006354:    1f00        ..      SUBS     r0,r0,#4
        0x08006356:    f04f7380    O..s    MOV      r3,#0x1000000
        0x0800635a:    6003        .`      STR      r3,[r0,#0]
        0x0800635c:    1f00        ..      SUBS     r0,r0,#4
        0x0800635e:    f0210301    !...    BIC      r3,r1,#1
        0x08006362:    6003        .`      STR      r3,[r0,#0]
        0x08006364:    1f00        ..      SUBS     r0,r0,#4
        0x08006366:    4b03        .K      LDR      r3,[pc,#12] ; [0x8006374] = 0x80060c9
        0x08006368:    6003        .`      STR      r3,[r0,#0]
        0x0800636a:    3814        .8      SUBS     r0,r0,#0x14
        0x0800636c:    6002        .`      STR      r2,[r0,#0]
        0x0800636e:    3820         8      SUBS     r0,r0,#0x20
        0x08006370:    4770        pG      BX       lr
    $d
        0x08006372:    0000        ..      DCW    0
        0x08006374:    080060c9    .`..    DCD    134242505
    $t
    i.random_number
    random_number
        0x08006378:    b510        ..      PUSH     {r4,lr}
        0x0800637a:    f7fffa02    ....    BL       platform_timer_now ; 0x8005782
        0x0800637e:    4604        .F      MOV      r4,r0
        0x08006380:    480a        .H      LDR      r0,[pc,#40] ; [0x80063ac] = 0x20000094
        0x08006382:    6800        .h      LDR      r0,[r0,#0]
        0x08006384:    4060        `@      EORS     r0,r0,r4
        0x08006386:    2103        .!      MOVS     r1,#3
        0x08006388:    fbb0f2f1    ....    UDIV     r2,r0,r1
        0x0800638c:    fb010012    ....    MLS      r0,r1,r2,r0
        0x08006390:    fa24f000    $...    LSR      r0,r4,r0
        0x08006394:    4905        .I      LDR      r1,[pc,#20] ; [0x80063ac] = 0x20000094
        0x08006396:    6809        .h      LDR      r1,[r1,#0]
        0x08006398:    4408        .D      ADD      r0,r0,r1
        0x0800639a:    4904        .I      LDR      r1,[pc,#16] ; [0x80063ac] = 0x20000094
        0x0800639c:    6008        .`      STR      r0,[r1,#0]
        0x0800639e:    6809        .h      LDR      r1,[r1,#0]
        0x080063a0:    ea810004    ....    EOR      r0,r1,r4
        0x080063a4:    f7fcffce    ....    BL       do_random ; 0x8003344
        0x080063a8:    bd10        ..      POP      {r4,pc}
    $d
        0x080063aa:    0000        ..      DCW    0
        0x080063ac:    20000094    ...     DCD    536871060
    $t
    i.random_string
    random_string
        0x080063b0:    e92d47f0    -..G    PUSH     {r4-r10,lr}
        0x080063b4:    4680        .F      MOV      r8,r0
        0x080063b6:    f1080001    ....    ADD      r0,r8,#1
        0x080063ba:    f7fff817    ....    BL       platform_memory_alloc ; 0x80053ec
        0x080063be:    4606        .F      MOV      r6,r0
        0x080063c0:    b916        ..      CBNZ     r6,0x80063c8 ; random_string + 24
        0x080063c2:    2000        .       MOVS     r0,#0
        0x080063c4:    e8bd87f0    ....    POP      {r4-r10,pc}
        0x080063c8:    f7ffffd6    ....    BL       random_number ; 0x8006378
        0x080063cc:    4681        .F      MOV      r9,r0
        0x080063ce:    ea860009    ....    EOR      r0,r6,r9
        0x080063d2:    4481        .D      ADD      r9,r9,r0
        0x080063d4:    4648        HF      MOV      r0,r9
        0x080063d6:    f7fcffb5    ....    BL       do_random ; 0x8003344
        0x080063da:    4605        .F      MOV      r5,r0
        0x080063dc:    2400        .$      MOVS     r4,#0
        0x080063de:    e045        E.      B        0x800646c ; random_string + 188
        0x080063e0:    ea890005    ....    EOR      r0,r9,r5
        0x080063e4:    f7fcffae    ....    BL       do_random ; 0x8003344
        0x080063e8:    4605        .F      MOV      r5,r0
        0x080063ea:    2003        .       MOVS     r0,#3
        0x080063ec:    fbb5f1f0    ....    UDIV     r1,r5,r0
        0x080063f0:    fb005711    ...W    MLS      r7,r0,r1,r5
        0x080063f4:    b127        '.      CBZ      r7,0x8006400 ; random_string + 80
        0x080063f6:    2f01        ./      CMP      r7,#1
        0x080063f8:    d010        ..      BEQ      0x800641c ; random_string + 108
        0x080063fa:    2f02        ./      CMP      r7,#2
        0x080063fc:    d12a        *.      BNE      0x8006454 ; random_string + 164
        0x080063fe:    e01b        ..      B        0x8006438 ; random_string + 136
        0x08006400:    ea040107    ....    AND      r1,r4,r7
        0x08006404:    ea810005    ....    EOR      r0,r1,r5
        0x08006408:    f7fcff9c    ....    BL       do_random ; 0x8003344
        0x0800640c:    211a        .!      MOVS     r1,#0x1a
        0x0800640e:    fb90f2f1    ....    SDIV     r2,r0,r1
        0x08006412:    fb010012    ....    MLS      r0,r1,r2,r0
        0x08006416:    3041        A0      ADDS     r0,r0,#0x41
        0x08006418:    5530        0U      STRB     r0,[r6,r4]
        0x0800641a:    e01e        ..      B        0x800645a ; random_string + 170
        0x0800641c:    ea040107    ....    AND      r1,r4,r7
        0x08006420:    ea810005    ....    EOR      r0,r1,r5
        0x08006424:    f7fcff8e    ....    BL       do_random ; 0x8003344
        0x08006428:    211a        .!      MOVS     r1,#0x1a
        0x0800642a:    fb90f2f1    ....    SDIV     r2,r0,r1
        0x0800642e:    fb010012    ....    MLS      r0,r1,r2,r0
        0x08006432:    3061        a0      ADDS     r0,r0,#0x61
        0x08006434:    5530        0U      STRB     r0,[r6,r4]
        0x08006436:    e010        ..      B        0x800645a ; random_string + 170
        0x08006438:    ea040107    ....    AND      r1,r4,r7
        0x0800643c:    ea810005    ....    EOR      r0,r1,r5
        0x08006440:    f7fcff80    ....    BL       do_random ; 0x8003344
        0x08006444:    210a        .!      MOVS     r1,#0xa
        0x08006446:    fb90f2f1    ....    SDIV     r2,r0,r1
        0x0800644a:    fb010012    ....    MLS      r0,r1,r2,r0
        0x0800644e:    3030        00      ADDS     r0,r0,#0x30
        0x08006450:    5530        0U      STRB     r0,[r6,r4]
        0x08006452:    e002        ..      B        0x800645a ; random_string + 170
        0x08006454:    2078        x       MOVS     r0,#0x78
        0x08006456:    5530        0U      STRB     r0,[r6,r4]
        0x08006458:    bf00        ..      NOP      
        0x0800645a:    bf00        ..      NOP      
        0x0800645c:    4907        .I      LDR      r1,[pc,#28] ; [0x800647c] = 0xb433e5c6
        0x0800645e:    ea850001    ....    EOR      r0,r5,r1
        0x08006462:    ea040107    ....    AND      r1,r4,r7
        0x08006466:    4088        .@      LSLS     r0,r0,r1
        0x08006468:    4405        .D      ADD      r5,r5,r0
        0x0800646a:    1c64        d.      ADDS     r4,r4,#1
        0x0800646c:    4544        DE      CMP      r4,r8
        0x0800646e:    d3b7        ..      BCC      0x80063e0 ; random_string + 48
        0x08006470:    2000        .       MOVS     r0,#0
        0x08006472:    f8060008    ....    STRB     r0,[r6,r8]
        0x08006476:    4630        0F      MOV      r0,r6
        0x08006478:    e7a4        ..      B        0x80063c4 ; random_string + 20
    $d
        0x0800647a:    0000        ..      DCW    0
        0x0800647c:    b433e5c6    ..3.    DCD    3023300038
    $t
    i.readChar
    readChar
        0x08006480:    4601        .F      MOV      r1,r0
        0x08006482:    680a        .h      LDR      r2,[r1,#0]
        0x08006484:    7810        .x      LDRB     r0,[r2,#0]
        0x08006486:    680a        .h      LDR      r2,[r1,#0]
        0x08006488:    1c52        R.      ADDS     r2,r2,#1
        0x0800648a:    600a        .`      STR      r2,[r1,#0]
        0x0800648c:    4770        pG      BX       lr
    i.readInt
    readInt
        0x0800648e:    b530        0.      PUSH     {r4,r5,lr}
        0x08006490:    4601        .F      MOV      r1,r0
        0x08006492:    680a        .h      LDR      r2,[r1,#0]
        0x08006494:    7853        Sx      LDRB     r3,[r2,#1]
        0x08006496:    7814        .x      LDRB     r4,[r2,#0]
        0x08006498:    f44f7580    O..u    MOV      r5,#0x100
        0x0800649c:    fb053004    ...0    MLA      r0,r5,r4,r3
        0x080064a0:    680b        .h      LDR      r3,[r1,#0]
        0x080064a2:    1c9b        ..      ADDS     r3,r3,#2
        0x080064a4:    600b        .`      STR      r3,[r1,#0]
        0x080064a6:    bd30        0.      POP      {r4,r5,pc}
    i.readMQTTLenString
    readMQTTLenString
        0x080064a8:    b5f0        ..      PUSH     {r4-r7,lr}
        0x080064aa:    4605        .F      MOV      r5,r0
        0x080064ac:    460c        .F      MOV      r4,r1
        0x080064ae:    4616        .F      MOV      r6,r2
        0x080064b0:    2700        .'      MOVS     r7,#0
        0x080064b2:    6820         h      LDR      r0,[r4,#0]
        0x080064b4:    1a30        0.      SUBS     r0,r6,r0
        0x080064b6:    2801        .(      CMP      r0,#1
        0x080064b8:    dd0f        ..      BLE      0x80064da ; readMQTTLenString + 50
        0x080064ba:    4620         F      MOV      r0,r4
        0x080064bc:    f7ffffe7    ....    BL       readInt ; 0x800648e
        0x080064c0:    6068        h`      STR      r0,[r5,#4]
        0x080064c2:    6820         h      LDR      r0,[r4,#0]
        0x080064c4:    6869        ih      LDR      r1,[r5,#4]
        0x080064c6:    4408        .D      ADD      r0,r0,r1
        0x080064c8:    42b0        .B      CMP      r0,r6
        0x080064ca:    d806        ..      BHI      0x80064da ; readMQTTLenString + 50
        0x080064cc:    6821        !h      LDR      r1,[r4,#0]
        0x080064ce:    60a9        .`      STR      r1,[r5,#8]
        0x080064d0:    6820         h      LDR      r0,[r4,#0]
        0x080064d2:    6869        ih      LDR      r1,[r5,#4]
        0x080064d4:    4408        .D      ADD      r0,r0,r1
        0x080064d6:    6020         `      STR      r0,[r4,#0]
        0x080064d8:    2701        .'      MOVS     r7,#1
        0x080064da:    2000        .       MOVS     r0,#0
        0x080064dc:    6028        (`      STR      r0,[r5,#0]
        0x080064de:    4638        8F      MOV      r0,r7
        0x080064e0:    bdf0        ..      POP      {r4-r7,pc}
    i.ring_buffer_init
    ring_buffer_init
        0x080064e2:    2100        .!      MOVS     r1,#0
        0x080064e4:    6001        .`      STR      r1,[r0,#0]
        0x080064e6:    6041        A`      STR      r1,[r0,#4]
        0x080064e8:    4770        pG      BX       lr
    i.ring_buffer_read
    ring_buffer_read
        0x080064ea:    4602        .F      MOV      r2,r0
        0x080064ec:    6848        Hh      LDR      r0,[r1,#4]
        0x080064ee:    680b        .h      LDR      r3,[r1,#0]
        0x080064f0:    4298        .B      CMP      r0,r3
        0x080064f2:    d102        ..      BNE      0x80064fa ; ring_buffer_read + 16
        0x080064f4:    f04f30ff    O..0    MOV      r0,#0xffffffff
        0x080064f8:    4770        pG      BX       lr
        0x080064fa:    684b        Kh      LDR      r3,[r1,#4]
        0x080064fc:    f1010008    ....    ADD      r0,r1,#8
        0x08006500:    5cc0        .\      LDRB     r0,[r0,r3]
        0x08006502:    7010        .p      STRB     r0,[r2,#0]
        0x08006504:    6848        Hh      LDR      r0,[r1,#4]
        0x08006506:    1c40        @.      ADDS     r0,r0,#1
        0x08006508:    f3c00009    ....    UBFX     r0,r0,#0,#10
        0x0800650c:    6048        H`      STR      r0,[r1,#4]
        0x0800650e:    2000        .       MOVS     r0,#0
        0x08006510:    e7f2        ..      B        0x80064f8 ; ring_buffer_read + 14
    i.ring_buffer_write
    ring_buffer_write
        0x08006512:    b510        ..      PUSH     {r4,lr}
        0x08006514:    680b        .h      LDR      r3,[r1,#0]
        0x08006516:    1c5b        [.      ADDS     r3,r3,#1
        0x08006518:    f3c30209    ....    UBFX     r2,r3,#0,#10
        0x0800651c:    684b        Kh      LDR      r3,[r1,#4]
        0x0800651e:    4293        .B      CMP      r3,r2
        0x08006520:    d004        ..      BEQ      0x800652c ; ring_buffer_write + 26
        0x08006522:    680c        .h      LDR      r4,[r1,#0]
        0x08006524:    f1010308    ....    ADD      r3,r1,#8
        0x08006528:    5518        .U      STRB     r0,[r3,r4]
        0x0800652a:    600a        .`      STR      r2,[r1,#0]
        0x0800652c:    bd10        ..      POP      {r4,pc}
        0x0800652e:    0000        ..      MOVS     r0,r0
    i.topic1_handler
    topic1_handler
        0x08006530:    b57c        |.      PUSH     {r2-r6,lr}
        0x08006532:    4605        .F      MOV      r5,r0
        0x08006534:    460c        .F      MOV      r4,r1
        0x08006536:    480d        .H      LDR      r0,[pc,#52] ; [0x800656c] = 0x80082d8
        0x08006538:    f7fcfc14    ....    BL       __0printf$8 ; 0x8002d64
        0x0800653c:    a00c        ..      ADR      r0,{pc}+0x34 ; 0x8006570
        0x0800653e:    f7fcfc11    ....    BL       __0printf$8 ; 0x8002d64
        0x08006542:    6c20         l      LDR      r0,[r4,#0x40]
        0x08006544:    68c0        .h      LDR      r0,[r0,#0xc]
        0x08006546:    4b0b        .K      LDR      r3,[pc,#44] ; [0x8006574] = 0x8008210
        0x08006548:    f240120d    @...    MOV      r2,#0x10d
        0x0800654c:    a10a        ..      ADR      r1,{pc}+0x2c ; 0x8006578
        0x0800654e:    e9cd4000    ...@    STRD     r4,r0,[sp,#0]
        0x08006552:    a011        ..      ADR      r0,{pc}+0x46 ; 0x8006598
        0x08006554:    f7fcfc06    ....    BL       __0printf$8 ; 0x8002d64
        0x08006558:    a005        ..      ADR      r0,{pc}+0x18 ; 0x8006570
        0x0800655a:    f7fcfc03    ....    BL       __0printf$8 ; 0x8002d64
        0x0800655e:    4803        .H      LDR      r0,[pc,#12] ; [0x800656c] = 0x80082d8
        0x08006560:    f7fcfc00    ....    BL       __0printf$8 ; 0x8002d64
        0x08006564:    a002        ..      ADR      r0,{pc}+0xc ; 0x8006570
        0x08006566:    f7fcfbfd    ....    BL       __0printf$8 ; 0x8002d64
        0x0800656a:    bd7c        |.      POP      {r2-r6,pc}
    $d
        0x0800656c:    080082d8    ....    DCD    134251224
        0x08006570:    00000a0d    ....    DCD    2573
        0x08006574:    08008210    ....    DCD    134251024
        0x08006578:    4d5c2e2e    ..\M    DCD    1297886766
        0x0800657c:    43545451    QTTC    DCD    1129600081
        0x08006580:    6e65696c    lien    DCD    1852139884
        0x08006584:    74615c74    t\at    DCD    1952537716
        0x08006588:    5f74615c    \at_    DCD    1601462620
        0x0800658c:    6d6d6f63    comm    DCD    1835888483
        0x08006590:    2e646e61    and.    DCD    778333793
        0x08006594:    00000063    c...    DCD    99
        0x08006598:    253a7325    %s:%    DCD    624587557
        0x0800659c:    73252064    d %s    DCD    1931812964
        0x080065a0:    2e2e2928    ()..    DCD    774777128
        0x080065a4:    740a0d2e    ...t    DCD    1946815790
        0x080065a8:    6369706f    opic    DCD    1667854447
        0x080065ac:    7325203a    : %s    DCD    1931812922
        0x080065b0:    656d0a0d    ..me    DCD    1701644813
        0x080065b4:    67617373    ssag    DCD    1734439795
        0x080065b8:    73253a65    e:%s    DCD    1931819621
        0x080065bc:    00000000    ....    DCD    0
    $t
    i.uxListRemove
    uxListRemove
        0x080065c0:    4601        .F      MOV      r1,r0
        0x080065c2:    690a        .i      LDR      r2,[r1,#0x10]
        0x080065c4:    e9d13001    ...0    LDRD     r3,r0,[r1,#4]
        0x080065c8:    6098        .`      STR      r0,[r3,#8]
        0x080065ca:    e9d10301    ....    LDRD     r0,r3,[r1,#4]
        0x080065ce:    6058        X`      STR      r0,[r3,#4]
        0x080065d0:    6850        Ph      LDR      r0,[r2,#4]
        0x080065d2:    4288        .B      CMP      r0,r1
        0x080065d4:    d101        ..      BNE      0x80065da ; uxListRemove + 26
        0x080065d6:    6888        .h      LDR      r0,[r1,#8]
        0x080065d8:    6050        P`      STR      r0,[r2,#4]
        0x080065da:    2000        .       MOVS     r0,#0
        0x080065dc:    6108        .a      STR      r0,[r1,#0x10]
        0x080065de:    6810        .h      LDR      r0,[r2,#0]
        0x080065e0:    1e40        @.      SUBS     r0,r0,#1
        0x080065e2:    6010        .`      STR      r0,[r2,#0]
        0x080065e4:    6810        .h      LDR      r0,[r2,#0]
        0x080065e6:    4770        pG      BX       lr
    i.vApplicationGetIdleTaskMemory
    vApplicationGetIdleTaskMemory
        0x080065e8:    4b03        .K      LDR      r3,[pc,#12] ; [0x80065f8] = 0x20000bac
        0x080065ea:    6003        .`      STR      r3,[r0,#0]
        0x080065ec:    4b03        .K      LDR      r3,[pc,#12] ; [0x80065fc] = 0x20000c08
        0x080065ee:    600b        .`      STR      r3,[r1,#0]
        0x080065f0:    2380        .#      MOVS     r3,#0x80
        0x080065f2:    6013        .`      STR      r3,[r2,#0]
        0x080065f4:    4770        pG      BX       lr
    $d
        0x080065f6:    0000        ..      DCW    0
        0x080065f8:    20000bac    ...     DCD    536873900
        0x080065fc:    20000c08    ...     DCD    536873992
    $t
    i.vApplicationGetTimerTaskMemory
    vApplicationGetTimerTaskMemory
        0x08006600:    4b03        .K      LDR      r3,[pc,#12] ; [0x8006610] = 0x20000e08
        0x08006602:    6003        .`      STR      r3,[r0,#0]
        0x08006604:    4b03        .K      LDR      r3,[pc,#12] ; [0x8006614] = 0x20000e64
        0x08006606:    600b        .`      STR      r3,[r1,#0]
        0x08006608:    f44f7380    O..s    MOV      r3,#0x100
        0x0800660c:    6013        .`      STR      r3,[r2,#0]
        0x0800660e:    4770        pG      BX       lr
    $d
        0x08006610:    20000e08    ...     DCD    536874504
        0x08006614:    20000e64    d..     DCD    536874596
    $t
    i.vListInitialise
    vListInitialise
        0x08006618:    f1000108    ....    ADD      r1,r0,#8
        0x0800661c:    6041        A`      STR      r1,[r0,#4]
        0x0800661e:    f04f31ff    O..1    MOV      r1,#0xffffffff
        0x08006622:    6081        .`      STR      r1,[r0,#8]
        0x08006624:    f1000108    ....    ADD      r1,r0,#8
        0x08006628:    60c1        .`      STR      r1,[r0,#0xc]
        0x0800662a:    6101        .a      STR      r1,[r0,#0x10]
        0x0800662c:    2100        .!      MOVS     r1,#0
        0x0800662e:    6001        .`      STR      r1,[r0,#0]
        0x08006630:    4770        pG      BX       lr
    i.vListInitialiseItem
    vListInitialiseItem
        0x08006632:    2100        .!      MOVS     r1,#0
        0x08006634:    6101        .a      STR      r1,[r0,#0x10]
        0x08006636:    4770        pG      BX       lr
    i.vListInsert
    vListInsert
        0x08006638:    b510        ..      PUSH     {r4,lr}
        0x0800663a:    4602        .F      MOV      r2,r0
        0x0800663c:    680b        .h      LDR      r3,[r1,#0]
        0x0800663e:    1c5c        \.      ADDS     r4,r3,#1
        0x08006640:    b90c        ..      CBNZ     r4,0x8006646 ; vListInsert + 14
        0x08006642:    6910        .i      LDR      r0,[r2,#0x10]
        0x08006644:    e007        ..      B        0x8006656 ; vListInsert + 30
        0x08006646:    f1020008    ....    ADD      r0,r2,#8
        0x0800664a:    e000        ..      B        0x800664e ; vListInsert + 22
        0x0800664c:    6840        @h      LDR      r0,[r0,#4]
        0x0800664e:    6844        Dh      LDR      r4,[r0,#4]
        0x08006650:    6824        $h      LDR      r4,[r4,#0]
        0x08006652:    429c        .B      CMP      r4,r3
        0x08006654:    d9fa        ..      BLS      0x800664c ; vListInsert + 20
        0x08006656:    6844        Dh      LDR      r4,[r0,#4]
        0x08006658:    604c        L`      STR      r4,[r1,#4]
        0x0800665a:    684c        Lh      LDR      r4,[r1,#4]
        0x0800665c:    60a1        .`      STR      r1,[r4,#8]
        0x0800665e:    6088        .`      STR      r0,[r1,#8]
        0x08006660:    6041        A`      STR      r1,[r0,#4]
        0x08006662:    610a        .a      STR      r2,[r1,#0x10]
        0x08006664:    6814        .h      LDR      r4,[r2,#0]
        0x08006666:    1c64        d.      ADDS     r4,r4,#1
        0x08006668:    6014        .`      STR      r4,[r2,#0]
        0x0800666a:    bd10        ..      POP      {r4,pc}
    i.vListInsertEnd
    vListInsertEnd
        0x0800666c:    6842        Bh      LDR      r2,[r0,#4]
        0x0800666e:    604a        J`      STR      r2,[r1,#4]
        0x08006670:    6893        .h      LDR      r3,[r2,#8]
        0x08006672:    608b        .`      STR      r3,[r1,#8]
        0x08006674:    6893        .h      LDR      r3,[r2,#8]
        0x08006676:    6059        Y`      STR      r1,[r3,#4]
        0x08006678:    6091        .`      STR      r1,[r2,#8]
        0x0800667a:    6108        .a      STR      r0,[r1,#0x10]
        0x0800667c:    6803        .h      LDR      r3,[r0,#0]
        0x0800667e:    1c5b        [.      ADDS     r3,r3,#1
        0x08006680:    6003        .`      STR      r3,[r0,#0]
        0x08006682:    4770        pG      BX       lr
    i.vPortEnterCritical
    vPortEnterCritical
        0x08006684:    bf00        ..      NOP      
        0x08006686:    2050        P       MOVS     r0,#0x50
        0x08006688:    f3808811    ....    MSR      BASEPRI,r0
        0x0800668c:    f3bf8f4f    ..O.    DSB      
        0x08006690:    f3bf8f6f    ..o.    ISB      
        0x08006694:    bf00        ..      NOP      
        0x08006696:    480e        .H      LDR      r0,[pc,#56] ; [0x80066d0] = 0x20000088
        0x08006698:    6800        .h      LDR      r0,[r0,#0]
        0x0800669a:    1c40        @.      ADDS     r0,r0,#1
        0x0800669c:    490c        .I      LDR      r1,[pc,#48] ; [0x80066d0] = 0x20000088
        0x0800669e:    6008        .`      STR      r0,[r1,#0]
        0x080066a0:    4608        .F      MOV      r0,r1
        0x080066a2:    6800        .h      LDR      r0,[r0,#0]
        0x080066a4:    2801        .(      CMP      r0,#1
        0x080066a6:    d112        ..      BNE      0x80066ce ; vPortEnterCritical + 74
        0x080066a8:    480a        .H      LDR      r0,[pc,#40] ; [0x80066d4] = 0xe000ed04
        0x080066aa:    6800        .h      LDR      r0,[r0,#0]
        0x080066ac:    b2c0        ..      UXTB     r0,r0
        0x080066ae:    b908        ..      CBNZ     r0,0x80066b4 ; vPortEnterCritical + 48
        0x080066b0:    2001        .       MOVS     r0,#1
        0x080066b2:    e000        ..      B        0x80066b6 ; vPortEnterCritical + 50
        0x080066b4:    2000        .       MOVS     r0,#0
        0x080066b6:    b950        P.      CBNZ     r0,0x80066ce ; vPortEnterCritical + 74
        0x080066b8:    bf00        ..      NOP      
        0x080066ba:    2050        P       MOVS     r0,#0x50
        0x080066bc:    f3808811    ....    MSR      BASEPRI,r0
        0x080066c0:    f3bf8f4f    ..O.    DSB      
        0x080066c4:    f3bf8f6f    ..o.    ISB      
        0x080066c8:    bf00        ..      NOP      
        0x080066ca:    bf00        ..      NOP      
        0x080066cc:    e7fe        ..      B        0x80066cc ; vPortEnterCritical + 72
        0x080066ce:    4770        pG      BX       lr
    $d
        0x080066d0:    20000088    ...     DCD    536871048
        0x080066d4:    e000ed04    ....    DCD    3758157060
    $t
    i.vPortExitCritical
    vPortExitCritical
        0x080066d8:    480d        .H      LDR      r0,[pc,#52] ; [0x8006710] = 0x20000088
        0x080066da:    6800        .h      LDR      r0,[r0,#0]
        0x080066dc:    b950        P.      CBNZ     r0,0x80066f4 ; vPortExitCritical + 28
        0x080066de:    bf00        ..      NOP      
        0x080066e0:    2050        P       MOVS     r0,#0x50
        0x080066e2:    f3808811    ....    MSR      BASEPRI,r0
        0x080066e6:    f3bf8f4f    ..O.    DSB      
        0x080066ea:    f3bf8f6f    ..o.    ISB      
        0x080066ee:    bf00        ..      NOP      
        0x080066f0:    bf00        ..      NOP      
        0x080066f2:    e7fe        ..      B        0x80066f2 ; vPortExitCritical + 26
        0x080066f4:    4806        .H      LDR      r0,[pc,#24] ; [0x8006710] = 0x20000088
        0x080066f6:    6800        .h      LDR      r0,[r0,#0]
        0x080066f8:    1e40        @.      SUBS     r0,r0,#1
        0x080066fa:    4905        .I      LDR      r1,[pc,#20] ; [0x8006710] = 0x20000088
        0x080066fc:    6008        .`      STR      r0,[r1,#0]
        0x080066fe:    4608        .F      MOV      r0,r1
        0x08006700:    6800        .h      LDR      r0,[r0,#0]
        0x08006702:    b920         .      CBNZ     r0,0x800670e ; vPortExitCritical + 54
        0x08006704:    2000        .       MOVS     r0,#0
        0x08006706:    f3808811    ....    MSR      BASEPRI,r0
        0x0800670a:    bf00        ..      NOP      
        0x0800670c:    bf00        ..      NOP      
        0x0800670e:    4770        pG      BX       lr
    $d
        0x08006710:    20000088    ...     DCD    536871048
    $t
    i.vPortFree
    vPortFree
        0x08006714:    b570        p.      PUSH     {r4-r6,lr}
        0x08006716:    4606        .F      MOV      r6,r0
        0x08006718:    4635        5F      MOV      r5,r6
        0x0800671a:    2e00        ..      CMP      r6,#0
        0x0800671c:    d03f        ?.      BEQ      0x800679e ; vPortFree + 138
        0x0800671e:    3d08        .=      SUBS     r5,r5,#8
        0x08006720:    462c        ,F      MOV      r4,r5
        0x08006722:    491f        .I      LDR      r1,[pc,#124] ; [0x80067a0] = 0x20000084
        0x08006724:    6860        `h      LDR      r0,[r4,#4]
        0x08006726:    6809        .h      LDR      r1,[r1,#0]
        0x08006728:    4008        .@      ANDS     r0,r0,r1
        0x0800672a:    b108        ..      CBZ      r0,0x8006730 ; vPortFree + 28
        0x0800672c:    2001        .       MOVS     r0,#1
        0x0800672e:    e000        ..      B        0x8006732 ; vPortFree + 30
        0x08006730:    2000        .       MOVS     r0,#0
        0x08006732:    b950        P.      CBNZ     r0,0x800674a ; vPortFree + 54
        0x08006734:    bf00        ..      NOP      
        0x08006736:    2050        P       MOVS     r0,#0x50
        0x08006738:    f3808811    ....    MSR      BASEPRI,r0
        0x0800673c:    f3bf8f4f    ..O.    DSB      
        0x08006740:    f3bf8f6f    ..o.    ISB      
        0x08006744:    bf00        ..      NOP      
        0x08006746:    bf00        ..      NOP      
        0x08006748:    e7fe        ..      B        0x8006748 ; vPortFree + 52
        0x0800674a:    6820         h      LDR      r0,[r4,#0]
        0x0800674c:    b908        ..      CBNZ     r0,0x8006752 ; vPortFree + 62
        0x0800674e:    2001        .       MOVS     r0,#1
        0x08006750:    e000        ..      B        0x8006754 ; vPortFree + 64
        0x08006752:    2000        .       MOVS     r0,#0
        0x08006754:    b950        P.      CBNZ     r0,0x800676c ; vPortFree + 88
        0x08006756:    bf00        ..      NOP      
        0x08006758:    2050        P       MOVS     r0,#0x50
        0x0800675a:    f3808811    ....    MSR      BASEPRI,r0
        0x0800675e:    f3bf8f4f    ..O.    DSB      
        0x08006762:    f3bf8f6f    ..o.    ISB      
        0x08006766:    bf00        ..      NOP      
        0x08006768:    bf00        ..      NOP      
        0x0800676a:    e7fe        ..      B        0x800676a ; vPortFree + 86
        0x0800676c:    490c        .I      LDR      r1,[pc,#48] ; [0x80067a0] = 0x20000084
        0x0800676e:    6860        `h      LDR      r0,[r4,#4]
        0x08006770:    6809        .h      LDR      r1,[r1,#0]
        0x08006772:    4008        .@      ANDS     r0,r0,r1
        0x08006774:    b198        ..      CBZ      r0,0x800679e ; vPortFree + 138
        0x08006776:    6820         h      LDR      r0,[r4,#0]
        0x08006778:    b988        ..      CBNZ     r0,0x800679e ; vPortFree + 138
        0x0800677a:    4909        .I      LDR      r1,[pc,#36] ; [0x80067a0] = 0x20000084
        0x0800677c:    6860        `h      LDR      r0,[r4,#4]
        0x0800677e:    6809        .h      LDR      r1,[r1,#0]
        0x08006780:    4388        .C      BICS     r0,r0,r1
        0x08006782:    6060        ``      STR      r0,[r4,#4]
        0x08006784:    f000faec    ....    BL       vTaskSuspendAll ; 0x8006d60
        0x08006788:    4906        .I      LDR      r1,[pc,#24] ; [0x80067a4] = 0x2000007c
        0x0800678a:    6860        `h      LDR      r0,[r4,#4]
        0x0800678c:    6809        .h      LDR      r1,[r1,#0]
        0x0800678e:    4408        .D      ADD      r0,r0,r1
        0x08006790:    4904        .I      LDR      r1,[pc,#16] ; [0x80067a4] = 0x2000007c
        0x08006792:    6008        .`      STR      r0,[r1,#0]
        0x08006794:    4620         F      MOV      r0,r4
        0x08006796:    f7fffa9b    ....    BL       prvInsertBlockIntoFreeList ; 0x8005cd0
        0x0800679a:    f001fab5    ....    BL       xTaskResumeAll ; 0x8007d08
        0x0800679e:    bd70        p.      POP      {r4-r6,pc}
    $d
        0x080067a0:    20000084    ...     DCD    536871044
        0x080067a4:    2000007c    |..     DCD    536871036
    $t
    i.vPortSetupTimerInterrupt
    vPortSetupTimerInterrupt
        0x080067a8:    2000        .       MOVS     r0,#0
        0x080067aa:    f04f21e0    O..!    MOV      r1,#0xe000e000
        0x080067ae:    6108        .a      STR      r0,[r1,#0x10]
        0x080067b0:    6188        .a      STR      r0,[r1,#0x18]
        0x080067b2:    4806        .H      LDR      r0,[pc,#24] ; [0x80067cc] = 0x20000010
        0x080067b4:    6800        .h      LDR      r0,[r0,#0]
        0x080067b6:    f44f717a    O.zq    MOV      r1,#0x3e8
        0x080067ba:    fbb0f0f1    ....    UDIV     r0,r0,r1
        0x080067be:    1e40        @.      SUBS     r0,r0,#1
        0x080067c0:    f04f21e0    O..!    MOV      r1,#0xe000e000
        0x080067c4:    6148        Ha      STR      r0,[r1,#0x14]
        0x080067c6:    2007        .       MOVS     r0,#7
        0x080067c8:    6108        .a      STR      r0,[r1,#0x10]
        0x080067ca:    4770        pG      BX       lr
    $d
        0x080067cc:    20000010    ...     DCD    536870928
    $t
    i.vPortValidateInterruptPriority
    vPortValidateInterruptPriority
        0x080067d0:    b570        p.      PUSH     {r4-r6,lr}
        0x080067d2:    f7f9fd01    ....    BL       vPortGetIPSR ; 0x80001d8
        0x080067d6:    4604        .F      MOV      r4,r0
        0x080067d8:    2c10        .,      CMP      r4,#0x10
        0x080067da:    d316        ..      BCC      0x800680a ; vPortValidateInterruptPriority + 58
        0x080067dc:    f10420e0    ...     ADD      r0,r4,#0xe000e000
        0x080067e0:    f89053f0    ...S    LDRB     r5,[r0,#0x3f0]
        0x080067e4:    4815        .H      LDR      r0,[pc,#84] ; [0x800683c] = 0x2000008c
        0x080067e6:    7800        .x      LDRB     r0,[r0,#0]
        0x080067e8:    4285        .B      CMP      r5,r0
        0x080067ea:    db01        ..      BLT      0x80067f0 ; vPortValidateInterruptPriority + 32
        0x080067ec:    2001        .       MOVS     r0,#1
        0x080067ee:    e000        ..      B        0x80067f2 ; vPortValidateInterruptPriority + 34
        0x080067f0:    2000        .       MOVS     r0,#0
        0x080067f2:    b950        P.      CBNZ     r0,0x800680a ; vPortValidateInterruptPriority + 58
        0x080067f4:    bf00        ..      NOP      
        0x080067f6:    2050        P       MOVS     r0,#0x50
        0x080067f8:    f3808811    ....    MSR      BASEPRI,r0
        0x080067fc:    f3bf8f4f    ..O.    DSB      
        0x08006800:    f3bf8f6f    ..o.    ISB      
        0x08006804:    bf00        ..      NOP      
        0x08006806:    bf00        ..      NOP      
        0x08006808:    e7fe        ..      B        0x8006808 ; vPortValidateInterruptPriority + 56
        0x0800680a:    480d        .H      LDR      r0,[pc,#52] ; [0x8006840] = 0xe000ed0c
        0x0800680c:    6800        .h      LDR      r0,[r0,#0]
        0x0800680e:    f40060e0    ...`    AND      r0,r0,#0x700
        0x08006812:    490c        .I      LDR      r1,[pc,#48] ; [0x8006844] = 0x20000090
        0x08006814:    6809        .h      LDR      r1,[r1,#0]
        0x08006816:    4288        .B      CMP      r0,r1
        0x08006818:    d801        ..      BHI      0x800681e ; vPortValidateInterruptPriority + 78
        0x0800681a:    2001        .       MOVS     r0,#1
        0x0800681c:    e000        ..      B        0x8006820 ; vPortValidateInterruptPriority + 80
        0x0800681e:    2000        .       MOVS     r0,#0
        0x08006820:    b950        P.      CBNZ     r0,0x8006838 ; vPortValidateInterruptPriority + 104
        0x08006822:    bf00        ..      NOP      
        0x08006824:    2050        P       MOVS     r0,#0x50
        0x08006826:    f3808811    ....    MSR      BASEPRI,r0
        0x0800682a:    f3bf8f4f    ..O.    DSB      
        0x0800682e:    f3bf8f6f    ..o.    ISB      
        0x08006832:    bf00        ..      NOP      
        0x08006834:    bf00        ..      NOP      
        0x08006836:    e7fe        ..      B        0x8006836 ; vPortValidateInterruptPriority + 102
        0x08006838:    bd70        p.      POP      {r4-r6,pc}
    $d
        0x0800683a:    0000        ..      DCW    0
        0x0800683c:    2000008c    ...     DCD    536871052
        0x08006840:    e000ed0c    ....    DCD    3758157068
        0x08006844:    20000090    ...     DCD    536871056
    $t
    i.vQueueAddToRegistry
    vQueueAddToRegistry
        0x08006848:    4602        .F      MOV      r2,r0
        0x0800684a:    2000        .       MOVS     r0,#0
        0x0800684c:    e00b        ..      B        0x8006866 ; vQueueAddToRegistry + 30
        0x0800684e:    4b08        .K      LDR      r3,[pc,#32] ; [0x8006870] = 0x20000590
        0x08006850:    f8533030    S.00    LDR      r3,[r3,r0,LSL #3]
        0x08006854:    b933        3.      CBNZ     r3,0x8006864 ; vQueueAddToRegistry + 28
        0x08006856:    4b06        .K      LDR      r3,[pc,#24] ; [0x8006870] = 0x20000590
        0x08006858:    f8431030    C.0.    STR      r1,[r3,r0,LSL #3]
        0x0800685c:    eb0303c0    ....    ADD      r3,r3,r0,LSL #3
        0x08006860:    605a        Z`      STR      r2,[r3,#4]
        0x08006862:    e002        ..      B        0x800686a ; vQueueAddToRegistry + 34
        0x08006864:    1c40        @.      ADDS     r0,r0,#1
        0x08006866:    2808        .(      CMP      r0,#8
        0x08006868:    d3f1        ..      BCC      0x800684e ; vQueueAddToRegistry + 6
        0x0800686a:    bf00        ..      NOP      
        0x0800686c:    4770        pG      BX       lr
    $d
        0x0800686e:    0000        ..      DCW    0
        0x08006870:    20000590    ...     DCD    536872336
    $t
    i.vQueueWaitForMessageRestricted
    vQueueWaitForMessageRestricted
        0x08006874:    e92d41f0    -..A    PUSH     {r4-r8,lr}
        0x08006878:    4605        .F      MOV      r5,r0
        0x0800687a:    460e        .F      MOV      r6,r1
        0x0800687c:    4617        .F      MOV      r7,r2
        0x0800687e:    462c        ,F      MOV      r4,r5
        0x08006880:    f7ffff00    ....    BL       vPortEnterCritical ; 0x8006684
        0x08006884:    f9940044    ..D.    LDRSB    r0,[r4,#0x44]
        0x08006888:    1c40        @.      ADDS     r0,r0,#1
        0x0800688a:    b910        ..      CBNZ     r0,0x8006892 ; vQueueWaitForMessageRestricted + 30
        0x0800688c:    2000        .       MOVS     r0,#0
        0x0800688e:    f8840044    ..D.    STRB     r0,[r4,#0x44]
        0x08006892:    f9940045    ..E.    LDRSB    r0,[r4,#0x45]
        0x08006896:    1c40        @.      ADDS     r0,r0,#1
        0x08006898:    b910        ..      CBNZ     r0,0x80068a0 ; vQueueWaitForMessageRestricted + 44
        0x0800689a:    2000        .       MOVS     r0,#0
        0x0800689c:    f8840045    ..E.    STRB     r0,[r4,#0x45]
        0x080068a0:    f7ffff1a    ....    BL       vPortExitCritical ; 0x80066d8
        0x080068a4:    6ba0        .k      LDR      r0,[r4,#0x38]
        0x080068a6:    b928        (.      CBNZ     r0,0x80068b4 ; vQueueWaitForMessageRestricted + 64
        0x080068a8:    463a        :F      MOV      r2,r7
        0x080068aa:    4631        1F      MOV      r1,r6
        0x080068ac:    f1040024    ..$.    ADD      r0,r4,#0x24
        0x080068b0:    f000f8c6    ....    BL       vTaskPlaceOnEventListRestricted ; 0x8006a40
        0x080068b4:    4620         F      MOV      r0,r4
        0x080068b6:    f7fffc60    ..`.    BL       prvUnlockQueue ; 0x800617a
        0x080068ba:    e8bd81f0    ....    POP      {r4-r8,pc}
        0x080068be:    0000        ..      MOVS     r0,r0
    i.vTaskDelay
    vTaskDelay
        0x080068c0:    b570        p.      PUSH     {r4-r6,lr}
        0x080068c2:    4604        .F      MOV      r4,r0
        0x080068c4:    2500        .%      MOVS     r5,#0
        0x080068c6:    b1d4        ..      CBZ      r4,0x80068fe ; vTaskDelay + 62
        0x080068c8:    4812        .H      LDR      r0,[pc,#72] ; [0x8006914] = 0x20000054
        0x080068ca:    6800        .h      LDR      r0,[r0,#0]
        0x080068cc:    b908        ..      CBNZ     r0,0x80068d2 ; vTaskDelay + 18
        0x080068ce:    2001        .       MOVS     r0,#1
        0x080068d0:    e000        ..      B        0x80068d4 ; vTaskDelay + 20
        0x080068d2:    2000        .       MOVS     r0,#0
        0x080068d4:    b950        P.      CBNZ     r0,0x80068ec ; vTaskDelay + 44
        0x080068d6:    bf00        ..      NOP      
        0x080068d8:    2050        P       MOVS     r0,#0x50
        0x080068da:    f3808811    ....    MSR      BASEPRI,r0
        0x080068de:    f3bf8f4f    ..O.    DSB      
        0x080068e2:    f3bf8f6f    ..o.    ISB      
        0x080068e6:    bf00        ..      NOP      
        0x080068e8:    bf00        ..      NOP      
        0x080068ea:    e7fe        ..      B        0x80068ea ; vTaskDelay + 42
        0x080068ec:    f000fa38    ..8.    BL       vTaskSuspendAll ; 0x8006d60
        0x080068f0:    2100        .!      MOVS     r1,#0
        0x080068f2:    4620         F      MOV      r0,r4
        0x080068f4:    f7feff64    ..d.    BL       prvAddCurrentTaskToDelayedList ; 0x80057c0
        0x080068f8:    f001fa06    ....    BL       xTaskResumeAll ; 0x8007d08
        0x080068fc:    4605        .F      MOV      r5,r0
        0x080068fe:    b93d        =.      CBNZ     r5,0x8006910 ; vTaskDelay + 80
        0x08006900:    f04f5080    O..P    MOV      r0,#0x10000000
        0x08006904:    4904        .I      LDR      r1,[pc,#16] ; [0x8006918] = 0xe000ed04
        0x08006906:    6008        .`      STR      r0,[r1,#0]
        0x08006908:    f3bf8f4f    ..O.    DSB      
        0x0800690c:    f3bf8f6f    ..o.    ISB      
        0x08006910:    bd70        p.      POP      {r4-r6,pc}
    $d
        0x08006912:    0000        ..      DCW    0
        0x08006914:    20000054    T..     DCD    536870996
        0x08006918:    e000ed04    ....    DCD    3758157060
    $t
    i.vTaskDelete
    vTaskDelete
        0x0800691c:    b570        p.      PUSH     {r4-r6,lr}
        0x0800691e:    4605        .F      MOV      r5,r0
        0x08006920:    f7fffeb0    ....    BL       vPortEnterCritical ; 0x8006684
        0x08006924:    b915        ..      CBNZ     r5,0x800692c ; vTaskDelete + 16
        0x08006926:    4827        'H      LDR      r0,[pc,#156] ; [0x80069c4] = 0x2000001c
        0x08006928:    6800        .h      LDR      r0,[r0,#0]
        0x0800692a:    e000        ..      B        0x800692e ; vTaskDelete + 18
        0x0800692c:    4628        (F      MOV      r0,r5
        0x0800692e:    4604        .F      MOV      r4,r0
        0x08006930:    1d20         .      ADDS     r0,r4,#4
        0x08006932:    f7fffe45    ..E.    BL       uxListRemove ; 0x80065c0
        0x08006936:    6aa0        .j      LDR      r0,[r4,#0x28]
        0x08006938:    b118        ..      CBZ      r0,0x8006942 ; vTaskDelete + 38
        0x0800693a:    f1040018    ....    ADD      r0,r4,#0x18
        0x0800693e:    f7fffe3f    ..?.    BL       uxListRemove ; 0x80065c0
        0x08006942:    4821        !H      LDR      r0,[pc,#132] ; [0x80069c8] = 0x20000048
        0x08006944:    6800        .h      LDR      r0,[r0,#0]
        0x08006946:    1c40        @.      ADDS     r0,r0,#1
        0x08006948:    491f        .I      LDR      r1,[pc,#124] ; [0x80069c8] = 0x20000048
        0x0800694a:    6008        .`      STR      r0,[r1,#0]
        0x0800694c:    481d        .H      LDR      r0,[pc,#116] ; [0x80069c4] = 0x2000001c
        0x0800694e:    6800        .h      LDR      r0,[r0,#0]
        0x08006950:    4284        .B      CMP      r4,r0
        0x08006952:    d109        ..      BNE      0x8006968 ; vTaskDelete + 76
        0x08006954:    1d21        !.      ADDS     r1,r4,#4
        0x08006956:    481d        .H      LDR      r0,[pc,#116] ; [0x80069cc] = 0x20000a6c
        0x08006958:    f7fffe88    ....    BL       vListInsertEnd ; 0x800666c
        0x0800695c:    481c        .H      LDR      r0,[pc,#112] ; [0x80069d0] = 0x20000028
        0x0800695e:    6800        .h      LDR      r0,[r0,#0]
        0x08006960:    1c40        @.      ADDS     r0,r0,#1
        0x08006962:    491b        .I      LDR      r1,[pc,#108] ; [0x80069d0] = 0x20000028
        0x08006964:    6008        .`      STR      r0,[r1,#0]
        0x08006966:    e009        ..      B        0x800697c ; vTaskDelete + 96
        0x08006968:    481a        .H      LDR      r0,[pc,#104] ; [0x80069d4] = 0x2000002c
        0x0800696a:    6800        .h      LDR      r0,[r0,#0]
        0x0800696c:    1e40        @.      SUBS     r0,r0,#1
        0x0800696e:    4919        .I      LDR      r1,[pc,#100] ; [0x80069d4] = 0x2000002c
        0x08006970:    6008        .`      STR      r0,[r1,#0]
        0x08006972:    4620         F      MOV      r0,r4
        0x08006974:    f7fff86f    ..o.    BL       prvDeleteTCB ; 0x8005a56
        0x08006978:    f7fffb26    ..&.    BL       prvResetNextTaskUnblockTime ; 0x8005fc8
        0x0800697c:    f7fffeac    ....    BL       vPortExitCritical ; 0x80066d8
        0x08006980:    4815        .H      LDR      r0,[pc,#84] ; [0x80069d8] = 0x20000038
        0x08006982:    6800        .h      LDR      r0,[r0,#0]
        0x08006984:    b1e8        ..      CBZ      r0,0x80069c2 ; vTaskDelete + 166
        0x08006986:    480f        .H      LDR      r0,[pc,#60] ; [0x80069c4] = 0x2000001c
        0x08006988:    6800        .h      LDR      r0,[r0,#0]
        0x0800698a:    4284        .B      CMP      r4,r0
        0x0800698c:    d119        ..      BNE      0x80069c2 ; vTaskDelete + 166
        0x0800698e:    4813        .H      LDR      r0,[pc,#76] ; [0x80069dc] = 0x20000054
        0x08006990:    6800        .h      LDR      r0,[r0,#0]
        0x08006992:    b908        ..      CBNZ     r0,0x8006998 ; vTaskDelete + 124
        0x08006994:    2001        .       MOVS     r0,#1
        0x08006996:    e000        ..      B        0x800699a ; vTaskDelete + 126
        0x08006998:    2000        .       MOVS     r0,#0
        0x0800699a:    b950        P.      CBNZ     r0,0x80069b2 ; vTaskDelete + 150
        0x0800699c:    bf00        ..      NOP      
        0x0800699e:    2050        P       MOVS     r0,#0x50
        0x080069a0:    f3808811    ....    MSR      BASEPRI,r0
        0x080069a4:    f3bf8f4f    ..O.    DSB      
        0x080069a8:    f3bf8f6f    ..o.    ISB      
        0x080069ac:    bf00        ..      NOP      
        0x080069ae:    bf00        ..      NOP      
        0x080069b0:    e7fe        ..      B        0x80069b0 ; vTaskDelete + 148
        0x080069b2:    f04f5080    O..P    MOV      r0,#0x10000000
        0x080069b6:    490a        .I      LDR      r1,[pc,#40] ; [0x80069e0] = 0xe000ed04
        0x080069b8:    6008        .`      STR      r0,[r1,#0]
        0x080069ba:    f3bf8f4f    ..O.    DSB      
        0x080069be:    f3bf8f6f    ..o.    ISB      
        0x080069c2:    bd70        p.      POP      {r4-r6,pc}
    $d
        0x080069c4:    2000001c    ...     DCD    536870940
        0x080069c8:    20000048    H..     DCD    536870984
        0x080069cc:    20000a6c    l..     DCD    536873580
        0x080069d0:    20000028    (..     DCD    536870952
        0x080069d4:    2000002c    ,..     DCD    536870956
        0x080069d8:    20000038    8..     DCD    536870968
        0x080069dc:    20000054    T..     DCD    536870996
        0x080069e0:    e000ed04    ....    DCD    3758157060
    $t
    i.vTaskInternalSetTimeOutState
    vTaskInternalSetTimeOutState
        0x080069e4:    4903        .I      LDR      r1,[pc,#12] ; [0x80069f4] = 0x20000044
        0x080069e6:    6809        .h      LDR      r1,[r1,#0]
        0x080069e8:    6001        .`      STR      r1,[r0,#0]
        0x080069ea:    4903        .I      LDR      r1,[pc,#12] ; [0x80069f8] = 0x20000030
        0x080069ec:    6809        .h      LDR      r1,[r1,#0]
        0x080069ee:    6041        A`      STR      r1,[r0,#4]
        0x080069f0:    4770        pG      BX       lr
    $d
        0x080069f2:    0000        ..      DCW    0
        0x080069f4:    20000044    D..     DCD    536870980
        0x080069f8:    20000030    0..     DCD    536870960
    $t
    i.vTaskMissedYield
    vTaskMissedYield
        0x080069fc:    2001        .       MOVS     r0,#1
        0x080069fe:    4901        .I      LDR      r1,[pc,#4] ; [0x8006a04] = 0x20000040
        0x08006a00:    6008        .`      STR      r0,[r1,#0]
        0x08006a02:    4770        pG      BX       lr
    $d
        0x08006a04:    20000040    @..     DCD    536870976
    $t
    i.vTaskPlaceOnEventList
    vTaskPlaceOnEventList
        0x08006a08:    b570        p.      PUSH     {r4-r6,lr}
        0x08006a0a:    4604        .F      MOV      r4,r0
        0x08006a0c:    460d        .F      MOV      r5,r1
        0x08006a0e:    b954        T.      CBNZ     r4,0x8006a26 ; vTaskPlaceOnEventList + 30
        0x08006a10:    bf00        ..      NOP      
        0x08006a12:    2050        P       MOVS     r0,#0x50
        0x08006a14:    f3808811    ....    MSR      BASEPRI,r0
        0x08006a18:    f3bf8f4f    ..O.    DSB      
        0x08006a1c:    f3bf8f6f    ..o.    ISB      
        0x08006a20:    bf00        ..      NOP      
        0x08006a22:    bf00        ..      NOP      
        0x08006a24:    e7fe        ..      B        0x8006a24 ; vTaskPlaceOnEventList + 28
        0x08006a26:    4805        .H      LDR      r0,[pc,#20] ; [0x8006a3c] = 0x2000001c
        0x08006a28:    6801        .h      LDR      r1,[r0,#0]
        0x08006a2a:    3118        .1      ADDS     r1,r1,#0x18
        0x08006a2c:    4620         F      MOV      r0,r4
        0x08006a2e:    f7fffe03    ....    BL       vListInsert ; 0x8006638
        0x08006a32:    2101        .!      MOVS     r1,#1
        0x08006a34:    4628        (F      MOV      r0,r5
        0x08006a36:    f7fefec3    ....    BL       prvAddCurrentTaskToDelayedList ; 0x80057c0
        0x08006a3a:    bd70        p.      POP      {r4-r6,pc}
    $d
        0x08006a3c:    2000001c    ...     DCD    536870940
    $t
    i.vTaskPlaceOnEventListRestricted
    vTaskPlaceOnEventListRestricted
        0x08006a40:    b570        p.      PUSH     {r4-r6,lr}
        0x08006a42:    4605        .F      MOV      r5,r0
        0x08006a44:    460e        .F      MOV      r6,r1
        0x08006a46:    4614        .F      MOV      r4,r2
        0x08006a48:    b955        U.      CBNZ     r5,0x8006a60 ; vTaskPlaceOnEventListRestricted + 32
        0x08006a4a:    bf00        ..      NOP      
        0x08006a4c:    2050        P       MOVS     r0,#0x50
        0x08006a4e:    f3808811    ....    MSR      BASEPRI,r0
        0x08006a52:    f3bf8f4f    ..O.    DSB      
        0x08006a56:    f3bf8f6f    ..o.    ISB      
        0x08006a5a:    bf00        ..      NOP      
        0x08006a5c:    bf00        ..      NOP      
        0x08006a5e:    e7fe        ..      B        0x8006a5e ; vTaskPlaceOnEventListRestricted + 30
        0x08006a60:    4806        .H      LDR      r0,[pc,#24] ; [0x8006a7c] = 0x2000001c
        0x08006a62:    6801        .h      LDR      r1,[r0,#0]
        0x08006a64:    3118        .1      ADDS     r1,r1,#0x18
        0x08006a66:    4628        (F      MOV      r0,r5
        0x08006a68:    f7fffe00    ....    BL       vListInsertEnd ; 0x800666c
        0x08006a6c:    b10c        ..      CBZ      r4,0x8006a72 ; vTaskPlaceOnEventListRestricted + 50
        0x08006a6e:    f04f36ff    O..6    MOV      r6,#0xffffffff
        0x08006a72:    4621        !F      MOV      r1,r4
        0x08006a74:    4630        0F      MOV      r0,r6
        0x08006a76:    f7fefea3    ....    BL       prvAddCurrentTaskToDelayedList ; 0x80057c0
        0x08006a7a:    bd70        p.      POP      {r4-r6,pc}
    $d
        0x08006a7c:    2000001c    ...     DCD    536870940
    $t
    i.vTaskPriorityDisinheritAfterTimeout
    vTaskPriorityDisinheritAfterTimeout
        0x08006a80:    e92d47f0    -..G    PUSH     {r4-r10,lr}
        0x08006a84:    4606        .F      MOV      r6,r0
        0x08006a86:    460f        .F      MOV      r7,r1
        0x08006a88:    4634        4F      MOV      r4,r6
        0x08006a8a:    f04f0901    O...    MOV      r9,#1
        0x08006a8e:    2e00        ..      CMP      r6,#0
        0x08006a90:    d055        U.      BEQ      0x8006b3e ; vTaskPriorityDisinheritAfterTimeout + 190
        0x08006a92:    6d20         m      LDR      r0,[r4,#0x50]
        0x08006a94:    b950        P.      CBNZ     r0,0x8006aac ; vTaskPriorityDisinheritAfterTimeout + 44
        0x08006a96:    bf00        ..      NOP      
        0x08006a98:    2050        P       MOVS     r0,#0x50
        0x08006a9a:    f3808811    ....    MSR      BASEPRI,r0
        0x08006a9e:    f3bf8f4f    ..O.    DSB      
        0x08006aa2:    f3bf8f6f    ..o.    ISB      
        0x08006aa6:    bf00        ..      NOP      
        0x08006aa8:    bf00        ..      NOP      
        0x08006aaa:    e7fe        ..      B        0x8006aaa ; vTaskPriorityDisinheritAfterTimeout + 42
        0x08006aac:    6ce0        .l      LDR      r0,[r4,#0x4c]
        0x08006aae:    42b8        .B      CMP      r0,r7
        0x08006ab0:    d201        ..      BCS      0x8006ab6 ; vTaskPriorityDisinheritAfterTimeout + 54
        0x08006ab2:    463d        =F      MOV      r5,r7
        0x08006ab4:    e000        ..      B        0x8006ab8 ; vTaskPriorityDisinheritAfterTimeout + 56
        0x08006ab6:    6ce5        .l      LDR      r5,[r4,#0x4c]
        0x08006ab8:    6ae0        .j      LDR      r0,[r4,#0x2c]
        0x08006aba:    42a8        .B      CMP      r0,r5
        0x08006abc:    d03f        ?.      BEQ      0x8006b3e ; vTaskPriorityDisinheritAfterTimeout + 190
        0x08006abe:    6d20         m      LDR      r0,[r4,#0x50]
        0x08006ac0:    2801        .(      CMP      r0,#1
        0x08006ac2:    d13c        <.      BNE      0x8006b3e ; vTaskPriorityDisinheritAfterTimeout + 190
        0x08006ac4:    481f        .H      LDR      r0,[pc,#124] ; [0x8006b44] = 0x2000001c
        0x08006ac6:    6800        .h      LDR      r0,[r0,#0]
        0x08006ac8:    4284        .B      CMP      r4,r0
        0x08006aca:    d001        ..      BEQ      0x8006ad0 ; vTaskPriorityDisinheritAfterTimeout + 80
        0x08006acc:    2001        .       MOVS     r0,#1
        0x08006ace:    e000        ..      B        0x8006ad2 ; vTaskPriorityDisinheritAfterTimeout + 82
        0x08006ad0:    2000        .       MOVS     r0,#0
        0x08006ad2:    b950        P.      CBNZ     r0,0x8006aea ; vTaskPriorityDisinheritAfterTimeout + 106
        0x08006ad4:    bf00        ..      NOP      
        0x08006ad6:    2050        P       MOVS     r0,#0x50
        0x08006ad8:    f3808811    ....    MSR      BASEPRI,r0
        0x08006adc:    f3bf8f4f    ..O.    DSB      
        0x08006ae0:    f3bf8f6f    ..o.    ISB      
        0x08006ae4:    bf00        ..      NOP      
        0x08006ae6:    bf00        ..      NOP      
        0x08006ae8:    e7fe        ..      B        0x8006ae8 ; vTaskPriorityDisinheritAfterTimeout + 104
        0x08006aea:    f8d4802c    ..,.    LDR      r8,[r4,#0x2c]
        0x08006aee:    62e5        .b      STR      r5,[r4,#0x2c]
        0x08006af0:    69a0        .i      LDR      r0,[r4,#0x18]
        0x08006af2:    f0004000    ...@    AND      r0,r0,#0x80000000
        0x08006af6:    b910        ..      CBNZ     r0,0x8006afe ; vTaskPriorityDisinheritAfterTimeout + 126
        0x08006af8:    f1c50038    ..8.    RSB      r0,r5,#0x38
        0x08006afc:    61a0        .a      STR      r0,[r4,#0x18]
        0x08006afe:    eb080188    ....    ADD      r1,r8,r8,LSL #2
        0x08006b02:    4a11        .J      LDR      r2,[pc,#68] ; [0x8006b48] = 0x200005d0
        0x08006b04:    eb020181    ....    ADD      r1,r2,r1,LSL #2
        0x08006b08:    6960        `i      LDR      r0,[r4,#0x14]
        0x08006b0a:    4288        .B      CMP      r0,r1
        0x08006b0c:    d101        ..      BNE      0x8006b12 ; vTaskPriorityDisinheritAfterTimeout + 146
        0x08006b0e:    2001        .       MOVS     r0,#1
        0x08006b10:    e000        ..      B        0x8006b14 ; vTaskPriorityDisinheritAfterTimeout + 148
        0x08006b12:    2000        .       MOVS     r0,#0
        0x08006b14:    b198        ..      CBZ      r0,0x8006b3e ; vTaskPriorityDisinheritAfterTimeout + 190
        0x08006b16:    1d20         .      ADDS     r0,r4,#4
        0x08006b18:    f7fffd52    ..R.    BL       uxListRemove ; 0x80065c0
        0x08006b1c:    490b        .I      LDR      r1,[pc,#44] ; [0x8006b4c] = 0x20000034
        0x08006b1e:    6ae0        .j      LDR      r0,[r4,#0x2c]
        0x08006b20:    6809        .h      LDR      r1,[r1,#0]
        0x08006b22:    4288        .B      CMP      r0,r1
        0x08006b24:    d902        ..      BLS      0x8006b2c ; vTaskPriorityDisinheritAfterTimeout + 172
        0x08006b26:    4909        .I      LDR      r1,[pc,#36] ; [0x8006b4c] = 0x20000034
        0x08006b28:    6ae0        .j      LDR      r0,[r4,#0x2c]
        0x08006b2a:    6008        .`      STR      r0,[r1,#0]
        0x08006b2c:    6ae1        .j      LDR      r1,[r4,#0x2c]
        0x08006b2e:    eb010181    ....    ADD      r1,r1,r1,LSL #2
        0x08006b32:    4a05        .J      LDR      r2,[pc,#20] ; [0x8006b48] = 0x200005d0
        0x08006b34:    eb020081    ....    ADD      r0,r2,r1,LSL #2
        0x08006b38:    1d21        !.      ADDS     r1,r4,#4
        0x08006b3a:    f7fffd97    ....    BL       vListInsertEnd ; 0x800666c
        0x08006b3e:    e8bd87f0    ....    POP      {r4-r10,pc}
    $d
        0x08006b42:    0000        ..      DCW    0
        0x08006b44:    2000001c    ...     DCD    536870940
        0x08006b48:    200005d0    ...     DCD    536872400
        0x08006b4c:    20000034    4..     DCD    536870964
    $t
    i.vTaskResume
    vTaskResume
        0x08006b50:    b570        p.      PUSH     {r4-r6,lr}
        0x08006b52:    4605        .F      MOV      r5,r0
        0x08006b54:    462c        ,F      MOV      r4,r5
        0x08006b56:    b955        U.      CBNZ     r5,0x8006b6e ; vTaskResume + 30
        0x08006b58:    bf00        ..      NOP      
        0x08006b5a:    2050        P       MOVS     r0,#0x50
        0x08006b5c:    f3808811    ....    MSR      BASEPRI,r0
        0x08006b60:    f3bf8f4f    ..O.    DSB      
        0x08006b64:    f3bf8f6f    ..o.    ISB      
        0x08006b68:    bf00        ..      NOP      
        0x08006b6a:    bf00        ..      NOP      
        0x08006b6c:    e7fe        ..      B        0x8006b6c ; vTaskResume + 28
        0x08006b6e:    b36c        l.      CBZ      r4,0x8006bcc ; vTaskResume + 124
        0x08006b70:    4817        .H      LDR      r0,[pc,#92] ; [0x8006bd0] = 0x2000001c
        0x08006b72:    6800        .h      LDR      r0,[r0,#0]
        0x08006b74:    4284        .B      CMP      r4,r0
        0x08006b76:    d029        ).      BEQ      0x8006bcc ; vTaskResume + 124
        0x08006b78:    f7fffd84    ....    BL       vPortEnterCritical ; 0x8006684
        0x08006b7c:    4620         F      MOV      r0,r4
        0x08006b7e:    f7fffac3    ....    BL       prvTaskIsTaskSuspended ; 0x8006108
        0x08006b82:    b308        ..      CBZ      r0,0x8006bc8 ; vTaskResume + 120
        0x08006b84:    1d20         .      ADDS     r0,r4,#4
        0x08006b86:    f7fffd1b    ....    BL       uxListRemove ; 0x80065c0
        0x08006b8a:    4912        .I      LDR      r1,[pc,#72] ; [0x8006bd4] = 0x20000034
        0x08006b8c:    6ae0        .j      LDR      r0,[r4,#0x2c]
        0x08006b8e:    6809        .h      LDR      r1,[r1,#0]
        0x08006b90:    4288        .B      CMP      r0,r1
        0x08006b92:    d902        ..      BLS      0x8006b9a ; vTaskResume + 74
        0x08006b94:    490f        .I      LDR      r1,[pc,#60] ; [0x8006bd4] = 0x20000034
        0x08006b96:    6ae0        .j      LDR      r0,[r4,#0x2c]
        0x08006b98:    6008        .`      STR      r0,[r1,#0]
        0x08006b9a:    6ae1        .j      LDR      r1,[r4,#0x2c]
        0x08006b9c:    eb010181    ....    ADD      r1,r1,r1,LSL #2
        0x08006ba0:    4a0d        .J      LDR      r2,[pc,#52] ; [0x8006bd8] = 0x200005d0
        0x08006ba2:    eb020081    ....    ADD      r0,r2,r1,LSL #2
        0x08006ba6:    1d21        !.      ADDS     r1,r4,#4
        0x08006ba8:    f7fffd60    ..`.    BL       vListInsertEnd ; 0x800666c
        0x08006bac:    4908        .I      LDR      r1,[pc,#32] ; [0x8006bd0] = 0x2000001c
        0x08006bae:    6ae0        .j      LDR      r0,[r4,#0x2c]
        0x08006bb0:    6809        .h      LDR      r1,[r1,#0]
        0x08006bb2:    6ac9        .j      LDR      r1,[r1,#0x2c]
        0x08006bb4:    4288        .B      CMP      r0,r1
        0x08006bb6:    d307        ..      BCC      0x8006bc8 ; vTaskResume + 120
        0x08006bb8:    f04f5080    O..P    MOV      r0,#0x10000000
        0x08006bbc:    4907        .I      LDR      r1,[pc,#28] ; [0x8006bdc] = 0xe000ed04
        0x08006bbe:    6008        .`      STR      r0,[r1,#0]
        0x08006bc0:    f3bf8f4f    ..O.    DSB      
        0x08006bc4:    f3bf8f6f    ..o.    ISB      
        0x08006bc8:    f7fffd86    ....    BL       vPortExitCritical ; 0x80066d8
        0x08006bcc:    bd70        p.      POP      {r4-r6,pc}
    $d
        0x08006bce:    0000        ..      DCW    0
        0x08006bd0:    2000001c    ...     DCD    536870940
        0x08006bd4:    20000034    4..     DCD    536870964
        0x08006bd8:    200005d0    ...     DCD    536872400
        0x08006bdc:    e000ed04    ....    DCD    3758157060
    $t
    i.vTaskStartScheduler
    vTaskStartScheduler
        0x08006be0:    b510        ..      PUSH     {r4,lr}
        0x08006be2:    b086        ..      SUB      sp,sp,#0x18
        0x08006be4:    2000        .       MOVS     r0,#0
        0x08006be6:    9005        ..      STR      r0,[sp,#0x14]
        0x08006be8:    9004        ..      STR      r0,[sp,#0x10]
        0x08006bea:    aa03        ..      ADD      r2,sp,#0xc
        0x08006bec:    a904        ..      ADD      r1,sp,#0x10
        0x08006bee:    a805        ..      ADD      r0,sp,#0x14
        0x08006bf0:    f7fffcfa    ....    BL       vApplicationGetIdleTaskMemory ; 0x80065e8
        0x08006bf4:    2200        ."      MOVS     r2,#0
        0x08006bf6:    e9dd1004    ....    LDRD     r1,r0,[sp,#0x10]
        0x08006bfa:    4613        .F      MOV      r3,r2
        0x08006bfc:    e9cd2100    ...!    STRD     r2,r1,[sp,#0]
        0x08006c00:    9002        ..      STR      r0,[sp,#8]
        0x08006c02:    a11e        ..      ADR      r1,{pc}+0x7a ; 0x8006c7c
        0x08006c04:    481f        .H      LDR      r0,[pc,#124] ; [0x8006c84] = 0x8005b61
        0x08006c06:    9a03        ..      LDR      r2,[sp,#0xc]
        0x08006c08:    f000fe7a    ..z.    BL       xTaskCreateStatic ; 0x8007900
        0x08006c0c:    491e        .I      LDR      r1,[pc,#120] ; [0x8006c88] = 0x20000050
        0x08006c0e:    6008        .`      STR      r0,[r1,#0]
        0x08006c10:    4608        .F      MOV      r0,r1
        0x08006c12:    6800        .h      LDR      r0,[r0,#0]
        0x08006c14:    b108        ..      CBZ      r0,0x8006c1a ; vTaskStartScheduler + 58
        0x08006c16:    2401        .$      MOVS     r4,#1
        0x08006c18:    e000        ..      B        0x8006c1c ; vTaskStartScheduler + 60
        0x08006c1a:    2400        .$      MOVS     r4,#0
        0x08006c1c:    2c01        .,      CMP      r4,#1
        0x08006c1e:    d102        ..      BNE      0x8006c26 ; vTaskStartScheduler + 70
        0x08006c20:    f001f8f4    ....    BL       xTimerCreateTimerTask ; 0x8007e0c
        0x08006c24:    4604        .F      MOV      r4,r0
        0x08006c26:    2c01        .,      CMP      r4,#1
        0x08006c28:    d115        ..      BNE      0x8006c56 ; vTaskStartScheduler + 118
        0x08006c2a:    bf00        ..      NOP      
        0x08006c2c:    2050        P       MOVS     r0,#0x50
        0x08006c2e:    f3808811    ....    MSR      BASEPRI,r0
        0x08006c32:    f3bf8f4f    ..O.    DSB      
        0x08006c36:    f3bf8f6f    ..o.    ISB      
        0x08006c3a:    bf00        ..      NOP      
        0x08006c3c:    f04f30ff    O..0    MOV      r0,#0xffffffff
        0x08006c40:    4912        .I      LDR      r1,[pc,#72] ; [0x8006c8c] = 0x2000004c
        0x08006c42:    6008        .`      STR      r0,[r1,#0]
        0x08006c44:    2001        .       MOVS     r0,#1
        0x08006c46:    4912        .I      LDR      r1,[pc,#72] ; [0x8006c90] = 0x20000038
        0x08006c48:    6008        .`      STR      r0,[r1,#0]
        0x08006c4a:    2000        .       MOVS     r0,#0
        0x08006c4c:    4911        .I      LDR      r1,[pc,#68] ; [0x8006c94] = 0x20000030
        0x08006c4e:    6008        .`      STR      r0,[r1,#0]
        0x08006c50:    f000f928    ..(.    BL       xPortStartScheduler ; 0x8006ea4
        0x08006c54:    e010        ..      B        0x8006c78 ; vTaskStartScheduler + 152
        0x08006c56:    1c60        `.      ADDS     r0,r4,#1
        0x08006c58:    b108        ..      CBZ      r0,0x8006c5e ; vTaskStartScheduler + 126
        0x08006c5a:    2001        .       MOVS     r0,#1
        0x08006c5c:    e000        ..      B        0x8006c60 ; vTaskStartScheduler + 128
        0x08006c5e:    2000        .       MOVS     r0,#0
        0x08006c60:    b950        P.      CBNZ     r0,0x8006c78 ; vTaskStartScheduler + 152
        0x08006c62:    bf00        ..      NOP      
        0x08006c64:    2050        P       MOVS     r0,#0x50
        0x08006c66:    f3808811    ....    MSR      BASEPRI,r0
        0x08006c6a:    f3bf8f4f    ..O.    DSB      
        0x08006c6e:    f3bf8f6f    ..o.    ISB      
        0x08006c72:    bf00        ..      NOP      
        0x08006c74:    bf00        ..      NOP      
        0x08006c76:    e7fe        ..      B        0x8006c76 ; vTaskStartScheduler + 150
        0x08006c78:    b006        ..      ADD      sp,sp,#0x18
        0x08006c7a:    bd10        ..      POP      {r4,pc}
    $d
        0x08006c7c:    454c4449    IDLE    DCD    1162626121
        0x08006c80:    00000000    ....    DCD    0
        0x08006c84:    08005b61    a[..    DCD    134241121
        0x08006c88:    20000050    P..     DCD    536870992
        0x08006c8c:    2000004c    L..     DCD    536870988
        0x08006c90:    20000038    8..     DCD    536870968
        0x08006c94:    20000030    0..     DCD    536870960
    $t
    i.vTaskSuspend
    vTaskSuspend
        0x08006c98:    b570        p.      PUSH     {r4-r6,lr}
        0x08006c9a:    4605        .F      MOV      r5,r0
        0x08006c9c:    f7fffcf2    ....    BL       vPortEnterCritical ; 0x8006684
        0x08006ca0:    b915        ..      CBNZ     r5,0x8006ca8 ; vTaskSuspend + 16
        0x08006ca2:    4829        )H      LDR      r0,[pc,#164] ; [0x8006d48] = 0x2000001c
        0x08006ca4:    6800        .h      LDR      r0,[r0,#0]
        0x08006ca6:    e000        ..      B        0x8006caa ; vTaskSuspend + 18
        0x08006ca8:    4628        (F      MOV      r0,r5
        0x08006caa:    4604        .F      MOV      r4,r0
        0x08006cac:    1d20         .      ADDS     r0,r4,#4
        0x08006cae:    f7fffc87    ....    BL       uxListRemove ; 0x80065c0
        0x08006cb2:    6aa0        .j      LDR      r0,[r4,#0x28]
        0x08006cb4:    b118        ..      CBZ      r0,0x8006cbe ; vTaskSuspend + 38
        0x08006cb6:    f1040018    ....    ADD      r0,r4,#0x18
        0x08006cba:    f7fffc81    ....    BL       uxListRemove ; 0x80065c0
        0x08006cbe:    1d21        !.      ADDS     r1,r4,#4
        0x08006cc0:    4822        "H      LDR      r0,[pc,#136] ; [0x8006d4c] = 0x20000a80
        0x08006cc2:    f7fffcd3    ....    BL       vListInsertEnd ; 0x800666c
        0x08006cc6:    f8940058    ..X.    LDRB     r0,[r4,#0x58]
        0x08006cca:    2801        .(      CMP      r0,#1
        0x08006ccc:    d102        ..      BNE      0x8006cd4 ; vTaskSuspend + 60
        0x08006cce:    2000        .       MOVS     r0,#0
        0x08006cd0:    f8840058    ..X.    STRB     r0,[r4,#0x58]
        0x08006cd4:    f7fffd00    ....    BL       vPortExitCritical ; 0x80066d8
        0x08006cd8:    481d        .H      LDR      r0,[pc,#116] ; [0x8006d50] = 0x20000038
        0x08006cda:    6800        .h      LDR      r0,[r0,#0]
        0x08006cdc:    b128        (.      CBZ      r0,0x8006cea ; vTaskSuspend + 82
        0x08006cde:    f7fffcd1    ....    BL       vPortEnterCritical ; 0x8006684
        0x08006ce2:    f7fff971    ..q.    BL       prvResetNextTaskUnblockTime ; 0x8005fc8
        0x08006ce6:    f7fffcf7    ....    BL       vPortExitCritical ; 0x80066d8
        0x08006cea:    4817        .H      LDR      r0,[pc,#92] ; [0x8006d48] = 0x2000001c
        0x08006cec:    6800        .h      LDR      r0,[r0,#0]
        0x08006cee:    4284        .B      CMP      r4,r0
        0x08006cf0:    d129        ).      BNE      0x8006d46 ; vTaskSuspend + 174
        0x08006cf2:    4817        .H      LDR      r0,[pc,#92] ; [0x8006d50] = 0x20000038
        0x08006cf4:    6800        .h      LDR      r0,[r0,#0]
        0x08006cf6:    b1d0        ..      CBZ      r0,0x8006d2e ; vTaskSuspend + 150
        0x08006cf8:    4816        .H      LDR      r0,[pc,#88] ; [0x8006d54] = 0x20000054
        0x08006cfa:    6800        .h      LDR      r0,[r0,#0]
        0x08006cfc:    b908        ..      CBNZ     r0,0x8006d02 ; vTaskSuspend + 106
        0x08006cfe:    2001        .       MOVS     r0,#1
        0x08006d00:    e000        ..      B        0x8006d04 ; vTaskSuspend + 108
        0x08006d02:    2000        .       MOVS     r0,#0
        0x08006d04:    b950        P.      CBNZ     r0,0x8006d1c ; vTaskSuspend + 132
        0x08006d06:    bf00        ..      NOP      
        0x08006d08:    2050        P       MOVS     r0,#0x50
        0x08006d0a:    f3808811    ....    MSR      BASEPRI,r0
        0x08006d0e:    f3bf8f4f    ..O.    DSB      
        0x08006d12:    f3bf8f6f    ..o.    ISB      
        0x08006d16:    bf00        ..      NOP      
        0x08006d18:    bf00        ..      NOP      
        0x08006d1a:    e7fe        ..      B        0x8006d1a ; vTaskSuspend + 130
        0x08006d1c:    f04f5080    O..P    MOV      r0,#0x10000000
        0x08006d20:    490d        .I      LDR      r1,[pc,#52] ; [0x8006d58] = 0xe000ed04
        0x08006d22:    6008        .`      STR      r0,[r1,#0]
        0x08006d24:    f3bf8f4f    ..O.    DSB      
        0x08006d28:    f3bf8f6f    ..o.    ISB      
        0x08006d2c:    e00b        ..      B        0x8006d46 ; vTaskSuspend + 174
        0x08006d2e:    4807        .H      LDR      r0,[pc,#28] ; [0x8006d4c] = 0x20000a80
        0x08006d30:    6800        .h      LDR      r0,[r0,#0]
        0x08006d32:    490a        .I      LDR      r1,[pc,#40] ; [0x8006d5c] = 0x2000002c
        0x08006d34:    6809        .h      LDR      r1,[r1,#0]
        0x08006d36:    4288        .B      CMP      r0,r1
        0x08006d38:    d103        ..      BNE      0x8006d42 ; vTaskSuspend + 170
        0x08006d3a:    2000        .       MOVS     r0,#0
        0x08006d3c:    4902        .I      LDR      r1,[pc,#8] ; [0x8006d48] = 0x2000001c
        0x08006d3e:    6008        .`      STR      r0,[r1,#0]
        0x08006d40:    e001        ..      B        0x8006d46 ; vTaskSuspend + 174
        0x08006d42:    f000f815    ....    BL       vTaskSwitchContext ; 0x8006d70
        0x08006d46:    bd70        p.      POP      {r4-r6,pc}
    $d
        0x08006d48:    2000001c    ...     DCD    536870940
        0x08006d4c:    20000a80    ...     DCD    536873600
        0x08006d50:    20000038    8..     DCD    536870968
        0x08006d54:    20000054    T..     DCD    536870996
        0x08006d58:    e000ed04    ....    DCD    3758157060
        0x08006d5c:    2000002c    ,..     DCD    536870956
    $t
    i.vTaskSuspendAll
    vTaskSuspendAll
        0x08006d60:    4802        .H      LDR      r0,[pc,#8] ; [0x8006d6c] = 0x20000054
        0x08006d62:    6800        .h      LDR      r0,[r0,#0]
        0x08006d64:    1c40        @.      ADDS     r0,r0,#1
        0x08006d66:    4901        .I      LDR      r1,[pc,#4] ; [0x8006d6c] = 0x20000054
        0x08006d68:    6008        .`      STR      r0,[r1,#0]
        0x08006d6a:    4770        pG      BX       lr
    $d
        0x08006d6c:    20000054    T..     DCD    536870996
    $t
    i.vTaskSwitchContext
    vTaskSwitchContext
        0x08006d70:    481e        .H      LDR      r0,[pc,#120] ; [0x8006dec] = 0x20000054
        0x08006d72:    6800        .h      LDR      r0,[r0,#0]
        0x08006d74:    b118        ..      CBZ      r0,0x8006d7e ; vTaskSwitchContext + 14
        0x08006d76:    2001        .       MOVS     r0,#1
        0x08006d78:    491d        .I      LDR      r1,[pc,#116] ; [0x8006df0] = 0x20000040
        0x08006d7a:    6008        .`      STR      r0,[r1,#0]
        0x08006d7c:    e034        4.      B        0x8006de8 ; vTaskSwitchContext + 120
        0x08006d7e:    2000        .       MOVS     r0,#0
        0x08006d80:    491b        .I      LDR      r1,[pc,#108] ; [0x8006df0] = 0x20000040
        0x08006d82:    6008        .`      STR      r0,[r1,#0]
        0x08006d84:    481b        .H      LDR      r0,[pc,#108] ; [0x8006df4] = 0x20000034
        0x08006d86:    6801        .h      LDR      r1,[r0,#0]
        0x08006d88:    e00c        ..      B        0x8006da4 ; vTaskSwitchContext + 52
        0x08006d8a:    b951        Q.      CBNZ     r1,0x8006da2 ; vTaskSwitchContext + 50
        0x08006d8c:    bf00        ..      NOP      
        0x08006d8e:    2050        P       MOVS     r0,#0x50
        0x08006d90:    f3808811    ....    MSR      BASEPRI,r0
        0x08006d94:    f3bf8f4f    ..O.    DSB      
        0x08006d98:    f3bf8f6f    ..o.    ISB      
        0x08006d9c:    bf00        ..      NOP      
        0x08006d9e:    bf00        ..      NOP      
        0x08006da0:    e7fe        ..      B        0x8006da0 ; vTaskSwitchContext + 48
        0x08006da2:    1e49        I.      SUBS     r1,r1,#1
        0x08006da4:    eb010081    ....    ADD      r0,r1,r1,LSL #2
        0x08006da8:    4a13        .J      LDR      r2,[pc,#76] ; [0x8006df8] = 0x200005d0
        0x08006daa:    f8520020    R. .    LDR      r0,[r2,r0,LSL #2]
        0x08006dae:    b908        ..      CBNZ     r0,0x8006db4 ; vTaskSwitchContext + 68
        0x08006db0:    2001        .       MOVS     r0,#1
        0x08006db2:    e000        ..      B        0x8006db6 ; vTaskSwitchContext + 70
        0x08006db4:    2000        .       MOVS     r0,#0
        0x08006db6:    2800        .(      CMP      r0,#0
        0x08006db8:    d1e7        ..      BNE      0x8006d8a ; vTaskSwitchContext + 26
        0x08006dba:    eb010281    ....    ADD      r2,r1,r1,LSL #2
        0x08006dbe:    4b0e        .K      LDR      r3,[pc,#56] ; [0x8006df8] = 0x200005d0
        0x08006dc0:    eb030082    ....    ADD      r0,r3,r2,LSL #2
        0x08006dc4:    6842        Bh      LDR      r2,[r0,#4]
        0x08006dc6:    6852        Rh      LDR      r2,[r2,#4]
        0x08006dc8:    6042        B`      STR      r2,[r0,#4]
        0x08006dca:    f1000208    ....    ADD      r2,r0,#8
        0x08006dce:    6843        Ch      LDR      r3,[r0,#4]
        0x08006dd0:    4293        .B      CMP      r3,r2
        0x08006dd2:    d102        ..      BNE      0x8006dda ; vTaskSwitchContext + 106
        0x08006dd4:    6842        Bh      LDR      r2,[r0,#4]
        0x08006dd6:    6852        Rh      LDR      r2,[r2,#4]
        0x08006dd8:    6042        B`      STR      r2,[r0,#4]
        0x08006dda:    6842        Bh      LDR      r2,[r0,#4]
        0x08006ddc:    68d2        .h      LDR      r2,[r2,#0xc]
        0x08006dde:    4b07        .K      LDR      r3,[pc,#28] ; [0x8006dfc] = 0x2000001c
        0x08006de0:    601a        .`      STR      r2,[r3,#0]
        0x08006de2:    4804        .H      LDR      r0,[pc,#16] ; [0x8006df4] = 0x20000034
        0x08006de4:    6001        .`      STR      r1,[r0,#0]
        0x08006de6:    bf00        ..      NOP      
        0x08006de8:    4770        pG      BX       lr
    $d
        0x08006dea:    0000        ..      DCW    0
        0x08006dec:    20000054    T..     DCD    536870996
        0x08006df0:    20000040    @..     DCD    536870976
        0x08006df4:    20000034    4..     DCD    536870964
        0x08006df8:    200005d0    ...     DCD    536872400
        0x08006dfc:    2000001c    ...     DCD    536870940
    $t
    i.writeCString
    writeCString
        0x08006e00:    b570        p.      PUSH     {r4-r6,lr}
        0x08006e02:    4604        .F      MOV      r4,r0
        0x08006e04:    460e        .F      MOV      r6,r1
        0x08006e06:    4630        0F      MOV      r0,r6
        0x08006e08:    f7f9fa54    ..T.    BL       strlen ; 0x80002b4
        0x08006e0c:    4605        .F      MOV      r5,r0
        0x08006e0e:    4629        )F      MOV      r1,r5
        0x08006e10:    4620         F      MOV      r0,r4
        0x08006e12:    f000f80f    ....    BL       writeInt ; 0x8006e34
        0x08006e16:    462a        *F      MOV      r2,r5
        0x08006e18:    4631        1F      MOV      r1,r6
        0x08006e1a:    6820         h      LDR      r0,[r4,#0]
        0x08006e1c:    f7f9fa14    ....    BL       __aeabi_memcpy ; 0x8000248
        0x08006e20:    6820         h      LDR      r0,[r4,#0]
        0x08006e22:    4428        (D      ADD      r0,r0,r5
        0x08006e24:    6020         `      STR      r0,[r4,#0]
        0x08006e26:    bd70        p.      POP      {r4-r6,pc}
    i.writeChar
    writeChar
        0x08006e28:    6802        .h      LDR      r2,[r0,#0]
        0x08006e2a:    7011        .p      STRB     r1,[r2,#0]
        0x08006e2c:    6802        .h      LDR      r2,[r0,#0]
        0x08006e2e:    1c52        R.      ADDS     r2,r2,#1
        0x08006e30:    6002        .`      STR      r2,[r0,#0]
        0x08006e32:    4770        pG      BX       lr
    i.writeInt
    writeInt
        0x08006e34:    b510        ..      PUSH     {r4,lr}
        0x08006e36:    460a        .F      MOV      r2,r1
        0x08006e38:    17cb        ..      ASRS     r3,r1,#31
        0x08006e3a:    eb016313    ...c    ADD      r3,r1,r3,LSR #24
        0x08006e3e:    0a1b        ..      LSRS     r3,r3,#8
        0x08006e40:    6804        .h      LDR      r4,[r0,#0]
        0x08006e42:    7023        #p      STRB     r3,[r4,#0]
        0x08006e44:    6802        .h      LDR      r2,[r0,#0]
        0x08006e46:    1c52        R.      ADDS     r2,r2,#1
        0x08006e48:    6002        .`      STR      r2,[r0,#0]
        0x08006e4a:    460a        .F      MOV      r2,r1
        0x08006e4c:    17cb        ..      ASRS     r3,r1,#31
        0x08006e4e:    eb016313    ...c    ADD      r3,r1,r3,LSR #24
        0x08006e52:    121b        ..      ASRS     r3,r3,#8
        0x08006e54:    eba12303    ...#    SUB      r3,r1,r3,LSL #8
        0x08006e58:    6804        .h      LDR      r4,[r0,#0]
        0x08006e5a:    7023        #p      STRB     r3,[r4,#0]
        0x08006e5c:    6802        .h      LDR      r2,[r0,#0]
        0x08006e5e:    1c52        R.      ADDS     r2,r2,#1
        0x08006e60:    6002        .`      STR      r2,[r0,#0]
        0x08006e62:    bd10        ..      POP      {r4,pc}
    i.writeMQTTString
    writeMQTTString
        0x08006e64:    b51f        ..      PUSH     {r0-r4,lr}
        0x08006e66:    4604        .F      MOV      r4,r0
        0x08006e68:    9802        ..      LDR      r0,[sp,#8]
        0x08006e6a:    2800        .(      CMP      r0,#0
        0x08006e6c:    dd0d        ..      BLE      0x8006e8a ; writeMQTTString + 38
        0x08006e6e:    4620         F      MOV      r0,r4
        0x08006e70:    9902        ..      LDR      r1,[sp,#8]
        0x08006e72:    f7ffffdf    ....    BL       writeInt ; 0x8006e34
        0x08006e76:    e9dd2102    ...!    LDRD     r2,r1,[sp,#8]
        0x08006e7a:    6820         h      LDR      r0,[r4,#0]
        0x08006e7c:    f7f9f9e4    ....    BL       __aeabi_memcpy ; 0x8000248
        0x08006e80:    6820         h      LDR      r0,[r4,#0]
        0x08006e82:    9902        ..      LDR      r1,[sp,#8]
        0x08006e84:    4408        .D      ADD      r0,r0,r1
        0x08006e86:    6020         `      STR      r0,[r4,#0]
        0x08006e88:    e00a        ..      B        0x8006ea0 ; writeMQTTString + 60
        0x08006e8a:    9801        ..      LDR      r0,[sp,#4]
        0x08006e8c:    b120         .      CBZ      r0,0x8006e98 ; writeMQTTString + 52
        0x08006e8e:    4620         F      MOV      r0,r4
        0x08006e90:    9901        ..      LDR      r1,[sp,#4]
        0x08006e92:    f7ffffb5    ....    BL       writeCString ; 0x8006e00
        0x08006e96:    e003        ..      B        0x8006ea0 ; writeMQTTString + 60
        0x08006e98:    2100        .!      MOVS     r1,#0
        0x08006e9a:    4620         F      MOV      r0,r4
        0x08006e9c:    f7ffffca    ....    BL       writeInt ; 0x8006e34
        0x08006ea0:    bd1f        ..      POP      {r0-r4,pc}
        0x08006ea2:    0000        ..      MOVS     r0,r0
    i.xPortStartScheduler
    xPortStartScheduler
        0x08006ea4:    b51c        ..      PUSH     {r2-r4,lr}
        0x08006ea6:    4938        8I      LDR      r1,[pc,#224] ; [0x8006f88] = 0xe000e400
        0x08006ea8:    4608        .F      MOV      r0,r1
        0x08006eaa:    7800        .x      LDRB     r0,[r0,#0]
        0x08006eac:    9001        ..      STR      r0,[sp,#4]
        0x08006eae:    20ff        .       MOVS     r0,#0xff
        0x08006eb0:    460a        .F      MOV      r2,r1
        0x08006eb2:    7010        .p      STRB     r0,[r2,#0]
        0x08006eb4:    4608        .F      MOV      r0,r1
        0x08006eb6:    7800        .x      LDRB     r0,[r0,#0]
        0x08006eb8:    9000        ..      STR      r0,[sp,#0]
        0x08006eba:    f89d0000    ....    LDRB     r0,[sp,#0]
        0x08006ebe:    f00000f0    ....    AND      r0,r0,#0xf0
        0x08006ec2:    f89d2000    ...     LDRB     r2,[sp,#0]
        0x08006ec6:    4290        .B      CMP      r0,r2
        0x08006ec8:    d101        ..      BNE      0x8006ece ; xPortStartScheduler + 42
        0x08006eca:    2001        .       MOVS     r0,#1
        0x08006ecc:    e000        ..      B        0x8006ed0 ; xPortStartScheduler + 44
        0x08006ece:    2000        .       MOVS     r0,#0
        0x08006ed0:    b950        P.      CBNZ     r0,0x8006ee8 ; xPortStartScheduler + 68
        0x08006ed2:    bf00        ..      NOP      
        0x08006ed4:    2050        P       MOVS     r0,#0x50
        0x08006ed6:    f3808811    ....    MSR      BASEPRI,r0
        0x08006eda:    f3bf8f4f    ..O.    DSB      
        0x08006ede:    f3bf8f6f    ..o.    ISB      
        0x08006ee2:    bf00        ..      NOP      
        0x08006ee4:    bf00        ..      NOP      
        0x08006ee6:    e7fe        ..      B        0x8006ee6 ; xPortStartScheduler + 66
        0x08006ee8:    f89d0000    ....    LDRB     r0,[sp,#0]
        0x08006eec:    f0000050    ..P.    AND      r0,r0,#0x50
        0x08006ef0:    4a26        &J      LDR      r2,[pc,#152] ; [0x8006f8c] = 0x2000008c
        0x08006ef2:    7010        .p      STRB     r0,[r2,#0]
        0x08006ef4:    2007        .       MOVS     r0,#7
        0x08006ef6:    4a26        &J      LDR      r2,[pc,#152] ; [0x8006f90] = 0x20000090
        0x08006ef8:    6010        .`      STR      r0,[r2,#0]
        0x08006efa:    e009        ..      B        0x8006f10 ; xPortStartScheduler + 108
        0x08006efc:    4824        $H      LDR      r0,[pc,#144] ; [0x8006f90] = 0x20000090
        0x08006efe:    6800        .h      LDR      r0,[r0,#0]
        0x08006f00:    1e40        @.      SUBS     r0,r0,#1
        0x08006f02:    4a23        #J      LDR      r2,[pc,#140] ; [0x8006f90] = 0x20000090
        0x08006f04:    6010        .`      STR      r0,[r2,#0]
        0x08006f06:    f89d0000    ....    LDRB     r0,[sp,#0]
        0x08006f0a:    0640        @.      LSLS     r0,r0,#25
        0x08006f0c:    0e00        ..      LSRS     r0,r0,#24
        0x08006f0e:    9000        ..      STR      r0,[sp,#0]
        0x08006f10:    f89d0000    ....    LDRB     r0,[sp,#0]
        0x08006f14:    f0000080    ....    AND      r0,r0,#0x80
        0x08006f18:    2880        .(      CMP      r0,#0x80
        0x08006f1a:    d0ef        ..      BEQ      0x8006efc ; xPortStartScheduler + 88
        0x08006f1c:    481c        .H      LDR      r0,[pc,#112] ; [0x8006f90] = 0x20000090
        0x08006f1e:    6800        .h      LDR      r0,[r0,#0]
        0x08006f20:    f1c00007    ....    RSB      r0,r0,#7
        0x08006f24:    2804        .(      CMP      r0,#4
        0x08006f26:    d101        ..      BNE      0x8006f2c ; xPortStartScheduler + 136
        0x08006f28:    2001        .       MOVS     r0,#1
        0x08006f2a:    e000        ..      B        0x8006f2e ; xPortStartScheduler + 138
        0x08006f2c:    2000        .       MOVS     r0,#0
        0x08006f2e:    b950        P.      CBNZ     r0,0x8006f46 ; xPortStartScheduler + 162
        0x08006f30:    bf00        ..      NOP      
        0x08006f32:    2050        P       MOVS     r0,#0x50
        0x08006f34:    f3808811    ....    MSR      BASEPRI,r0
        0x08006f38:    f3bf8f4f    ..O.    DSB      
        0x08006f3c:    f3bf8f6f    ..o.    ISB      
        0x08006f40:    bf00        ..      NOP      
        0x08006f42:    bf00        ..      NOP      
        0x08006f44:    e7fe        ..      B        0x8006f44 ; xPortStartScheduler + 160
        0x08006f46:    4812        .H      LDR      r0,[pc,#72] ; [0x8006f90] = 0x20000090
        0x08006f48:    6800        .h      LDR      r0,[r0,#0]
        0x08006f4a:    0200        ..      LSLS     r0,r0,#8
        0x08006f4c:    4a10        .J      LDR      r2,[pc,#64] ; [0x8006f90] = 0x20000090
        0x08006f4e:    6010        .`      STR      r0,[r2,#0]
        0x08006f50:    4610        .F      MOV      r0,r2
        0x08006f52:    8800        ..      LDRH     r0,[r0,#0]
        0x08006f54:    f40060e0    ...`    AND      r0,r0,#0x700
        0x08006f58:    6010        .`      STR      r0,[r2,#0]
        0x08006f5a:    4a0b        .J      LDR      r2,[pc,#44] ; [0x8006f88] = 0xe000e400
        0x08006f5c:    9801        ..      LDR      r0,[sp,#4]
        0x08006f5e:    7010        .p      STRB     r0,[r2,#0]
        0x08006f60:    480c        .H      LDR      r0,[pc,#48] ; [0x8006f94] = 0xe000ed20
        0x08006f62:    6800        .h      LDR      r0,[r0,#0]
        0x08006f64:    f4400070    @.p.    ORR      r0,r0,#0xf00000
        0x08006f68:    490a        .I      LDR      r1,[pc,#40] ; [0x8006f94] = 0xe000ed20
        0x08006f6a:    6008        .`      STR      r0,[r1,#0]
        0x08006f6c:    4608        .F      MOV      r0,r1
        0x08006f6e:    6800        .h      LDR      r0,[r0,#0]
        0x08006f70:    f0404070    @.p@    ORR      r0,r0,#0xf0000000
        0x08006f74:    6008        .`      STR      r0,[r1,#0]
        0x08006f76:    f7fffc17    ....    BL       vPortSetupTimerInterrupt ; 0x80067a8
        0x08006f7a:    2000        .       MOVS     r0,#0
        0x08006f7c:    4906        .I      LDR      r1,[pc,#24] ; [0x8006f98] = 0x20000088
        0x08006f7e:    6008        .`      STR      r0,[r1,#0]
        0x08006f80:    f7f9f8f4    ....    BL       __asm___6_port_c_39a90d8d__prvStartFirstTask ; 0x800016c
        0x08006f84:    2000        .       MOVS     r0,#0
        0x08006f86:    bd1c        ..      POP      {r2-r4,pc}
    $d
        0x08006f88:    e000e400    ....    DCD    3758154752
        0x08006f8c:    2000008c    ...     DCD    536871052
        0x08006f90:    20000090    ...     DCD    536871056
        0x08006f94:    e000ed20     ...    DCD    3758157088
        0x08006f98:    20000088    ...     DCD    536871048
    $t
    i.xQueueGenericCreate
    xQueueGenericCreate
        0x08006f9c:    e92d43f8    -..C    PUSH     {r3-r9,lr}
        0x08006fa0:    4605        .F      MOV      r5,r0
        0x08006fa2:    460e        .F      MOV      r6,r1
        0x08006fa4:    4690        .F      MOV      r8,r2
        0x08006fa6:    b10d        ..      CBZ      r5,0x8006fac ; xQueueGenericCreate + 16
        0x08006fa8:    2001        .       MOVS     r0,#1
        0x08006faa:    e000        ..      B        0x8006fae ; xQueueGenericCreate + 18
        0x08006fac:    2000        .       MOVS     r0,#0
        0x08006fae:    b950        P.      CBNZ     r0,0x8006fc6 ; xQueueGenericCreate + 42
        0x08006fb0:    bf00        ..      NOP      
        0x08006fb2:    2050        P       MOVS     r0,#0x50
        0x08006fb4:    f3808811    ....    MSR      BASEPRI,r0
        0x08006fb8:    f3bf8f4f    ..O.    DSB      
        0x08006fbc:    f3bf8f6f    ..o.    ISB      
        0x08006fc0:    bf00        ..      NOP      
        0x08006fc2:    bf00        ..      NOP      
        0x08006fc4:    e7fe        ..      B        0x8006fc4 ; xQueueGenericCreate + 40
        0x08006fc6:    b90e        ..      CBNZ     r6,0x8006fcc ; xQueueGenericCreate + 48
        0x08006fc8:    2700        .'      MOVS     r7,#0
        0x08006fca:    e001        ..      B        0x8006fd0 ; xQueueGenericCreate + 52
        0x08006fcc:    fb05f706    ....    MUL      r7,r5,r6
        0x08006fd0:    f1070050    ..P.    ADD      r0,r7,#0x50
        0x08006fd4:    f7fff910    ....    BL       pvPortMalloc ; 0x80061f8
        0x08006fd8:    4604        .F      MOV      r4,r0
        0x08006fda:    b15c        \.      CBZ      r4,0x8006ff4 ; xQueueGenericCreate + 88
        0x08006fdc:    f1040950    ..P.    ADD      r9,r4,#0x50
        0x08006fe0:    2000        .       MOVS     r0,#0
        0x08006fe2:    f8840046    ..F.    STRB     r0,[r4,#0x46]
        0x08006fe6:    4643        CF      MOV      r3,r8
        0x08006fe8:    464a        JF      MOV      r2,r9
        0x08006fea:    4631        1F      MOV      r1,r6
        0x08006fec:    4628        (F      MOV      r0,r5
        0x08006fee:    9400        ..      STR      r4,[sp,#0]
        0x08006ff0:    f7fefdca    ....    BL       prvInitialiseNewQueue ; 0x8005b88
        0x08006ff4:    4620         F      MOV      r0,r4
        0x08006ff6:    e8bd83f8    ....    POP      {r3-r9,pc}
    i.xQueueGenericCreateStatic
    xQueueGenericCreateStatic
        0x08006ffa:    e92d43f8    -..C    PUSH     {r3-r9,lr}
        0x08006ffe:    4680        .F      MOV      r8,r0
        0x08007000:    460e        .F      MOV      r6,r1
        0x08007002:    4617        .F      MOV      r7,r2
        0x08007004:    461d        .F      MOV      r5,r3
        0x08007006:    f8dd9020    .. .    LDR      r9,[sp,#0x20]
        0x0800700a:    f1b80f00    ....    CMP      r8,#0
        0x0800700e:    d001        ..      BEQ      0x8007014 ; xQueueGenericCreateStatic + 26
        0x08007010:    2001        .       MOVS     r0,#1
        0x08007012:    e000        ..      B        0x8007016 ; xQueueGenericCreateStatic + 28
        0x08007014:    2000        .       MOVS     r0,#0
        0x08007016:    b950        P.      CBNZ     r0,0x800702e ; xQueueGenericCreateStatic + 52
        0x08007018:    bf00        ..      NOP      
        0x0800701a:    2050        P       MOVS     r0,#0x50
        0x0800701c:    f3808811    ....    MSR      BASEPRI,r0
        0x08007020:    f3bf8f4f    ..O.    DSB      
        0x08007024:    f3bf8f6f    ..o.    ISB      
        0x08007028:    bf00        ..      NOP      
        0x0800702a:    bf00        ..      NOP      
        0x0800702c:    e7fe        ..      B        0x800702c ; xQueueGenericCreateStatic + 50
        0x0800702e:    b10d        ..      CBZ      r5,0x8007034 ; xQueueGenericCreateStatic + 58
        0x08007030:    2001        .       MOVS     r0,#1
        0x08007032:    e000        ..      B        0x8007036 ; xQueueGenericCreateStatic + 60
        0x08007034:    2000        .       MOVS     r0,#0
        0x08007036:    b950        P.      CBNZ     r0,0x800704e ; xQueueGenericCreateStatic + 84
        0x08007038:    bf00        ..      NOP      
        0x0800703a:    2050        P       MOVS     r0,#0x50
        0x0800703c:    f3808811    ....    MSR      BASEPRI,r0
        0x08007040:    f3bf8f4f    ..O.    DSB      
        0x08007044:    f3bf8f6f    ..o.    ISB      
        0x08007048:    bf00        ..      NOP      
        0x0800704a:    bf00        ..      NOP      
        0x0800704c:    e7fe        ..      B        0x800704c ; xQueueGenericCreateStatic + 82
        0x0800704e:    b107        ..      CBZ      r7,0x8007052 ; xQueueGenericCreateStatic + 88
        0x08007050:    b10e        ..      CBZ      r6,0x8007056 ; xQueueGenericCreateStatic + 92
        0x08007052:    2001        .       MOVS     r0,#1
        0x08007054:    e000        ..      B        0x8007058 ; xQueueGenericCreateStatic + 94
        0x08007056:    2000        .       MOVS     r0,#0
        0x08007058:    b950        P.      CBNZ     r0,0x8007070 ; xQueueGenericCreateStatic + 118
        0x0800705a:    bf00        ..      NOP      
        0x0800705c:    2050        P       MOVS     r0,#0x50
        0x0800705e:    f3808811    ....    MSR      BASEPRI,r0
        0x08007062:    f3bf8f4f    ..O.    DSB      
        0x08007066:    f3bf8f6f    ..o.    ISB      
        0x0800706a:    bf00        ..      NOP      
        0x0800706c:    bf00        ..      NOP      
        0x0800706e:    e7fe        ..      B        0x800706e ; xQueueGenericCreateStatic + 116
        0x08007070:    b907        ..      CBNZ     r7,0x8007074 ; xQueueGenericCreateStatic + 122
        0x08007072:    b90e        ..      CBNZ     r6,0x8007078 ; xQueueGenericCreateStatic + 126
        0x08007074:    2001        .       MOVS     r0,#1
        0x08007076:    e000        ..      B        0x800707a ; xQueueGenericCreateStatic + 128
        0x08007078:    2000        .       MOVS     r0,#0
        0x0800707a:    b950        P.      CBNZ     r0,0x8007092 ; xQueueGenericCreateStatic + 152
        0x0800707c:    bf00        ..      NOP      
        0x0800707e:    2050        P       MOVS     r0,#0x50
        0x08007080:    f3808811    ....    MSR      BASEPRI,r0
        0x08007084:    f3bf8f4f    ..O.    DSB      
        0x08007088:    f3bf8f6f    ..o.    ISB      
        0x0800708c:    bf00        ..      NOP      
        0x0800708e:    bf00        ..      NOP      
        0x08007090:    e7fe        ..      B        0x8007090 ; xQueueGenericCreateStatic + 150
        0x08007092:    2050        P       MOVS     r0,#0x50
        0x08007094:    9000        ..      STR      r0,[sp,#0]
        0x08007096:    9800        ..      LDR      r0,[sp,#0]
        0x08007098:    2850        P(      CMP      r0,#0x50
        0x0800709a:    d101        ..      BNE      0x80070a0 ; xQueueGenericCreateStatic + 166
        0x0800709c:    2001        .       MOVS     r0,#1
        0x0800709e:    e000        ..      B        0x80070a2 ; xQueueGenericCreateStatic + 168
        0x080070a0:    2000        .       MOVS     r0,#0
        0x080070a2:    b950        P.      CBNZ     r0,0x80070ba ; xQueueGenericCreateStatic + 192
        0x080070a4:    bf00        ..      NOP      
        0x080070a6:    2050        P       MOVS     r0,#0x50
        0x080070a8:    f3808811    ....    MSR      BASEPRI,r0
        0x080070ac:    f3bf8f4f    ..O.    DSB      
        0x080070b0:    f3bf8f6f    ..o.    ISB      
        0x080070b4:    bf00        ..      NOP      
        0x080070b6:    bf00        ..      NOP      
        0x080070b8:    e7fe        ..      B        0x80070b8 ; xQueueGenericCreateStatic + 190
        0x080070ba:    462c        ,F      MOV      r4,r5
        0x080070bc:    b14c        L.      CBZ      r4,0x80070d2 ; xQueueGenericCreateStatic + 216
        0x080070be:    2001        .       MOVS     r0,#1
        0x080070c0:    f8840046    ..F.    STRB     r0,[r4,#0x46]
        0x080070c4:    464b        KF      MOV      r3,r9
        0x080070c6:    463a        :F      MOV      r2,r7
        0x080070c8:    4631        1F      MOV      r1,r6
        0x080070ca:    4640        @F      MOV      r0,r8
        0x080070cc:    9400        ..      STR      r4,[sp,#0]
        0x080070ce:    f7fefd5b    ..[.    BL       prvInitialiseNewQueue ; 0x8005b88
        0x080070d2:    4620         F      MOV      r0,r4
        0x080070d4:    e8bd83f8    ....    POP      {r3-r9,pc}
    i.xQueueGenericReset
    xQueueGenericReset
        0x080070d8:    b570        p.      PUSH     {r4-r6,lr}
        0x080070da:    4605        .F      MOV      r5,r0
        0x080070dc:    460e        .F      MOV      r6,r1
        0x080070de:    462c        ,F      MOV      r4,r5
        0x080070e0:    b954        T.      CBNZ     r4,0x80070f8 ; xQueueGenericReset + 32
        0x080070e2:    bf00        ..      NOP      
        0x080070e4:    2050        P       MOVS     r0,#0x50
        0x080070e6:    f3808811    ....    MSR      BASEPRI,r0
        0x080070ea:    f3bf8f4f    ..O.    DSB      
        0x080070ee:    f3bf8f6f    ..o.    ISB      
        0x080070f2:    bf00        ..      NOP      
        0x080070f4:    bf00        ..      NOP      
        0x080070f6:    e7fe        ..      B        0x80070f6 ; xQueueGenericReset + 30
        0x080070f8:    f7fffac4    ....    BL       vPortEnterCritical ; 0x8006684
        0x080070fc:    e9d4120f    ....    LDRD     r1,r2,[r4,#0x3c]
        0x08007100:    6820         h      LDR      r0,[r4,#0]
        0x08007102:    fb010002    ....    MLA      r0,r1,r2,r0
        0x08007106:    6060        ``      STR      r0,[r4,#4]
        0x08007108:    2000        .       MOVS     r0,#0
        0x0800710a:    63a0        .c      STR      r0,[r4,#0x38]
        0x0800710c:    6820         h      LDR      r0,[r4,#0]
        0x0800710e:    60a0        .`      STR      r0,[r4,#8]
        0x08007110:    6be0        .k      LDR      r0,[r4,#0x3c]
        0x08007112:    1e40        @.      SUBS     r0,r0,#1
        0x08007114:    6c22        "l      LDR      r2,[r4,#0x40]
        0x08007116:    6821        !h      LDR      r1,[r4,#0]
        0x08007118:    fb001002    ....    MLA      r0,r0,r2,r1
        0x0800711c:    60e0        .`      STR      r0,[r4,#0xc]
        0x0800711e:    20ff        .       MOVS     r0,#0xff
        0x08007120:    f8840044    ..D.    STRB     r0,[r4,#0x44]
        0x08007124:    f8840045    ..E.    STRB     r0,[r4,#0x45]
        0x08007128:    b99e        ..      CBNZ     r6,0x8007152 ; xQueueGenericReset + 122
        0x0800712a:    6920         i      LDR      r0,[r4,#0x10]
        0x0800712c:    b908        ..      CBNZ     r0,0x8007132 ; xQueueGenericReset + 90
        0x0800712e:    2001        .       MOVS     r0,#1
        0x08007130:    e000        ..      B        0x8007134 ; xQueueGenericReset + 92
        0x08007132:    2000        .       MOVS     r0,#0
        0x08007134:    b9a8        ..      CBNZ     r0,0x8007162 ; xQueueGenericReset + 138
        0x08007136:    f1040010    ....    ADD      r0,r4,#0x10
        0x0800713a:    f000fd99    ....    BL       xTaskRemoveFromEventList ; 0x8007c70
        0x0800713e:    b180        ..      CBZ      r0,0x8007162 ; xQueueGenericReset + 138
        0x08007140:    f04f5080    O..P    MOV      r0,#0x10000000
        0x08007144:    4909        .I      LDR      r1,[pc,#36] ; [0x800716c] = 0xe000ed04
        0x08007146:    6008        .`      STR      r0,[r1,#0]
        0x08007148:    f3bf8f4f    ..O.    DSB      
        0x0800714c:    f3bf8f6f    ..o.    ISB      
        0x08007150:    e007        ..      B        0x8007162 ; xQueueGenericReset + 138
        0x08007152:    f1040010    ....    ADD      r0,r4,#0x10
        0x08007156:    f7fffa5f    .._.    BL       vListInitialise ; 0x8006618
        0x0800715a:    f1040024    ..$.    ADD      r0,r4,#0x24
        0x0800715e:    f7fffa5b    ..[.    BL       vListInitialise ; 0x8006618
        0x08007162:    f7fffab9    ....    BL       vPortExitCritical ; 0x80066d8
        0x08007166:    2001        .       MOVS     r0,#1
        0x08007168:    bd70        p.      POP      {r4-r6,pc}
    $d
        0x0800716a:    0000        ..      DCW    0
        0x0800716c:    e000ed04    ....    DCD    3758157060
    $t
    i.xQueueGenericSend
    xQueueGenericSend
        0x08007170:    e92d43ff    -..C    PUSH     {r0-r9,lr}
        0x08007174:    b083        ..      SUB      sp,sp,#0xc
        0x08007176:    4606        .F      MOV      r6,r0
        0x08007178:    4688        .F      MOV      r8,r1
        0x0800717a:    461d        .F      MOV      r5,r3
        0x0800717c:    f04f0900    O...    MOV      r9,#0
        0x08007180:    4634        4F      MOV      r4,r6
        0x08007182:    b954        T.      CBNZ     r4,0x800719a ; xQueueGenericSend + 42
        0x08007184:    bf00        ..      NOP      
        0x08007186:    2050        P       MOVS     r0,#0x50
        0x08007188:    f3808811    ....    MSR      BASEPRI,r0
        0x0800718c:    f3bf8f4f    ..O.    DSB      
        0x08007190:    f3bf8f6f    ..o.    ISB      
        0x08007194:    bf00        ..      NOP      
        0x08007196:    bf00        ..      NOP      
        0x08007198:    e7fe        ..      B        0x8007198 ; xQueueGenericSend + 40
        0x0800719a:    f1b80f00    ....    CMP      r8,#0
        0x0800719e:    d101        ..      BNE      0x80071a4 ; xQueueGenericSend + 52
        0x080071a0:    6c20         l      LDR      r0,[r4,#0x40]
        0x080071a2:    b908        ..      CBNZ     r0,0x80071a8 ; xQueueGenericSend + 56
        0x080071a4:    2001        .       MOVS     r0,#1
        0x080071a6:    e000        ..      B        0x80071aa ; xQueueGenericSend + 58
        0x080071a8:    2000        .       MOVS     r0,#0
        0x080071aa:    b950        P.      CBNZ     r0,0x80071c2 ; xQueueGenericSend + 82
        0x080071ac:    bf00        ..      NOP      
        0x080071ae:    2050        P       MOVS     r0,#0x50
        0x080071b0:    f3808811    ....    MSR      BASEPRI,r0
        0x080071b4:    f3bf8f4f    ..O.    DSB      
        0x080071b8:    f3bf8f6f    ..o.    ISB      
        0x080071bc:    bf00        ..      NOP      
        0x080071be:    bf00        ..      NOP      
        0x080071c0:    e7fe        ..      B        0x80071c0 ; xQueueGenericSend + 80
        0x080071c2:    2d02        .-      CMP      r5,#2
        0x080071c4:    d102        ..      BNE      0x80071cc ; xQueueGenericSend + 92
        0x080071c6:    6be0        .k      LDR      r0,[r4,#0x3c]
        0x080071c8:    2801        .(      CMP      r0,#1
        0x080071ca:    d101        ..      BNE      0x80071d0 ; xQueueGenericSend + 96
        0x080071cc:    2001        .       MOVS     r0,#1
        0x080071ce:    e000        ..      B        0x80071d2 ; xQueueGenericSend + 98
        0x080071d0:    2000        .       MOVS     r0,#0
        0x080071d2:    b950        P.      CBNZ     r0,0x80071ea ; xQueueGenericSend + 122
        0x080071d4:    bf00        ..      NOP      
        0x080071d6:    2050        P       MOVS     r0,#0x50
        0x080071d8:    f3808811    ....    MSR      BASEPRI,r0
        0x080071dc:    f3bf8f4f    ..O.    DSB      
        0x080071e0:    f3bf8f6f    ..o.    ISB      
        0x080071e4:    bf00        ..      NOP      
        0x080071e6:    bf00        ..      NOP      
        0x080071e8:    e7fe        ..      B        0x80071e8 ; xQueueGenericSend + 120
        0x080071ea:    f000fbe5    ....    BL       xTaskGetSchedulerState ; 0x80079b8
        0x080071ee:    b908        ..      CBNZ     r0,0x80071f4 ; xQueueGenericSend + 132
        0x080071f0:    9805        ..      LDR      r0,[sp,#0x14]
        0x080071f2:    b908        ..      CBNZ     r0,0x80071f8 ; xQueueGenericSend + 136
        0x080071f4:    2001        .       MOVS     r0,#1
        0x080071f6:    e000        ..      B        0x80071fa ; xQueueGenericSend + 138
        0x080071f8:    2000        .       MOVS     r0,#0
        0x080071fa:    b950        P.      CBNZ     r0,0x8007212 ; xQueueGenericSend + 162
        0x080071fc:    bf00        ..      NOP      
        0x080071fe:    2050        P       MOVS     r0,#0x50
        0x08007200:    f3808811    ....    MSR      BASEPRI,r0
        0x08007204:    f3bf8f4f    ..O.    DSB      
        0x08007208:    f3bf8f6f    ..o.    ISB      
        0x0800720c:    bf00        ..      NOP      
        0x0800720e:    bf00        ..      NOP      
        0x08007210:    e7fe        ..      B        0x8007210 ; xQueueGenericSend + 160
        0x08007212:    bf00        ..      NOP      
        0x08007214:    f7fffa36    ..6.    BL       vPortEnterCritical ; 0x8006684
        0x08007218:    6ba0        .k      LDR      r0,[r4,#0x38]
        0x0800721a:    6be1        .k      LDR      r1,[r4,#0x3c]
        0x0800721c:    4288        .B      CMP      r0,r1
        0x0800721e:    d301        ..      BCC      0x8007224 ; xQueueGenericSend + 180
        0x08007220:    2d02        .-      CMP      r5,#2
        0x08007222:    d128        (.      BNE      0x8007276 ; xQueueGenericSend + 262
        0x08007224:    462a        *F      MOV      r2,r5
        0x08007226:    4641        AF      MOV      r1,r8
        0x08007228:    4620         F      MOV      r0,r4
        0x0800722a:    f7fefbd6    ....    BL       prvCopyDataToQueue ; 0x80059da
        0x0800722e:    4607        .F      MOV      r7,r0
        0x08007230:    6a60        `j      LDR      r0,[r4,#0x24]
        0x08007232:    b908        ..      CBNZ     r0,0x8007238 ; xQueueGenericSend + 200
        0x08007234:    2001        .       MOVS     r0,#1
        0x08007236:    e000        ..      B        0x800723a ; xQueueGenericSend + 202
        0x08007238:    2000        .       MOVS     r0,#0
        0x0800723a:    b968        h.      CBNZ     r0,0x8007258 ; xQueueGenericSend + 232
        0x0800723c:    f1040024    ..$.    ADD      r0,r4,#0x24
        0x08007240:    f000fd16    ....    BL       xTaskRemoveFromEventList ; 0x8007c70
        0x08007244:    b188        ..      CBZ      r0,0x800726a ; xQueueGenericSend + 250
        0x08007246:    f04f5080    O..P    MOV      r0,#0x10000000
        0x0800724a:    4932        2I      LDR      r1,[pc,#200] ; [0x8007314] = 0xe000ed04
        0x0800724c:    6008        .`      STR      r0,[r1,#0]
        0x0800724e:    f3bf8f4f    ..O.    DSB      
        0x08007252:    f3bf8f6f    ..o.    ISB      
        0x08007256:    e008        ..      B        0x800726a ; xQueueGenericSend + 250
        0x08007258:    b13f        ?.      CBZ      r7,0x800726a ; xQueueGenericSend + 250
        0x0800725a:    f04f5080    O..P    MOV      r0,#0x10000000
        0x0800725e:    492d        -I      LDR      r1,[pc,#180] ; [0x8007314] = 0xe000ed04
        0x08007260:    6008        .`      STR      r0,[r1,#0]
        0x08007262:    f3bf8f4f    ..O.    DSB      
        0x08007266:    f3bf8f6f    ..o.    ISB      
        0x0800726a:    f7fffa35    ..5.    BL       vPortExitCritical ; 0x80066d8
        0x0800726e:    2001        .       MOVS     r0,#1
        0x08007270:    b007        ..      ADD      sp,sp,#0x1c
        0x08007272:    e8bd83f0    ....    POP      {r4-r9,pc}
        0x08007276:    9805        ..      LDR      r0,[sp,#0x14]
        0x08007278:    b918        ..      CBNZ     r0,0x8007282 ; xQueueGenericSend + 274
        0x0800727a:    f7fffa2d    ..-.    BL       vPortExitCritical ; 0x80066d8
        0x0800727e:    2000        .       MOVS     r0,#0
        0x08007280:    e7f6        ..      B        0x8007270 ; xQueueGenericSend + 256
        0x08007282:    f1b90f00    ....    CMP      r9,#0
        0x08007286:    d104        ..      BNE      0x8007292 ; xQueueGenericSend + 290
        0x08007288:    a801        ..      ADD      r0,sp,#4
        0x0800728a:    f7fffbab    ....    BL       vTaskInternalSetTimeOutState ; 0x80069e4
        0x0800728e:    f04f0901    O...    MOV      r9,#1
        0x08007292:    f7fffa21    ..!.    BL       vPortExitCritical ; 0x80066d8
        0x08007296:    f7fffd63    ..c.    BL       vTaskSuspendAll ; 0x8006d60
        0x0800729a:    f7fff9f3    ....    BL       vPortEnterCritical ; 0x8006684
        0x0800729e:    f9940044    ..D.    LDRSB    r0,[r4,#0x44]
        0x080072a2:    1c40        @.      ADDS     r0,r0,#1
        0x080072a4:    b910        ..      CBNZ     r0,0x80072ac ; xQueueGenericSend + 316
        0x080072a6:    2000        .       MOVS     r0,#0
        0x080072a8:    f8840044    ..D.    STRB     r0,[r4,#0x44]
        0x080072ac:    f9940045    ..E.    LDRSB    r0,[r4,#0x45]
        0x080072b0:    1c40        @.      ADDS     r0,r0,#1
        0x080072b2:    b910        ..      CBNZ     r0,0x80072ba ; xQueueGenericSend + 330
        0x080072b4:    2000        .       MOVS     r0,#0
        0x080072b6:    f8840045    ..E.    STRB     r0,[r4,#0x45]
        0x080072ba:    f7fffa0d    ....    BL       vPortExitCritical ; 0x80066d8
        0x080072be:    a905        ..      ADD      r1,sp,#0x14
        0x080072c0:    a801        ..      ADD      r0,sp,#4
        0x080072c2:    f000faa5    ....    BL       xTaskCheckForTimeOut ; 0x8007810
        0x080072c6:    b9f0        ..      CBNZ     r0,0x8007306 ; xQueueGenericSend + 406
        0x080072c8:    4620         F      MOV      r0,r4
        0x080072ca:    f7fefd6e    ..n.    BL       prvIsQueueFull ; 0x8005daa
        0x080072ce:    b1a0        ..      CBZ      r0,0x80072fa ; xQueueGenericSend + 394
        0x080072d0:    f1040010    ....    ADD      r0,r4,#0x10
        0x080072d4:    9905        ..      LDR      r1,[sp,#0x14]
        0x080072d6:    f7fffb97    ....    BL       vTaskPlaceOnEventList ; 0x8006a08
        0x080072da:    4620         F      MOV      r0,r4
        0x080072dc:    f7feff4d    ..M.    BL       prvUnlockQueue ; 0x800617a
        0x080072e0:    f000fd12    ....    BL       xTaskResumeAll ; 0x8007d08
        0x080072e4:    2800        .(      CMP      r0,#0
        0x080072e6:    d195        ..      BNE      0x8007214 ; xQueueGenericSend + 164
        0x080072e8:    f04f5080    O..P    MOV      r0,#0x10000000
        0x080072ec:    4909        .I      LDR      r1,[pc,#36] ; [0x8007314] = 0xe000ed04
        0x080072ee:    6008        .`      STR      r0,[r1,#0]
        0x080072f0:    f3bf8f4f    ..O.    DSB      
        0x080072f4:    f3bf8f6f    ..o.    ISB      
        0x080072f8:    e78c        ..      B        0x8007214 ; xQueueGenericSend + 164
        0x080072fa:    4620         F      MOV      r0,r4
        0x080072fc:    f7feff3d    ..=.    BL       prvUnlockQueue ; 0x800617a
        0x08007300:    f000fd02    ....    BL       xTaskResumeAll ; 0x8007d08
        0x08007304:    e786        ..      B        0x8007214 ; xQueueGenericSend + 164
        0x08007306:    4620         F      MOV      r0,r4
        0x08007308:    f7feff37    ..7.    BL       prvUnlockQueue ; 0x800617a
        0x0800730c:    f000fcfc    ....    BL       xTaskResumeAll ; 0x8007d08
        0x08007310:    2000        .       MOVS     r0,#0
        0x08007312:    e7ad        ..      B        0x8007270 ; xQueueGenericSend + 256
    $d
        0x08007314:    e000ed04    ....    DCD    3758157060
    $t
    i.xQueueGenericSendFromISR
    xQueueGenericSendFromISR
        0x08007318:    e92d5ff0    -.._    PUSH     {r4-r12,lr}
        0x0800731c:    4607        .F      MOV      r7,r0
        0x0800731e:    468a        .F      MOV      r10,r1
        0x08007320:    4690        .F      MOV      r8,r2
        0x08007322:    461e        .F      MOV      r6,r3
        0x08007324:    463c        <F      MOV      r4,r7
        0x08007326:    b954        T.      CBNZ     r4,0x800733e ; xQueueGenericSendFromISR + 38
        0x08007328:    bf00        ..      NOP      
        0x0800732a:    2050        P       MOVS     r0,#0x50
        0x0800732c:    f3808811    ....    MSR      BASEPRI,r0
        0x08007330:    f3bf8f4f    ..O.    DSB      
        0x08007334:    f3bf8f6f    ..o.    ISB      
        0x08007338:    bf00        ..      NOP      
        0x0800733a:    bf00        ..      NOP      
        0x0800733c:    e7fe        ..      B        0x800733c ; xQueueGenericSendFromISR + 36
        0x0800733e:    f1ba0f00    ....    CMP      r10,#0
        0x08007342:    d101        ..      BNE      0x8007348 ; xQueueGenericSendFromISR + 48
        0x08007344:    6c20         l      LDR      r0,[r4,#0x40]
        0x08007346:    b908        ..      CBNZ     r0,0x800734c ; xQueueGenericSendFromISR + 52
        0x08007348:    2001        .       MOVS     r0,#1
        0x0800734a:    e000        ..      B        0x800734e ; xQueueGenericSendFromISR + 54
        0x0800734c:    2000        .       MOVS     r0,#0
        0x0800734e:    b950        P.      CBNZ     r0,0x8007366 ; xQueueGenericSendFromISR + 78
        0x08007350:    bf00        ..      NOP      
        0x08007352:    2050        P       MOVS     r0,#0x50
        0x08007354:    f3808811    ....    MSR      BASEPRI,r0
        0x08007358:    f3bf8f4f    ..O.    DSB      
        0x0800735c:    f3bf8f6f    ..o.    ISB      
        0x08007360:    bf00        ..      NOP      
        0x08007362:    bf00        ..      NOP      
        0x08007364:    e7fe        ..      B        0x8007364 ; xQueueGenericSendFromISR + 76
        0x08007366:    2e02        ..      CMP      r6,#2
        0x08007368:    d102        ..      BNE      0x8007370 ; xQueueGenericSendFromISR + 88
        0x0800736a:    6be0        .k      LDR      r0,[r4,#0x3c]
        0x0800736c:    2801        .(      CMP      r0,#1
        0x0800736e:    d101        ..      BNE      0x8007374 ; xQueueGenericSendFromISR + 92
        0x08007370:    2001        .       MOVS     r0,#1
        0x08007372:    e000        ..      B        0x8007376 ; xQueueGenericSendFromISR + 94
        0x08007374:    2000        .       MOVS     r0,#0
        0x08007376:    b950        P.      CBNZ     r0,0x800738e ; xQueueGenericSendFromISR + 118
        0x08007378:    bf00        ..      NOP      
        0x0800737a:    2050        P       MOVS     r0,#0x50
        0x0800737c:    f3808811    ....    MSR      BASEPRI,r0
        0x08007380:    f3bf8f4f    ..O.    DSB      
        0x08007384:    f3bf8f6f    ..o.    ISB      
        0x08007388:    bf00        ..      NOP      
        0x0800738a:    bf00        ..      NOP      
        0x0800738c:    e7fe        ..      B        0x800738c ; xQueueGenericSendFromISR + 116
        0x0800738e:    f7fffa1f    ....    BL       vPortValidateInterruptPriority ; 0x80067d0
        0x08007392:    bf00        ..      NOP      
        0x08007394:    2150        P!      MOVS     r1,#0x50
        0x08007396:    f3ef8011    ....    MRS      r0,BASEPRI
        0x0800739a:    f3818811    ....    MSR      BASEPRI,r1
        0x0800739e:    f3bf8f4f    ..O.    DSB      
        0x080073a2:    f3bf8f6f    ..o.    ISB      
        0x080073a6:    bf00        ..      NOP      
        0x080073a8:    4605        .F      MOV      r5,r0
        0x080073aa:    6ba0        .k      LDR      r0,[r4,#0x38]
        0x080073ac:    6be1        .k      LDR      r1,[r4,#0x3c]
        0x080073ae:    4288        .B      CMP      r0,r1
        0x080073b0:    d301        ..      BCC      0x80073b6 ; xQueueGenericSendFromISR + 158
        0x080073b2:    2e02        ..      CMP      r6,#2
        0x080073b4:    d123        #.      BNE      0x80073fe ; xQueueGenericSendFromISR + 230
        0x080073b6:    f994b045    ..E.    LDRSB    r11,[r4,#0x45]
        0x080073ba:    4632        2F      MOV      r2,r6
        0x080073bc:    4651        QF      MOV      r1,r10
        0x080073be:    4620         F      MOV      r0,r4
        0x080073c0:    f7fefb0b    ....    BL       prvCopyDataToQueue ; 0x80059da
        0x080073c4:    f10b0001    ....    ADD      r0,r11,#1
        0x080073c8:    b988        ..      CBNZ     r0,0x80073ee ; xQueueGenericSendFromISR + 214
        0x080073ca:    6a60        `j      LDR      r0,[r4,#0x24]
        0x080073cc:    b908        ..      CBNZ     r0,0x80073d2 ; xQueueGenericSendFromISR + 186
        0x080073ce:    2001        .       MOVS     r0,#1
        0x080073d0:    e000        ..      B        0x80073d4 ; xQueueGenericSendFromISR + 188
        0x080073d2:    2000        .       MOVS     r0,#0
        0x080073d4:    b980        ..      CBNZ     r0,0x80073f8 ; xQueueGenericSendFromISR + 224
        0x080073d6:    f1040024    ..$.    ADD      r0,r4,#0x24
        0x080073da:    f000fc49    ..I.    BL       xTaskRemoveFromEventList ; 0x8007c70
        0x080073de:    b158        X.      CBZ      r0,0x80073f8 ; xQueueGenericSendFromISR + 224
        0x080073e0:    f1b80f00    ....    CMP      r8,#0
        0x080073e4:    d008        ..      BEQ      0x80073f8 ; xQueueGenericSendFromISR + 224
        0x080073e6:    2001        .       MOVS     r0,#1
        0x080073e8:    f8c80000    ....    STR      r0,[r8,#0]
        0x080073ec:    e004        ..      B        0x80073f8 ; xQueueGenericSendFromISR + 224
        0x080073ee:    f10b0001    ....    ADD      r0,r11,#1
        0x080073f2:    b240        @.      SXTB     r0,r0
        0x080073f4:    f8840045    ..E.    STRB     r0,[r4,#0x45]
        0x080073f8:    f04f0901    O...    MOV      r9,#1
        0x080073fc:    e001        ..      B        0x8007402 ; xQueueGenericSendFromISR + 234
        0x080073fe:    f04f0900    O...    MOV      r9,#0
        0x08007402:    bf00        ..      NOP      
        0x08007404:    f3858811    ....    MSR      BASEPRI,r5
        0x08007408:    bf00        ..      NOP      
        0x0800740a:    4648        HF      MOV      r0,r9
        0x0800740c:    e8bd9ff0    ....    POP      {r4-r12,pc}
    i.xQueueGiveFromISR
    xQueueGiveFromISR
        0x08007410:    e92d47f0    -..G    PUSH     {r4-r10,lr}
        0x08007414:    4606        .F      MOV      r6,r0
        0x08007416:    460f        .F      MOV      r7,r1
        0x08007418:    4634        4F      MOV      r4,r6
        0x0800741a:    b954        T.      CBNZ     r4,0x8007432 ; xQueueGiveFromISR + 34
        0x0800741c:    bf00        ..      NOP      
        0x0800741e:    2050        P       MOVS     r0,#0x50
        0x08007420:    f3808811    ....    MSR      BASEPRI,r0
        0x08007424:    f3bf8f4f    ..O.    DSB      
        0x08007428:    f3bf8f6f    ..o.    ISB      
        0x0800742c:    bf00        ..      NOP      
        0x0800742e:    bf00        ..      NOP      
        0x08007430:    e7fe        ..      B        0x8007430 ; xQueueGiveFromISR + 32
        0x08007432:    6c20         l      LDR      r0,[r4,#0x40]
        0x08007434:    b908        ..      CBNZ     r0,0x800743a ; xQueueGiveFromISR + 42
        0x08007436:    2001        .       MOVS     r0,#1
        0x08007438:    e000        ..      B        0x800743c ; xQueueGiveFromISR + 44
        0x0800743a:    2000        .       MOVS     r0,#0
        0x0800743c:    b950        P.      CBNZ     r0,0x8007454 ; xQueueGiveFromISR + 68
        0x0800743e:    bf00        ..      NOP      
        0x08007440:    2050        P       MOVS     r0,#0x50
        0x08007442:    f3808811    ....    MSR      BASEPRI,r0
        0x08007446:    f3bf8f4f    ..O.    DSB      
        0x0800744a:    f3bf8f6f    ..o.    ISB      
        0x0800744e:    bf00        ..      NOP      
        0x08007450:    bf00        ..      NOP      
        0x08007452:    e7fe        ..      B        0x8007452 ; xQueueGiveFromISR + 66
        0x08007454:    6820         h      LDR      r0,[r4,#0]
        0x08007456:    b908        ..      CBNZ     r0,0x800745c ; xQueueGiveFromISR + 76
        0x08007458:    6860        `h      LDR      r0,[r4,#4]
        0x0800745a:    b908        ..      CBNZ     r0,0x8007460 ; xQueueGiveFromISR + 80
        0x0800745c:    2001        .       MOVS     r0,#1
        0x0800745e:    e000        ..      B        0x8007462 ; xQueueGiveFromISR + 82
        0x08007460:    2000        .       MOVS     r0,#0
        0x08007462:    b950        P.      CBNZ     r0,0x800747a ; xQueueGiveFromISR + 106
        0x08007464:    bf00        ..      NOP      
        0x08007466:    2050        P       MOVS     r0,#0x50
        0x08007468:    f3808811    ....    MSR      BASEPRI,r0
        0x0800746c:    f3bf8f4f    ..O.    DSB      
        0x08007470:    f3bf8f6f    ..o.    ISB      
        0x08007474:    bf00        ..      NOP      
        0x08007476:    bf00        ..      NOP      
        0x08007478:    e7fe        ..      B        0x8007478 ; xQueueGiveFromISR + 104
        0x0800747a:    f7fff9a9    ....    BL       vPortValidateInterruptPriority ; 0x80067d0
        0x0800747e:    bf00        ..      NOP      
        0x08007480:    2150        P!      MOVS     r1,#0x50
        0x08007482:    f3ef8011    ....    MRS      r0,BASEPRI
        0x08007486:    f3818811    ....    MSR      BASEPRI,r1
        0x0800748a:    f3bf8f4f    ..O.    DSB      
        0x0800748e:    f3bf8f6f    ..o.    ISB      
        0x08007492:    bf00        ..      NOP      
        0x08007494:    4605        .F      MOV      r5,r0
        0x08007496:    f8d49038    ..8.    LDR      r9,[r4,#0x38]
        0x0800749a:    6be0        .k      LDR      r0,[r4,#0x3c]
        0x0800749c:    4548        HE      CMP      r0,r9
        0x0800749e:    d91e        ..      BLS      0x80074de ; xQueueGiveFromISR + 206
        0x080074a0:    f994a045    ..E.    LDRSB    r10,[r4,#0x45]
        0x080074a4:    f1090001    ....    ADD      r0,r9,#1
        0x080074a8:    63a0        .c      STR      r0,[r4,#0x38]
        0x080074aa:    f10a0001    ....    ADD      r0,r10,#1
        0x080074ae:    b970        p.      CBNZ     r0,0x80074ce ; xQueueGiveFromISR + 190
        0x080074b0:    6a60        `j      LDR      r0,[r4,#0x24]
        0x080074b2:    b908        ..      CBNZ     r0,0x80074b8 ; xQueueGiveFromISR + 168
        0x080074b4:    2001        .       MOVS     r0,#1
        0x080074b6:    e000        ..      B        0x80074ba ; xQueueGiveFromISR + 170
        0x080074b8:    2000        .       MOVS     r0,#0
        0x080074ba:    b968        h.      CBNZ     r0,0x80074d8 ; xQueueGiveFromISR + 200
        0x080074bc:    f1040024    ..$.    ADD      r0,r4,#0x24
        0x080074c0:    f000fbd6    ....    BL       xTaskRemoveFromEventList ; 0x8007c70
        0x080074c4:    b140        @.      CBZ      r0,0x80074d8 ; xQueueGiveFromISR + 200
        0x080074c6:    b13f        ?.      CBZ      r7,0x80074d8 ; xQueueGiveFromISR + 200
        0x080074c8:    2001        .       MOVS     r0,#1
        0x080074ca:    6038        8`      STR      r0,[r7,#0]
        0x080074cc:    e004        ..      B        0x80074d8 ; xQueueGiveFromISR + 200
        0x080074ce:    f10a0001    ....    ADD      r0,r10,#1
        0x080074d2:    b240        @.      SXTB     r0,r0
        0x080074d4:    f8840045    ..E.    STRB     r0,[r4,#0x45]
        0x080074d8:    f04f0801    O...    MOV      r8,#1
        0x080074dc:    e001        ..      B        0x80074e2 ; xQueueGiveFromISR + 210
        0x080074de:    f04f0800    O...    MOV      r8,#0
        0x080074e2:    bf00        ..      NOP      
        0x080074e4:    f3858811    ....    MSR      BASEPRI,r5
        0x080074e8:    bf00        ..      NOP      
        0x080074ea:    4640        @F      MOV      r0,r8
        0x080074ec:    e8bd87f0    ....    POP      {r4-r10,pc}
    i.xQueueReceive
    xQueueReceive
        0x080074f0:    e92d41f7    -..A    PUSH     {r0-r2,r4-r8,lr}
        0x080074f4:    b083        ..      SUB      sp,sp,#0xc
        0x080074f6:    4605        .F      MOV      r5,r0
        0x080074f8:    460e        .F      MOV      r6,r1
        0x080074fa:    f04f0800    O...    MOV      r8,#0
        0x080074fe:    462c        ,F      MOV      r4,r5
        0x08007500:    b954        T.      CBNZ     r4,0x8007518 ; xQueueReceive + 40
        0x08007502:    bf00        ..      NOP      
        0x08007504:    2050        P       MOVS     r0,#0x50
        0x08007506:    f3808811    ....    MSR      BASEPRI,r0
        0x0800750a:    f3bf8f4f    ..O.    DSB      
        0x0800750e:    f3bf8f6f    ..o.    ISB      
        0x08007512:    bf00        ..      NOP      
        0x08007514:    bf00        ..      NOP      
        0x08007516:    e7fe        ..      B        0x8007516 ; xQueueReceive + 38
        0x08007518:    b90e        ..      CBNZ     r6,0x800751e ; xQueueReceive + 46
        0x0800751a:    6c20         l      LDR      r0,[r4,#0x40]
        0x0800751c:    b908        ..      CBNZ     r0,0x8007522 ; xQueueReceive + 50
        0x0800751e:    2001        .       MOVS     r0,#1
        0x08007520:    e000        ..      B        0x8007524 ; xQueueReceive + 52
        0x08007522:    2000        .       MOVS     r0,#0
        0x08007524:    b950        P.      CBNZ     r0,0x800753c ; xQueueReceive + 76
        0x08007526:    bf00        ..      NOP      
        0x08007528:    2050        P       MOVS     r0,#0x50
        0x0800752a:    f3808811    ....    MSR      BASEPRI,r0
        0x0800752e:    f3bf8f4f    ..O.    DSB      
        0x08007532:    f3bf8f6f    ..o.    ISB      
        0x08007536:    bf00        ..      NOP      
        0x08007538:    bf00        ..      NOP      
        0x0800753a:    e7fe        ..      B        0x800753a ; xQueueReceive + 74
        0x0800753c:    f000fa3c    ..<.    BL       xTaskGetSchedulerState ; 0x80079b8
        0x08007540:    b908        ..      CBNZ     r0,0x8007546 ; xQueueReceive + 86
        0x08007542:    9805        ..      LDR      r0,[sp,#0x14]
        0x08007544:    b908        ..      CBNZ     r0,0x800754a ; xQueueReceive + 90
        0x08007546:    2001        .       MOVS     r0,#1
        0x08007548:    e000        ..      B        0x800754c ; xQueueReceive + 92
        0x0800754a:    2000        .       MOVS     r0,#0
        0x0800754c:    b950        P.      CBNZ     r0,0x8007564 ; xQueueReceive + 116
        0x0800754e:    bf00        ..      NOP      
        0x08007550:    2050        P       MOVS     r0,#0x50
        0x08007552:    f3808811    ....    MSR      BASEPRI,r0
        0x08007556:    f3bf8f4f    ..O.    DSB      
        0x0800755a:    f3bf8f6f    ..o.    ISB      
        0x0800755e:    bf00        ..      NOP      
        0x08007560:    bf00        ..      NOP      
        0x08007562:    e7fe        ..      B        0x8007562 ; xQueueReceive + 114
        0x08007564:    bf00        ..      NOP      
        0x08007566:    f7fff88d    ....    BL       vPortEnterCritical ; 0x8006684
        0x0800756a:    6ba7        .k      LDR      r7,[r4,#0x38]
        0x0800756c:    b1f7        ..      CBZ      r7,0x80075ac ; xQueueReceive + 188
        0x0800756e:    4631        1F      MOV      r1,r6
        0x08007570:    4620         F      MOV      r0,r4
        0x08007572:    f7fefa1d    ....    BL       prvCopyDataFromQueue ; 0x80059b0
        0x08007576:    1e78        x.      SUBS     r0,r7,#1
        0x08007578:    63a0        .c      STR      r0,[r4,#0x38]
        0x0800757a:    6920         i      LDR      r0,[r4,#0x10]
        0x0800757c:    b908        ..      CBNZ     r0,0x8007582 ; xQueueReceive + 146
        0x0800757e:    2001        .       MOVS     r0,#1
        0x08007580:    e000        ..      B        0x8007584 ; xQueueReceive + 148
        0x08007582:    2000        .       MOVS     r0,#0
        0x08007584:    b960        `.      CBNZ     r0,0x80075a0 ; xQueueReceive + 176
        0x08007586:    f1040010    ....    ADD      r0,r4,#0x10
        0x0800758a:    f000fb71    ..q.    BL       xTaskRemoveFromEventList ; 0x8007c70
        0x0800758e:    b138        8.      CBZ      r0,0x80075a0 ; xQueueReceive + 176
        0x08007590:    f04f5080    O..P    MOV      r0,#0x10000000
        0x08007594:    492f        /I      LDR      r1,[pc,#188] ; [0x8007654] = 0xe000ed04
        0x08007596:    6008        .`      STR      r0,[r1,#0]
        0x08007598:    f3bf8f4f    ..O.    DSB      
        0x0800759c:    f3bf8f6f    ..o.    ISB      
        0x080075a0:    f7fff89a    ....    BL       vPortExitCritical ; 0x80066d8
        0x080075a4:    2001        .       MOVS     r0,#1
        0x080075a6:    b006        ..      ADD      sp,sp,#0x18
        0x080075a8:    e8bd81f0    ....    POP      {r4-r8,pc}
        0x080075ac:    9805        ..      LDR      r0,[sp,#0x14]
        0x080075ae:    b918        ..      CBNZ     r0,0x80075b8 ; xQueueReceive + 200
        0x080075b0:    f7fff892    ....    BL       vPortExitCritical ; 0x80066d8
        0x080075b4:    2000        .       MOVS     r0,#0
        0x080075b6:    e7f6        ..      B        0x80075a6 ; xQueueReceive + 182
        0x080075b8:    f1b80f00    ....    CMP      r8,#0
        0x080075bc:    d104        ..      BNE      0x80075c8 ; xQueueReceive + 216
        0x080075be:    a801        ..      ADD      r0,sp,#4
        0x080075c0:    f7fffa10    ....    BL       vTaskInternalSetTimeOutState ; 0x80069e4
        0x080075c4:    f04f0801    O...    MOV      r8,#1
        0x080075c8:    f7fff886    ....    BL       vPortExitCritical ; 0x80066d8
        0x080075cc:    f7fffbc8    ....    BL       vTaskSuspendAll ; 0x8006d60
        0x080075d0:    f7fff858    ..X.    BL       vPortEnterCritical ; 0x8006684
        0x080075d4:    f9940044    ..D.    LDRSB    r0,[r4,#0x44]
        0x080075d8:    1c40        @.      ADDS     r0,r0,#1
        0x080075da:    b910        ..      CBNZ     r0,0x80075e2 ; xQueueReceive + 242
        0x080075dc:    2000        .       MOVS     r0,#0
        0x080075de:    f8840044    ..D.    STRB     r0,[r4,#0x44]
        0x080075e2:    f9940045    ..E.    LDRSB    r0,[r4,#0x45]
        0x080075e6:    1c40        @.      ADDS     r0,r0,#1
        0x080075e8:    b910        ..      CBNZ     r0,0x80075f0 ; xQueueReceive + 256
        0x080075ea:    2000        .       MOVS     r0,#0
        0x080075ec:    f8840045    ..E.    STRB     r0,[r4,#0x45]
        0x080075f0:    f7fff872    ..r.    BL       vPortExitCritical ; 0x80066d8
        0x080075f4:    a905        ..      ADD      r1,sp,#0x14
        0x080075f6:    a801        ..      ADD      r0,sp,#4
        0x080075f8:    f000f90a    ....    BL       xTaskCheckForTimeOut ; 0x8007810
        0x080075fc:    b9f0        ..      CBNZ     r0,0x800763c ; xQueueReceive + 332
        0x080075fe:    4620         F      MOV      r0,r4
        0x08007600:    f7fefbc6    ....    BL       prvIsQueueEmpty ; 0x8005d90
        0x08007604:    b1a0        ..      CBZ      r0,0x8007630 ; xQueueReceive + 320
        0x08007606:    f1040024    ..$.    ADD      r0,r4,#0x24
        0x0800760a:    9905        ..      LDR      r1,[sp,#0x14]
        0x0800760c:    f7fff9fc    ....    BL       vTaskPlaceOnEventList ; 0x8006a08
        0x08007610:    4620         F      MOV      r0,r4
        0x08007612:    f7fefdb2    ....    BL       prvUnlockQueue ; 0x800617a
        0x08007616:    f000fb77    ..w.    BL       xTaskResumeAll ; 0x8007d08
        0x0800761a:    2800        .(      CMP      r0,#0
        0x0800761c:    d1a3        ..      BNE      0x8007566 ; xQueueReceive + 118
        0x0800761e:    f04f5080    O..P    MOV      r0,#0x10000000
        0x08007622:    490c        .I      LDR      r1,[pc,#48] ; [0x8007654] = 0xe000ed04
        0x08007624:    6008        .`      STR      r0,[r1,#0]
        0x08007626:    f3bf8f4f    ..O.    DSB      
        0x0800762a:    f3bf8f6f    ..o.    ISB      
        0x0800762e:    e79a        ..      B        0x8007566 ; xQueueReceive + 118
        0x08007630:    4620         F      MOV      r0,r4
        0x08007632:    f7fefda2    ....    BL       prvUnlockQueue ; 0x800617a
        0x08007636:    f000fb67    ..g.    BL       xTaskResumeAll ; 0x8007d08
        0x0800763a:    e794        ..      B        0x8007566 ; xQueueReceive + 118
        0x0800763c:    4620         F      MOV      r0,r4
        0x0800763e:    f7fefd9c    ....    BL       prvUnlockQueue ; 0x800617a
        0x08007642:    f000fb61    ..a.    BL       xTaskResumeAll ; 0x8007d08
        0x08007646:    4620         F      MOV      r0,r4
        0x08007648:    f7fefba2    ....    BL       prvIsQueueEmpty ; 0x8005d90
        0x0800764c:    2800        .(      CMP      r0,#0
        0x0800764e:    d08a        ..      BEQ      0x8007566 ; xQueueReceive + 118
        0x08007650:    2000        .       MOVS     r0,#0
        0x08007652:    e7a8        ..      B        0x80075a6 ; xQueueReceive + 182
    $d
        0x08007654:    e000ed04    ....    DCD    3758157060
    $t
    i.xQueueSemaphoreTake
    xQueueSemaphoreTake
        0x08007658:    e92d41f3    -..A    PUSH     {r0,r1,r4-r8,lr}
        0x0800765c:    b082        ..      SUB      sp,sp,#8
        0x0800765e:    4605        .F      MOV      r5,r0
        0x08007660:    f04f0800    O...    MOV      r8,#0
        0x08007664:    462c        ,F      MOV      r4,r5
        0x08007666:    2600        .&      MOVS     r6,#0
        0x08007668:    b954        T.      CBNZ     r4,0x8007680 ; xQueueSemaphoreTake + 40
        0x0800766a:    bf00        ..      NOP      
        0x0800766c:    2050        P       MOVS     r0,#0x50
        0x0800766e:    f3808811    ....    MSR      BASEPRI,r0
        0x08007672:    f3bf8f4f    ..O.    DSB      
        0x08007676:    f3bf8f6f    ..o.    ISB      
        0x0800767a:    bf00        ..      NOP      
        0x0800767c:    bf00        ..      NOP      
        0x0800767e:    e7fe        ..      B        0x800767e ; xQueueSemaphoreTake + 38
        0x08007680:    6c20         l      LDR      r0,[r4,#0x40]
        0x08007682:    b908        ..      CBNZ     r0,0x8007688 ; xQueueSemaphoreTake + 48
        0x08007684:    2001        .       MOVS     r0,#1
        0x08007686:    e000        ..      B        0x800768a ; xQueueSemaphoreTake + 50
        0x08007688:    2000        .       MOVS     r0,#0
        0x0800768a:    b950        P.      CBNZ     r0,0x80076a2 ; xQueueSemaphoreTake + 74
        0x0800768c:    bf00        ..      NOP      
        0x0800768e:    2050        P       MOVS     r0,#0x50
        0x08007690:    f3808811    ....    MSR      BASEPRI,r0
        0x08007694:    f3bf8f4f    ..O.    DSB      
        0x08007698:    f3bf8f6f    ..o.    ISB      
        0x0800769c:    bf00        ..      NOP      
        0x0800769e:    bf00        ..      NOP      
        0x080076a0:    e7fe        ..      B        0x80076a0 ; xQueueSemaphoreTake + 72
        0x080076a2:    f000f989    ....    BL       xTaskGetSchedulerState ; 0x80079b8
        0x080076a6:    b908        ..      CBNZ     r0,0x80076ac ; xQueueSemaphoreTake + 84
        0x080076a8:    9803        ..      LDR      r0,[sp,#0xc]
        0x080076aa:    b908        ..      CBNZ     r0,0x80076b0 ; xQueueSemaphoreTake + 88
        0x080076ac:    2001        .       MOVS     r0,#1
        0x080076ae:    e000        ..      B        0x80076b2 ; xQueueSemaphoreTake + 90
        0x080076b0:    2000        .       MOVS     r0,#0
        0x080076b2:    b950        P.      CBNZ     r0,0x80076ca ; xQueueSemaphoreTake + 114
        0x080076b4:    bf00        ..      NOP      
        0x080076b6:    2050        P       MOVS     r0,#0x50
        0x080076b8:    f3808811    ....    MSR      BASEPRI,r0
        0x080076bc:    f3bf8f4f    ..O.    DSB      
        0x080076c0:    f3bf8f6f    ..o.    ISB      
        0x080076c4:    bf00        ..      NOP      
        0x080076c6:    bf00        ..      NOP      
        0x080076c8:    e7fe        ..      B        0x80076c8 ; xQueueSemaphoreTake + 112
        0x080076ca:    bf00        ..      NOP      
        0x080076cc:    f7feffda    ....    BL       vPortEnterCritical ; 0x8006684
        0x080076d0:    6ba7        .k      LDR      r7,[r4,#0x38]
        0x080076d2:    b1ff        ..      CBZ      r7,0x8007714 ; xQueueSemaphoreTake + 188
        0x080076d4:    1e78        x.      SUBS     r0,r7,#1
        0x080076d6:    63a0        .c      STR      r0,[r4,#0x38]
        0x080076d8:    6820         h      LDR      r0,[r4,#0]
        0x080076da:    b910        ..      CBNZ     r0,0x80076e2 ; xQueueSemaphoreTake + 138
        0x080076dc:    f7fefe2a    ..*.    BL       pvTaskIncrementMutexHeldCount ; 0x8006334
        0x080076e0:    6060        ``      STR      r0,[r4,#4]
        0x080076e2:    6920         i      LDR      r0,[r4,#0x10]
        0x080076e4:    b908        ..      CBNZ     r0,0x80076ea ; xQueueSemaphoreTake + 146
        0x080076e6:    2001        .       MOVS     r0,#1
        0x080076e8:    e000        ..      B        0x80076ec ; xQueueSemaphoreTake + 148
        0x080076ea:    2000        .       MOVS     r0,#0
        0x080076ec:    b960        `.      CBNZ     r0,0x8007708 ; xQueueSemaphoreTake + 176
        0x080076ee:    f1040010    ....    ADD      r0,r4,#0x10
        0x080076f2:    f000fabd    ....    BL       xTaskRemoveFromEventList ; 0x8007c70
        0x080076f6:    b138        8.      CBZ      r0,0x8007708 ; xQueueSemaphoreTake + 176
        0x080076f8:    f04f5080    O..P    MOV      r0,#0x10000000
        0x080076fc:    4943        CI      LDR      r1,[pc,#268] ; [0x800780c] = 0xe000ed04
        0x080076fe:    6008        .`      STR      r0,[r1,#0]
        0x08007700:    f3bf8f4f    ..O.    DSB      
        0x08007704:    f3bf8f6f    ..o.    ISB      
        0x08007708:    f7feffe6    ....    BL       vPortExitCritical ; 0x80066d8
        0x0800770c:    2001        .       MOVS     r0,#1
        0x0800770e:    b004        ..      ADD      sp,sp,#0x10
        0x08007710:    e8bd81f0    ....    POP      {r4-r8,pc}
        0x08007714:    9803        ..      LDR      r0,[sp,#0xc]
        0x08007716:    b998        ..      CBNZ     r0,0x8007740 ; xQueueSemaphoreTake + 232
        0x08007718:    b90e        ..      CBNZ     r6,0x800771e ; xQueueSemaphoreTake + 198
        0x0800771a:    2001        .       MOVS     r0,#1
        0x0800771c:    e000        ..      B        0x8007720 ; xQueueSemaphoreTake + 200
        0x0800771e:    2000        .       MOVS     r0,#0
        0x08007720:    b950        P.      CBNZ     r0,0x8007738 ; xQueueSemaphoreTake + 224
        0x08007722:    bf00        ..      NOP      
        0x08007724:    2050        P       MOVS     r0,#0x50
        0x08007726:    f3808811    ....    MSR      BASEPRI,r0
        0x0800772a:    f3bf8f4f    ..O.    DSB      
        0x0800772e:    f3bf8f6f    ..o.    ISB      
        0x08007732:    bf00        ..      NOP      
        0x08007734:    bf00        ..      NOP      
        0x08007736:    e7fe        ..      B        0x8007736 ; xQueueSemaphoreTake + 222
        0x08007738:    f7feffce    ....    BL       vPortExitCritical ; 0x80066d8
        0x0800773c:    2000        .       MOVS     r0,#0
        0x0800773e:    e7e6        ..      B        0x800770e ; xQueueSemaphoreTake + 182
        0x08007740:    f1b80f00    ....    CMP      r8,#0
        0x08007744:    d104        ..      BNE      0x8007750 ; xQueueSemaphoreTake + 248
        0x08007746:    4668        hF      MOV      r0,sp
        0x08007748:    f7fff94c    ..L.    BL       vTaskInternalSetTimeOutState ; 0x80069e4
        0x0800774c:    f04f0801    O...    MOV      r8,#1
        0x08007750:    f7feffc2    ....    BL       vPortExitCritical ; 0x80066d8
        0x08007754:    f7fffb04    ....    BL       vTaskSuspendAll ; 0x8006d60
        0x08007758:    f7feff94    ....    BL       vPortEnterCritical ; 0x8006684
        0x0800775c:    f9940044    ..D.    LDRSB    r0,[r4,#0x44]
        0x08007760:    1c40        @.      ADDS     r0,r0,#1
        0x08007762:    b910        ..      CBNZ     r0,0x800776a ; xQueueSemaphoreTake + 274
        0x08007764:    2000        .       MOVS     r0,#0
        0x08007766:    f8840044    ..D.    STRB     r0,[r4,#0x44]
        0x0800776a:    f9940045    ..E.    LDRSB    r0,[r4,#0x45]
        0x0800776e:    1c40        @.      ADDS     r0,r0,#1
        0x08007770:    b910        ..      CBNZ     r0,0x8007778 ; xQueueSemaphoreTake + 288
        0x08007772:    2000        .       MOVS     r0,#0
        0x08007774:    f8840045    ..E.    STRB     r0,[r4,#0x45]
        0x08007778:    f7feffae    ....    BL       vPortExitCritical ; 0x80066d8
        0x0800777c:    a903        ..      ADD      r1,sp,#0xc
        0x0800777e:    4668        hF      MOV      r0,sp
        0x08007780:    f000f846    ..F.    BL       xTaskCheckForTimeOut ; 0x8007810
        0x08007784:    bb40        @.      CBNZ     r0,0x80077d8 ; xQueueSemaphoreTake + 384
        0x08007786:    4620         F      MOV      r0,r4
        0x08007788:    f7fefb02    ....    BL       prvIsQueueEmpty ; 0x8005d90
        0x0800778c:    b1f0        ..      CBZ      r0,0x80077cc ; xQueueSemaphoreTake + 372
        0x0800778e:    6820         h      LDR      r0,[r4,#0]
        0x08007790:    b938        8.      CBNZ     r0,0x80077a2 ; xQueueSemaphoreTake + 330
        0x08007792:    f7feff77    ..w.    BL       vPortEnterCritical ; 0x8006684
        0x08007796:    6860        `h      LDR      r0,[r4,#4]
        0x08007798:    f000fa18    ....    BL       xTaskPriorityInherit ; 0x8007bcc
        0x0800779c:    4606        .F      MOV      r6,r0
        0x0800779e:    f7feff9b    ....    BL       vPortExitCritical ; 0x80066d8
        0x080077a2:    f1040024    ..$.    ADD      r0,r4,#0x24
        0x080077a6:    9903        ..      LDR      r1,[sp,#0xc]
        0x080077a8:    f7fff92e    ....    BL       vTaskPlaceOnEventList ; 0x8006a08
        0x080077ac:    4620         F      MOV      r0,r4
        0x080077ae:    f7fefce4    ....    BL       prvUnlockQueue ; 0x800617a
        0x080077b2:    f000faa9    ....    BL       xTaskResumeAll ; 0x8007d08
        0x080077b6:    2800        .(      CMP      r0,#0
        0x080077b8:    d188        ..      BNE      0x80076cc ; xQueueSemaphoreTake + 116
        0x080077ba:    f04f5080    O..P    MOV      r0,#0x10000000
        0x080077be:    4913        .I      LDR      r1,[pc,#76] ; [0x800780c] = 0xe000ed04
        0x080077c0:    6008        .`      STR      r0,[r1,#0]
        0x080077c2:    f3bf8f4f    ..O.    DSB      
        0x080077c6:    f3bf8f6f    ..o.    ISB      
        0x080077ca:    e77f        ..      B        0x80076cc ; xQueueSemaphoreTake + 116
        0x080077cc:    4620         F      MOV      r0,r4
        0x080077ce:    f7fefcd4    ....    BL       prvUnlockQueue ; 0x800617a
        0x080077d2:    f000fa99    ....    BL       xTaskResumeAll ; 0x8007d08
        0x080077d6:    e779        y.      B        0x80076cc ; xQueueSemaphoreTake + 116
        0x080077d8:    4620         F      MOV      r0,r4
        0x080077da:    f7fefcce    ....    BL       prvUnlockQueue ; 0x800617a
        0x080077de:    f000fa93    ....    BL       xTaskResumeAll ; 0x8007d08
        0x080077e2:    4620         F      MOV      r0,r4
        0x080077e4:    f7fefad4    ....    BL       prvIsQueueEmpty ; 0x8005d90
        0x080077e8:    2800        .(      CMP      r0,#0
        0x080077ea:    d0ee        ..      BEQ      0x80077ca ; xQueueSemaphoreTake + 370
        0x080077ec:    b15e        ^.      CBZ      r6,0x8007806 ; xQueueSemaphoreTake + 430
        0x080077ee:    f7feff49    ..I.    BL       vPortEnterCritical ; 0x8006684
        0x080077f2:    4620         F      MOV      r0,r4
        0x080077f4:    f7fef957    ..W.    BL       prvGetDisinheritPriorityAfterTimeout ; 0x8005aa6
        0x080077f8:    4607        .F      MOV      r7,r0
        0x080077fa:    4639        9F      MOV      r1,r7
        0x080077fc:    6860        `h      LDR      r0,[r4,#4]
        0x080077fe:    f7fff93f    ..?.    BL       vTaskPriorityDisinheritAfterTimeout ; 0x8006a80
        0x08007802:    f7feff69    ..i.    BL       vPortExitCritical ; 0x80066d8
        0x08007806:    2000        .       MOVS     r0,#0
        0x08007808:    e781        ..      B        0x800770e ; xQueueSemaphoreTake + 182
    $d
        0x0800780a:    0000        ..      DCW    0
        0x0800780c:    e000ed04    ....    DCD    3758157060
    $t
    i.xTaskCheckForTimeOut
    xTaskCheckForTimeOut
        0x08007810:    b570        p.      PUSH     {r4-r6,lr}
        0x08007812:    4605        .F      MOV      r5,r0
        0x08007814:    460c        .F      MOV      r4,r1
        0x08007816:    b955        U.      CBNZ     r5,0x800782e ; xTaskCheckForTimeOut + 30
        0x08007818:    bf00        ..      NOP      
        0x0800781a:    2050        P       MOVS     r0,#0x50
        0x0800781c:    f3808811    ....    MSR      BASEPRI,r0
        0x08007820:    f3bf8f4f    ..O.    DSB      
        0x08007824:    f3bf8f6f    ..o.    ISB      
        0x08007828:    bf00        ..      NOP      
        0x0800782a:    bf00        ..      NOP      
        0x0800782c:    e7fe        ..      B        0x800782c ; xTaskCheckForTimeOut + 28
        0x0800782e:    b954        T.      CBNZ     r4,0x8007846 ; xTaskCheckForTimeOut + 54
        0x08007830:    bf00        ..      NOP      
        0x08007832:    2050        P       MOVS     r0,#0x50
        0x08007834:    f3808811    ....    MSR      BASEPRI,r0
        0x08007838:    f3bf8f4f    ..O.    DSB      
        0x0800783c:    f3bf8f6f    ..o.    ISB      
        0x08007840:    bf00        ..      NOP      
        0x08007842:    bf00        ..      NOP      
        0x08007844:    e7fe        ..      B        0x8007844 ; xTaskCheckForTimeOut + 52
        0x08007846:    f7feff1d    ....    BL       vPortEnterCritical ; 0x8006684
        0x0800784a:    4812        .H      LDR      r0,[pc,#72] ; [0x8007894] = 0x20000030
        0x0800784c:    6802        .h      LDR      r2,[r0,#0]
        0x0800784e:    6868        hh      LDR      r0,[r5,#4]
        0x08007850:    1a13        ..      SUBS     r3,r2,r0
        0x08007852:    6820         h      LDR      r0,[r4,#0]
        0x08007854:    1c40        @.      ADDS     r0,r0,#1
        0x08007856:    b908        ..      CBNZ     r0,0x800785c ; xTaskCheckForTimeOut + 76
        0x08007858:    2600        .&      MOVS     r6,#0
        0x0800785a:    e017        ..      B        0x800788c ; xTaskCheckForTimeOut + 124
        0x0800785c:    490e        .I      LDR      r1,[pc,#56] ; [0x8007898] = 0x20000044
        0x0800785e:    6828        (h      LDR      r0,[r5,#0]
        0x08007860:    6809        .h      LDR      r1,[r1,#0]
        0x08007862:    4288        .B      CMP      r0,r1
        0x08007864:    d004        ..      BEQ      0x8007870 ; xTaskCheckForTimeOut + 96
        0x08007866:    6868        hh      LDR      r0,[r5,#4]
        0x08007868:    4290        .B      CMP      r0,r2
        0x0800786a:    d801        ..      BHI      0x8007870 ; xTaskCheckForTimeOut + 96
        0x0800786c:    2601        .&      MOVS     r6,#1
        0x0800786e:    e00d        ..      B        0x800788c ; xTaskCheckForTimeOut + 124
        0x08007870:    6820         h      LDR      r0,[r4,#0]
        0x08007872:    4298        .B      CMP      r0,r3
        0x08007874:    d907        ..      BLS      0x8007886 ; xTaskCheckForTimeOut + 118
        0x08007876:    6820         h      LDR      r0,[r4,#0]
        0x08007878:    1ac0        ..      SUBS     r0,r0,r3
        0x0800787a:    6020         `      STR      r0,[r4,#0]
        0x0800787c:    4628        (F      MOV      r0,r5
        0x0800787e:    f7fff8b1    ....    BL       vTaskInternalSetTimeOutState ; 0x80069e4
        0x08007882:    2600        .&      MOVS     r6,#0
        0x08007884:    e002        ..      B        0x800788c ; xTaskCheckForTimeOut + 124
        0x08007886:    2000        .       MOVS     r0,#0
        0x08007888:    6020         `      STR      r0,[r4,#0]
        0x0800788a:    2601        .&      MOVS     r6,#1
        0x0800788c:    f7feff24    ..$.    BL       vPortExitCritical ; 0x80066d8
        0x08007890:    4630        0F      MOV      r0,r6
        0x08007892:    bd70        p.      POP      {r4-r6,pc}
    $d
        0x08007894:    20000030    0..     DCD    536870960
        0x08007898:    20000044    D..     DCD    536870980
    $t
    i.xTaskCreate
    xTaskCreate
        0x0800789c:    e92d4fff    -..O    PUSH     {r0-r11,lr}
        0x080078a0:    b085        ..      SUB      sp,sp,#0x14
        0x080078a2:    4680        .F      MOV      r8,r0
        0x080078a4:    4689        .F      MOV      r9,r1
        0x080078a6:    4617        .F      MOV      r7,r2
        0x080078a8:    e9ddab12    ....    LDRD     r10,r11,[sp,#0x48]
        0x080078ac:    00b8        ..      LSLS     r0,r7,#2
        0x080078ae:    f7fefca3    ....    BL       pvPortMalloc ; 0x80061f8
        0x080078b2:    4606        .F      MOV      r6,r0
        0x080078b4:    b156        V.      CBZ      r6,0x80078cc ; xTaskCreate + 48
        0x080078b6:    205c        \       MOVS     r0,#0x5c
        0x080078b8:    f7fefc9e    ....    BL       pvPortMalloc ; 0x80061f8
        0x080078bc:    4604        .F      MOV      r4,r0
        0x080078be:    b10c        ..      CBZ      r4,0x80078c4 ; xTaskCreate + 40
        0x080078c0:    6326        &c      STR      r6,[r4,#0x30]
        0x080078c2:    e004        ..      B        0x80078ce ; xTaskCreate + 50
        0x080078c4:    4630        0F      MOV      r0,r6
        0x080078c6:    f7feff25    ..%.    BL       vPortFree ; 0x8006714
        0x080078ca:    e000        ..      B        0x80078ce ; xTaskCreate + 50
        0x080078cc:    2400        .$      MOVS     r4,#0
        0x080078ce:    b18c        ..      CBZ      r4,0x80078f4 ; xTaskCreate + 88
        0x080078d0:    2000        .       MOVS     r0,#0
        0x080078d2:    f8840059    ..Y.    STRB     r0,[r4,#0x59]
        0x080078d6:    e9cdab00    ....    STRD     r10,r11,[sp,#0]
        0x080078da:    e9cd4002    ...@    STRD     r4,r0,[sp,#8]
        0x080078de:    463a        :F      MOV      r2,r7
        0x080078e0:    4649        IF      MOV      r1,r9
        0x080078e2:    4640        @F      MOV      r0,r8
        0x080078e4:    9b08        ..      LDR      r3,[sp,#0x20]
        0x080078e6:    f7fef964    ..d.    BL       prvInitialiseNewTask ; 0x8005bb2
        0x080078ea:    4620         F      MOV      r0,r4
        0x080078ec:    f7fdffa6    ....    BL       prvAddNewTaskToReadyList ; 0x800583c
        0x080078f0:    2501        .%      MOVS     r5,#1
        0x080078f2:    e001        ..      B        0x80078f8 ; xTaskCreate + 92
        0x080078f4:    f04f35ff    O..5    MOV      r5,#0xffffffff
        0x080078f8:    4628        (F      MOV      r0,r5
        0x080078fa:    b009        ..      ADD      sp,sp,#0x24
        0x080078fc:    e8bd8ff0    ....    POP      {r4-r11,pc}
    i.xTaskCreateStatic
    xTaskCreateStatic
        0x08007900:    e92d4ff0    -..O    PUSH     {r4-r11,lr}
        0x08007904:    b085        ..      SUB      sp,sp,#0x14
        0x08007906:    4607        .F      MOV      r7,r0
        0x08007908:    4688        .F      MOV      r8,r1
        0x0800790a:    4691        .F      MOV      r9,r2
        0x0800790c:    469a        .F      MOV      r10,r3
        0x0800790e:    e9ddb60e    ....    LDRD     r11,r6,[sp,#0x38]
        0x08007912:    9c10        ..      LDR      r4,[sp,#0x40]
        0x08007914:    b10e        ..      CBZ      r6,0x800791a ; xTaskCreateStatic + 26
        0x08007916:    2001        .       MOVS     r0,#1
        0x08007918:    e000        ..      B        0x800791c ; xTaskCreateStatic + 28
        0x0800791a:    2000        .       MOVS     r0,#0
        0x0800791c:    b950        P.      CBNZ     r0,0x8007934 ; xTaskCreateStatic + 52
        0x0800791e:    bf00        ..      NOP      
        0x08007920:    2050        P       MOVS     r0,#0x50
        0x08007922:    f3808811    ....    MSR      BASEPRI,r0
        0x08007926:    f3bf8f4f    ..O.    DSB      
        0x0800792a:    f3bf8f6f    ..o.    ISB      
        0x0800792e:    bf00        ..      NOP      
        0x08007930:    bf00        ..      NOP      
        0x08007932:    e7fe        ..      B        0x8007932 ; xTaskCreateStatic + 50
        0x08007934:    b10c        ..      CBZ      r4,0x800793a ; xTaskCreateStatic + 58
        0x08007936:    2001        .       MOVS     r0,#1
        0x08007938:    e000        ..      B        0x800793c ; xTaskCreateStatic + 60
        0x0800793a:    2000        .       MOVS     r0,#0
        0x0800793c:    b950        P.      CBNZ     r0,0x8007954 ; xTaskCreateStatic + 84
        0x0800793e:    bf00        ..      NOP      
        0x08007940:    2050        P       MOVS     r0,#0x50
        0x08007942:    f3808811    ....    MSR      BASEPRI,r0
        0x08007946:    f3bf8f4f    ..O.    DSB      
        0x0800794a:    f3bf8f6f    ..o.    ISB      
        0x0800794e:    bf00        ..      NOP      
        0x08007950:    bf00        ..      NOP      
        0x08007952:    e7fe        ..      B        0x8007952 ; xTaskCreateStatic + 82
        0x08007954:    205c        \       MOVS     r0,#0x5c
        0x08007956:    9003        ..      STR      r0,[sp,#0xc]
        0x08007958:    9803        ..      LDR      r0,[sp,#0xc]
        0x0800795a:    285c        \(      CMP      r0,#0x5c
        0x0800795c:    d101        ..      BNE      0x8007962 ; xTaskCreateStatic + 98
        0x0800795e:    2001        .       MOVS     r0,#1
        0x08007960:    e000        ..      B        0x8007964 ; xTaskCreateStatic + 100
        0x08007962:    2000        .       MOVS     r0,#0
        0x08007964:    b950        P.      CBNZ     r0,0x800797c ; xTaskCreateStatic + 124
        0x08007966:    bf00        ..      NOP      
        0x08007968:    2050        P       MOVS     r0,#0x50
        0x0800796a:    f3808811    ....    MSR      BASEPRI,r0
        0x0800796e:    f3bf8f4f    ..O.    DSB      
        0x08007972:    f3bf8f6f    ..o.    ISB      
        0x08007976:    bf00        ..      NOP      
        0x08007978:    bf00        ..      NOP      
        0x0800797a:    e7fe        ..      B        0x800797a ; xTaskCreateStatic + 122
        0x0800797c:    b1b4        ..      CBZ      r4,0x80079ac ; xTaskCreateStatic + 172
        0x0800797e:    b1ae        ..      CBZ      r6,0x80079ac ; xTaskCreateStatic + 172
        0x08007980:    4625        %F      MOV      r5,r4
        0x08007982:    462c        ,F      MOV      r4,r5
        0x08007984:    632e        .c      STR      r6,[r5,#0x30]
        0x08007986:    2002        .       MOVS     r0,#2
        0x08007988:    f8850059    ..Y.    STRB     r0,[r5,#0x59]
        0x0800798c:    2000        .       MOVS     r0,#0
        0x0800798e:    a904        ..      ADD      r1,sp,#0x10
        0x08007990:    4653        SF      MOV      r3,r10
        0x08007992:    464a        JF      MOV      r2,r9
        0x08007994:    e9cdb100    ....    STRD     r11,r1,[sp,#0]
        0x08007998:    e9cd5002    ...P    STRD     r5,r0,[sp,#8]
        0x0800799c:    4641        AF      MOV      r1,r8
        0x0800799e:    4638        8F      MOV      r0,r7
        0x080079a0:    f7fef907    ....    BL       prvInitialiseNewTask ; 0x8005bb2
        0x080079a4:    4628        (F      MOV      r0,r5
        0x080079a6:    f7fdff49    ..I.    BL       prvAddNewTaskToReadyList ; 0x800583c
        0x080079aa:    e001        ..      B        0x80079b0 ; xTaskCreateStatic + 176
        0x080079ac:    2000        .       MOVS     r0,#0
        0x080079ae:    9004        ..      STR      r0,[sp,#0x10]
        0x080079b0:    9804        ..      LDR      r0,[sp,#0x10]
        0x080079b2:    b005        ..      ADD      sp,sp,#0x14
        0x080079b4:    e8bd8ff0    ....    POP      {r4-r11,pc}
    i.xTaskGetSchedulerState
    xTaskGetSchedulerState
        0x080079b8:    4905        .I      LDR      r1,[pc,#20] ; [0x80079d0] = 0x20000038
        0x080079ba:    6809        .h      LDR      r1,[r1,#0]
        0x080079bc:    b909        ..      CBNZ     r1,0x80079c2 ; xTaskGetSchedulerState + 10
        0x080079be:    2001        .       MOVS     r0,#1
        0x080079c0:    e005        ..      B        0x80079ce ; xTaskGetSchedulerState + 22
        0x080079c2:    4904        .I      LDR      r1,[pc,#16] ; [0x80079d4] = 0x20000054
        0x080079c4:    6809        .h      LDR      r1,[r1,#0]
        0x080079c6:    b909        ..      CBNZ     r1,0x80079cc ; xTaskGetSchedulerState + 20
        0x080079c8:    2002        .       MOVS     r0,#2
        0x080079ca:    e000        ..      B        0x80079ce ; xTaskGetSchedulerState + 22
        0x080079cc:    2000        .       MOVS     r0,#0
        0x080079ce:    4770        pG      BX       lr
    $d
        0x080079d0:    20000038    8..     DCD    536870968
        0x080079d4:    20000054    T..     DCD    536870996
    $t
    i.xTaskGetTickCount
    xTaskGetTickCount
        0x080079d8:    4901        .I      LDR      r1,[pc,#4] ; [0x80079e0] = 0x20000030
        0x080079da:    6808        .h      LDR      r0,[r1,#0]
        0x080079dc:    4770        pG      BX       lr
    $d
        0x080079de:    0000        ..      DCW    0
        0x080079e0:    20000030    0..     DCD    536870960
    $t
    i.xTaskIncrementTick
    xTaskIncrementTick
        0x080079e4:    e92d41f0    -..A    PUSH     {r4-r8,lr}
        0x080079e8:    f04f0800    O...    MOV      r8,#0
        0x080079ec:    4843        CH      LDR      r0,[pc,#268] ; [0x8007afc] = 0x20000054
        0x080079ee:    6800        .h      LDR      r0,[r0,#0]
        0x080079f0:    2800        .(      CMP      r0,#0
        0x080079f2:    d176        v.      BNE      0x8007ae2 ; xTaskIncrementTick + 254
        0x080079f4:    4842        BH      LDR      r0,[pc,#264] ; [0x8007b00] = 0x20000030
        0x080079f6:    6800        .h      LDR      r0,[r0,#0]
        0x080079f8:    1c45        E.      ADDS     r5,r0,#1
        0x080079fa:    4841        AH      LDR      r0,[pc,#260] ; [0x8007b00] = 0x20000030
        0x080079fc:    6005        .`      STR      r5,[r0,#0]
        0x080079fe:    bb15        ..      CBNZ     r5,0x8007a46 ; xTaskIncrementTick + 98
        0x08007a00:    4840        @H      LDR      r0,[pc,#256] ; [0x8007b04] = 0x20000020
        0x08007a02:    6800        .h      LDR      r0,[r0,#0]
        0x08007a04:    6800        .h      LDR      r0,[r0,#0]
        0x08007a06:    b908        ..      CBNZ     r0,0x8007a0c ; xTaskIncrementTick + 40
        0x08007a08:    2001        .       MOVS     r0,#1
        0x08007a0a:    e000        ..      B        0x8007a0e ; xTaskIncrementTick + 42
        0x08007a0c:    2000        .       MOVS     r0,#0
        0x08007a0e:    b950        P.      CBNZ     r0,0x8007a26 ; xTaskIncrementTick + 66
        0x08007a10:    bf00        ..      NOP      
        0x08007a12:    2050        P       MOVS     r0,#0x50
        0x08007a14:    f3808811    ....    MSR      BASEPRI,r0
        0x08007a18:    f3bf8f4f    ..O.    DSB      
        0x08007a1c:    f3bf8f6f    ..o.    ISB      
        0x08007a20:    bf00        ..      NOP      
        0x08007a22:    bf00        ..      NOP      
        0x08007a24:    e7fe        ..      B        0x8007a24 ; xTaskIncrementTick + 64
        0x08007a26:    4837        7H      LDR      r0,[pc,#220] ; [0x8007b04] = 0x20000020
        0x08007a28:    6807        .h      LDR      r7,[r0,#0]
        0x08007a2a:    4837        7H      LDR      r0,[pc,#220] ; [0x8007b08] = 0x20000024
        0x08007a2c:    6800        .h      LDR      r0,[r0,#0]
        0x08007a2e:    4935        5I      LDR      r1,[pc,#212] ; [0x8007b04] = 0x20000020
        0x08007a30:    6008        .`      STR      r0,[r1,#0]
        0x08007a32:    4835        5H      LDR      r0,[pc,#212] ; [0x8007b08] = 0x20000024
        0x08007a34:    6007        .`      STR      r7,[r0,#0]
        0x08007a36:    4835        5H      LDR      r0,[pc,#212] ; [0x8007b0c] = 0x20000044
        0x08007a38:    6800        .h      LDR      r0,[r0,#0]
        0x08007a3a:    1c40        @.      ADDS     r0,r0,#1
        0x08007a3c:    4933        3I      LDR      r1,[pc,#204] ; [0x8007b0c] = 0x20000044
        0x08007a3e:    6008        .`      STR      r0,[r1,#0]
        0x08007a40:    f7fefac2    ....    BL       prvResetNextTaskUnblockTime ; 0x8005fc8
        0x08007a44:    bf00        ..      NOP      
        0x08007a46:    4832        2H      LDR      r0,[pc,#200] ; [0x8007b10] = 0x2000004c
        0x08007a48:    6800        .h      LDR      r0,[r0,#0]
        0x08007a4a:    4285        .B      CMP      r5,r0
        0x08007a4c:    d33b        ;.      BCC      0x8007ac6 ; xTaskIncrementTick + 226
        0x08007a4e:    bf00        ..      NOP      
        0x08007a50:    482c        ,H      LDR      r0,[pc,#176] ; [0x8007b04] = 0x20000020
        0x08007a52:    6800        .h      LDR      r0,[r0,#0]
        0x08007a54:    6800        .h      LDR      r0,[r0,#0]
        0x08007a56:    b908        ..      CBNZ     r0,0x8007a5c ; xTaskIncrementTick + 120
        0x08007a58:    2001        .       MOVS     r0,#1
        0x08007a5a:    e000        ..      B        0x8007a5e ; xTaskIncrementTick + 122
        0x08007a5c:    2000        .       MOVS     r0,#0
        0x08007a5e:    b120         .      CBZ      r0,0x8007a6a ; xTaskIncrementTick + 134
        0x08007a60:    f04f30ff    O..0    MOV      r0,#0xffffffff
        0x08007a64:    492a        *I      LDR      r1,[pc,#168] ; [0x8007b10] = 0x2000004c
        0x08007a66:    6008        .`      STR      r0,[r1,#0]
        0x08007a68:    e02c        ,.      B        0x8007ac4 ; xTaskIncrementTick + 224
        0x08007a6a:    4826        &H      LDR      r0,[pc,#152] ; [0x8007b04] = 0x20000020
        0x08007a6c:    6800        .h      LDR      r0,[r0,#0]
        0x08007a6e:    68c0        .h      LDR      r0,[r0,#0xc]
        0x08007a70:    68c4        .h      LDR      r4,[r0,#0xc]
        0x08007a72:    6866        fh      LDR      r6,[r4,#4]
        0x08007a74:    42b5        .B      CMP      r5,r6
        0x08007a76:    d202        ..      BCS      0x8007a7e ; xTaskIncrementTick + 154
        0x08007a78:    4825        %H      LDR      r0,[pc,#148] ; [0x8007b10] = 0x2000004c
        0x08007a7a:    6006        .`      STR      r6,[r0,#0]
        0x08007a7c:    e022        ".      B        0x8007ac4 ; xTaskIncrementTick + 224
        0x08007a7e:    1d20         .      ADDS     r0,r4,#4
        0x08007a80:    f7fefd9e    ....    BL       uxListRemove ; 0x80065c0
        0x08007a84:    6aa0        .j      LDR      r0,[r4,#0x28]
        0x08007a86:    b118        ..      CBZ      r0,0x8007a90 ; xTaskIncrementTick + 172
        0x08007a88:    f1040018    ....    ADD      r0,r4,#0x18
        0x08007a8c:    f7fefd98    ....    BL       uxListRemove ; 0x80065c0
        0x08007a90:    4920         I      LDR      r1,[pc,#128] ; [0x8007b14] = 0x20000034
        0x08007a92:    6ae0        .j      LDR      r0,[r4,#0x2c]
        0x08007a94:    6809        .h      LDR      r1,[r1,#0]
        0x08007a96:    4288        .B      CMP      r0,r1
        0x08007a98:    d902        ..      BLS      0x8007aa0 ; xTaskIncrementTick + 188
        0x08007a9a:    491e        .I      LDR      r1,[pc,#120] ; [0x8007b14] = 0x20000034
        0x08007a9c:    6ae0        .j      LDR      r0,[r4,#0x2c]
        0x08007a9e:    6008        .`      STR      r0,[r1,#0]
        0x08007aa0:    6ae1        .j      LDR      r1,[r4,#0x2c]
        0x08007aa2:    eb010181    ....    ADD      r1,r1,r1,LSL #2
        0x08007aa6:    4a1c        .J      LDR      r2,[pc,#112] ; [0x8007b18] = 0x200005d0
        0x08007aa8:    eb020081    ....    ADD      r0,r2,r1,LSL #2
        0x08007aac:    1d21        !.      ADDS     r1,r4,#4
        0x08007aae:    f7fefddd    ....    BL       vListInsertEnd ; 0x800666c
        0x08007ab2:    491a        .I      LDR      r1,[pc,#104] ; [0x8007b1c] = 0x2000001c
        0x08007ab4:    6ae0        .j      LDR      r0,[r4,#0x2c]
        0x08007ab6:    6809        .h      LDR      r1,[r1,#0]
        0x08007ab8:    6ac9        .j      LDR      r1,[r1,#0x2c]
        0x08007aba:    4288        .B      CMP      r0,r1
        0x08007abc:    d3c8        ..      BCC      0x8007a50 ; xTaskIncrementTick + 108
        0x08007abe:    f04f0801    O...    MOV      r8,#1
        0x08007ac2:    e7c5        ..      B        0x8007a50 ; xTaskIncrementTick + 108
        0x08007ac4:    bf00        ..      NOP      
        0x08007ac6:    4815        .H      LDR      r0,[pc,#84] ; [0x8007b1c] = 0x2000001c
        0x08007ac8:    6800        .h      LDR      r0,[r0,#0]
        0x08007aca:    6ac0        .j      LDR      r0,[r0,#0x2c]
        0x08007acc:    eb000080    ....    ADD      r0,r0,r0,LSL #2
        0x08007ad0:    4911        .I      LDR      r1,[pc,#68] ; [0x8007b18] = 0x200005d0
        0x08007ad2:    f8510020    Q. .    LDR      r0,[r1,r0,LSL #2]
        0x08007ad6:    2801        .(      CMP      r0,#1
        0x08007ad8:    d901        ..      BLS      0x8007ade ; xTaskIncrementTick + 250
        0x08007ada:    f04f0801    O...    MOV      r8,#1
        0x08007ade:    e005        ..      B        0x8007aec ; xTaskIncrementTick + 264
        0x08007ae0:    e7ff        ..      B        0x8007ae2 ; xTaskIncrementTick + 254
        0x08007ae2:    480f        .H      LDR      r0,[pc,#60] ; [0x8007b20] = 0x2000003c
        0x08007ae4:    6800        .h      LDR      r0,[r0,#0]
        0x08007ae6:    1c40        @.      ADDS     r0,r0,#1
        0x08007ae8:    490d        .I      LDR      r1,[pc,#52] ; [0x8007b20] = 0x2000003c
        0x08007aea:    6008        .`      STR      r0,[r1,#0]
        0x08007aec:    480d        .H      LDR      r0,[pc,#52] ; [0x8007b24] = 0x20000040
        0x08007aee:    6800        .h      LDR      r0,[r0,#0]
        0x08007af0:    b108        ..      CBZ      r0,0x8007af6 ; xTaskIncrementTick + 274
        0x08007af2:    f04f0801    O...    MOV      r8,#1
        0x08007af6:    4640        @F      MOV      r0,r8
        0x08007af8:    e8bd81f0    ....    POP      {r4-r8,pc}
    $d
        0x08007afc:    20000054    T..     DCD    536870996
        0x08007b00:    20000030    0..     DCD    536870960
        0x08007b04:    20000020     ..     DCD    536870944
        0x08007b08:    20000024    $..     DCD    536870948
        0x08007b0c:    20000044    D..     DCD    536870980
        0x08007b10:    2000004c    L..     DCD    536870988
        0x08007b14:    20000034    4..     DCD    536870964
        0x08007b18:    200005d0    ...     DCD    536872400
        0x08007b1c:    2000001c    ...     DCD    536870940
        0x08007b20:    2000003c    <..     DCD    536870972
        0x08007b24:    20000040    @..     DCD    536870976
    $t
    i.xTaskPriorityDisinherit
    xTaskPriorityDisinherit
        0x08007b28:    b570        p.      PUSH     {r4-r6,lr}
        0x08007b2a:    4605        .F      MOV      r5,r0
        0x08007b2c:    462c        ,F      MOV      r4,r5
        0x08007b2e:    2600        .&      MOVS     r6,#0
        0x08007b30:    2d00        .-      CMP      r5,#0
        0x08007b32:    d043        C.      BEQ      0x8007bbc ; xTaskPriorityDisinherit + 148
        0x08007b34:    4822        "H      LDR      r0,[pc,#136] ; [0x8007bc0] = 0x2000001c
        0x08007b36:    6800        .h      LDR      r0,[r0,#0]
        0x08007b38:    4284        .B      CMP      r4,r0
        0x08007b3a:    d101        ..      BNE      0x8007b40 ; xTaskPriorityDisinherit + 24
        0x08007b3c:    2001        .       MOVS     r0,#1
        0x08007b3e:    e000        ..      B        0x8007b42 ; xTaskPriorityDisinherit + 26
        0x08007b40:    2000        .       MOVS     r0,#0
        0x08007b42:    b950        P.      CBNZ     r0,0x8007b5a ; xTaskPriorityDisinherit + 50
        0x08007b44:    bf00        ..      NOP      
        0x08007b46:    2050        P       MOVS     r0,#0x50
        0x08007b48:    f3808811    ....    MSR      BASEPRI,r0
        0x08007b4c:    f3bf8f4f    ..O.    DSB      
        0x08007b50:    f3bf8f6f    ..o.    ISB      
        0x08007b54:    bf00        ..      NOP      
        0x08007b56:    bf00        ..      NOP      
        0x08007b58:    e7fe        ..      B        0x8007b58 ; xTaskPriorityDisinherit + 48
        0x08007b5a:    6d20         m      LDR      r0,[r4,#0x50]
        0x08007b5c:    b950        P.      CBNZ     r0,0x8007b74 ; xTaskPriorityDisinherit + 76
        0x08007b5e:    bf00        ..      NOP      
        0x08007b60:    2050        P       MOVS     r0,#0x50
        0x08007b62:    f3808811    ....    MSR      BASEPRI,r0
        0x08007b66:    f3bf8f4f    ..O.    DSB      
        0x08007b6a:    f3bf8f6f    ..o.    ISB      
        0x08007b6e:    bf00        ..      NOP      
        0x08007b70:    bf00        ..      NOP      
        0x08007b72:    e7fe        ..      B        0x8007b72 ; xTaskPriorityDisinherit + 74
        0x08007b74:    6d20         m      LDR      r0,[r4,#0x50]
        0x08007b76:    1e40        @.      SUBS     r0,r0,#1
        0x08007b78:    6520         e      STR      r0,[r4,#0x50]
        0x08007b7a:    6ce1        .l      LDR      r1,[r4,#0x4c]
        0x08007b7c:    6ae0        .j      LDR      r0,[r4,#0x2c]
        0x08007b7e:    4288        .B      CMP      r0,r1
        0x08007b80:    d01c        ..      BEQ      0x8007bbc ; xTaskPriorityDisinherit + 148
        0x08007b82:    6d20         m      LDR      r0,[r4,#0x50]
        0x08007b84:    b9d0        ..      CBNZ     r0,0x8007bbc ; xTaskPriorityDisinherit + 148
        0x08007b86:    1d20         .      ADDS     r0,r4,#4
        0x08007b88:    f7fefd1a    ....    BL       uxListRemove ; 0x80065c0
        0x08007b8c:    6ce0        .l      LDR      r0,[r4,#0x4c]
        0x08007b8e:    62e0        .b      STR      r0,[r4,#0x2c]
        0x08007b90:    6ae0        .j      LDR      r0,[r4,#0x2c]
        0x08007b92:    f1c00038    ..8.    RSB      r0,r0,#0x38
        0x08007b96:    61a0        .a      STR      r0,[r4,#0x18]
        0x08007b98:    490a        .I      LDR      r1,[pc,#40] ; [0x8007bc4] = 0x20000034
        0x08007b9a:    6ae0        .j      LDR      r0,[r4,#0x2c]
        0x08007b9c:    6809        .h      LDR      r1,[r1,#0]
        0x08007b9e:    4288        .B      CMP      r0,r1
        0x08007ba0:    d902        ..      BLS      0x8007ba8 ; xTaskPriorityDisinherit + 128
        0x08007ba2:    4908        .I      LDR      r1,[pc,#32] ; [0x8007bc4] = 0x20000034
        0x08007ba4:    6ae0        .j      LDR      r0,[r4,#0x2c]
        0x08007ba6:    6008        .`      STR      r0,[r1,#0]
        0x08007ba8:    6ae1        .j      LDR      r1,[r4,#0x2c]
        0x08007baa:    eb010181    ....    ADD      r1,r1,r1,LSL #2
        0x08007bae:    4a06        .J      LDR      r2,[pc,#24] ; [0x8007bc8] = 0x200005d0
        0x08007bb0:    eb020081    ....    ADD      r0,r2,r1,LSL #2
        0x08007bb4:    1d21        !.      ADDS     r1,r4,#4
        0x08007bb6:    f7fefd59    ..Y.    BL       vListInsertEnd ; 0x800666c
        0x08007bba:    2601        .&      MOVS     r6,#1
        0x08007bbc:    4630        0F      MOV      r0,r6
        0x08007bbe:    bd70        p.      POP      {r4-r6,pc}
    $d
        0x08007bc0:    2000001c    ...     DCD    536870940
        0x08007bc4:    20000034    4..     DCD    536870964
        0x08007bc8:    200005d0    ...     DCD    536872400
    $t
    i.xTaskPriorityInherit
    xTaskPriorityInherit
        0x08007bcc:    b570        p.      PUSH     {r4-r6,lr}
        0x08007bce:    4605        .F      MOV      r5,r0
        0x08007bd0:    462c        ,F      MOV      r4,r5
        0x08007bd2:    2600        .&      MOVS     r6,#0
        0x08007bd4:    2d00        .-      CMP      r5,#0
        0x08007bd6:    d042        B.      BEQ      0x8007c5e ; xTaskPriorityInherit + 146
        0x08007bd8:    4922        "I      LDR      r1,[pc,#136] ; [0x8007c64] = 0x2000001c
        0x08007bda:    6ae0        .j      LDR      r0,[r4,#0x2c]
        0x08007bdc:    6809        .h      LDR      r1,[r1,#0]
        0x08007bde:    6ac9        .j      LDR      r1,[r1,#0x2c]
        0x08007be0:    4288        .B      CMP      r0,r1
        0x08007be2:    d235        5.      BCS      0x8007c50 ; xTaskPriorityInherit + 132
        0x08007be4:    69a0        .i      LDR      r0,[r4,#0x18]
        0x08007be6:    f0004000    ...@    AND      r0,r0,#0x80000000
        0x08007bea:    b928        (.      CBNZ     r0,0x8007bf8 ; xTaskPriorityInherit + 44
        0x08007bec:    481d        .H      LDR      r0,[pc,#116] ; [0x8007c64] = 0x2000001c
        0x08007bee:    6800        .h      LDR      r0,[r0,#0]
        0x08007bf0:    6ac0        .j      LDR      r0,[r0,#0x2c]
        0x08007bf2:    f1c00038    ..8.    RSB      r0,r0,#0x38
        0x08007bf6:    61a0        .a      STR      r0,[r4,#0x18]
        0x08007bf8:    6ae1        .j      LDR      r1,[r4,#0x2c]
        0x08007bfa:    eb010181    ....    ADD      r1,r1,r1,LSL #2
        0x08007bfe:    4a1a        .J      LDR      r2,[pc,#104] ; [0x8007c68] = 0x200005d0
        0x08007c00:    eb020181    ....    ADD      r1,r2,r1,LSL #2
        0x08007c04:    6960        `i      LDR      r0,[r4,#0x14]
        0x08007c06:    4288        .B      CMP      r0,r1
        0x08007c08:    d101        ..      BNE      0x8007c0e ; xTaskPriorityInherit + 66
        0x08007c0a:    2001        .       MOVS     r0,#1
        0x08007c0c:    e000        ..      B        0x8007c10 ; xTaskPriorityInherit + 68
        0x08007c0e:    2000        .       MOVS     r0,#0
        0x08007c10:    b1c0        ..      CBZ      r0,0x8007c44 ; xTaskPriorityInherit + 120
        0x08007c12:    1d20         .      ADDS     r0,r4,#4
        0x08007c14:    f7fefcd4    ....    BL       uxListRemove ; 0x80065c0
        0x08007c18:    4812        .H      LDR      r0,[pc,#72] ; [0x8007c64] = 0x2000001c
        0x08007c1a:    6800        .h      LDR      r0,[r0,#0]
        0x08007c1c:    6ac0        .j      LDR      r0,[r0,#0x2c]
        0x08007c1e:    62e0        .b      STR      r0,[r4,#0x2c]
        0x08007c20:    4912        .I      LDR      r1,[pc,#72] ; [0x8007c6c] = 0x20000034
        0x08007c22:    6ae0        .j      LDR      r0,[r4,#0x2c]
        0x08007c24:    6809        .h      LDR      r1,[r1,#0]
        0x08007c26:    4288        .B      CMP      r0,r1
        0x08007c28:    d902        ..      BLS      0x8007c30 ; xTaskPriorityInherit + 100
        0x08007c2a:    4910        .I      LDR      r1,[pc,#64] ; [0x8007c6c] = 0x20000034
        0x08007c2c:    6ae0        .j      LDR      r0,[r4,#0x2c]
        0x08007c2e:    6008        .`      STR      r0,[r1,#0]
        0x08007c30:    6ae1        .j      LDR      r1,[r4,#0x2c]
        0x08007c32:    eb010181    ....    ADD      r1,r1,r1,LSL #2
        0x08007c36:    4a0c        .J      LDR      r2,[pc,#48] ; [0x8007c68] = 0x200005d0
        0x08007c38:    eb020081    ....    ADD      r0,r2,r1,LSL #2
        0x08007c3c:    1d21        !.      ADDS     r1,r4,#4
        0x08007c3e:    f7fefd15    ....    BL       vListInsertEnd ; 0x800666c
        0x08007c42:    e003        ..      B        0x8007c4c ; xTaskPriorityInherit + 128
        0x08007c44:    4807        .H      LDR      r0,[pc,#28] ; [0x8007c64] = 0x2000001c
        0x08007c46:    6800        .h      LDR      r0,[r0,#0]
        0x08007c48:    6ac0        .j      LDR      r0,[r0,#0x2c]
        0x08007c4a:    62e0        .b      STR      r0,[r4,#0x2c]
        0x08007c4c:    2601        .&      MOVS     r6,#1
        0x08007c4e:    e006        ..      B        0x8007c5e ; xTaskPriorityInherit + 146
        0x08007c50:    4904        .I      LDR      r1,[pc,#16] ; [0x8007c64] = 0x2000001c
        0x08007c52:    6ce0        .l      LDR      r0,[r4,#0x4c]
        0x08007c54:    6809        .h      LDR      r1,[r1,#0]
        0x08007c56:    6ac9        .j      LDR      r1,[r1,#0x2c]
        0x08007c58:    4288        .B      CMP      r0,r1
        0x08007c5a:    d200        ..      BCS      0x8007c5e ; xTaskPriorityInherit + 146
        0x08007c5c:    2601        .&      MOVS     r6,#1
        0x08007c5e:    4630        0F      MOV      r0,r6
        0x08007c60:    bd70        p.      POP      {r4-r6,pc}
    $d
        0x08007c62:    0000        ..      DCW    0
        0x08007c64:    2000001c    ...     DCD    536870940
        0x08007c68:    200005d0    ...     DCD    536872400
        0x08007c6c:    20000034    4..     DCD    536870964
    $t
    i.xTaskRemoveFromEventList
    xTaskRemoveFromEventList
        0x08007c70:    b570        p.      PUSH     {r4-r6,lr}
        0x08007c72:    4606        .F      MOV      r6,r0
        0x08007c74:    68f0        .h      LDR      r0,[r6,#0xc]
        0x08007c76:    68c4        .h      LDR      r4,[r0,#0xc]
        0x08007c78:    b954        T.      CBNZ     r4,0x8007c90 ; xTaskRemoveFromEventList + 32
        0x08007c7a:    bf00        ..      NOP      
        0x08007c7c:    2050        P       MOVS     r0,#0x50
        0x08007c7e:    f3808811    ....    MSR      BASEPRI,r0
        0x08007c82:    f3bf8f4f    ..O.    DSB      
        0x08007c86:    f3bf8f6f    ..o.    ISB      
        0x08007c8a:    bf00        ..      NOP      
        0x08007c8c:    bf00        ..      NOP      
        0x08007c8e:    e7fe        ..      B        0x8007c8e ; xTaskRemoveFromEventList + 30
        0x08007c90:    f1040018    ....    ADD      r0,r4,#0x18
        0x08007c94:    f7fefc94    ....    BL       uxListRemove ; 0x80065c0
        0x08007c98:    4815        .H      LDR      r0,[pc,#84] ; [0x8007cf0] = 0x20000054
        0x08007c9a:    6800        .h      LDR      r0,[r0,#0]
        0x08007c9c:    b9a0        ..      CBNZ     r0,0x8007cc8 ; xTaskRemoveFromEventList + 88
        0x08007c9e:    1d20         .      ADDS     r0,r4,#4
        0x08007ca0:    f7fefc8e    ....    BL       uxListRemove ; 0x80065c0
        0x08007ca4:    4913        .I      LDR      r1,[pc,#76] ; [0x8007cf4] = 0x20000034
        0x08007ca6:    6ae0        .j      LDR      r0,[r4,#0x2c]
        0x08007ca8:    6809        .h      LDR      r1,[r1,#0]
        0x08007caa:    4288        .B      CMP      r0,r1
        0x08007cac:    d902        ..      BLS      0x8007cb4 ; xTaskRemoveFromEventList + 68
        0x08007cae:    4911        .I      LDR      r1,[pc,#68] ; [0x8007cf4] = 0x20000034
        0x08007cb0:    6ae0        .j      LDR      r0,[r4,#0x2c]
        0x08007cb2:    6008        .`      STR      r0,[r1,#0]
        0x08007cb4:    6ae1        .j      LDR      r1,[r4,#0x2c]
        0x08007cb6:    eb010181    ....    ADD      r1,r1,r1,LSL #2
        0x08007cba:    4a0f        .J      LDR      r2,[pc,#60] ; [0x8007cf8] = 0x200005d0
        0x08007cbc:    eb020081    ....    ADD      r0,r2,r1,LSL #2
        0x08007cc0:    1d21        !.      ADDS     r1,r4,#4
        0x08007cc2:    f7fefcd3    ....    BL       vListInsertEnd ; 0x800666c
        0x08007cc6:    e004        ..      B        0x8007cd2 ; xTaskRemoveFromEventList + 98
        0x08007cc8:    f1040118    ....    ADD      r1,r4,#0x18
        0x08007ccc:    480b        .H      LDR      r0,[pc,#44] ; [0x8007cfc] = 0x20000a58
        0x08007cce:    f7fefccd    ....    BL       vListInsertEnd ; 0x800666c
        0x08007cd2:    490b        .I      LDR      r1,[pc,#44] ; [0x8007d00] = 0x2000001c
        0x08007cd4:    6ae0        .j      LDR      r0,[r4,#0x2c]
        0x08007cd6:    6809        .h      LDR      r1,[r1,#0]
        0x08007cd8:    6ac9        .j      LDR      r1,[r1,#0x2c]
        0x08007cda:    4288        .B      CMP      r0,r1
        0x08007cdc:    d904        ..      BLS      0x8007ce8 ; xTaskRemoveFromEventList + 120
        0x08007cde:    2501        .%      MOVS     r5,#1
        0x08007ce0:    2001        .       MOVS     r0,#1
        0x08007ce2:    4908        .I      LDR      r1,[pc,#32] ; [0x8007d04] = 0x20000040
        0x08007ce4:    6008        .`      STR      r0,[r1,#0]
        0x08007ce6:    e000        ..      B        0x8007cea ; xTaskRemoveFromEventList + 122
        0x08007ce8:    2500        .%      MOVS     r5,#0
        0x08007cea:    4628        (F      MOV      r0,r5
        0x08007cec:    bd70        p.      POP      {r4-r6,pc}
    $d
        0x08007cee:    0000        ..      DCW    0
        0x08007cf0:    20000054    T..     DCD    536870996
        0x08007cf4:    20000034    4..     DCD    536870964
        0x08007cf8:    200005d0    ...     DCD    536872400
        0x08007cfc:    20000a58    X..     DCD    536873560
        0x08007d00:    2000001c    ...     DCD    536870940
        0x08007d04:    20000040    @..     DCD    536870976
    $t
    i.xTaskResumeAll
    xTaskResumeAll
        0x08007d08:    b570        p.      PUSH     {r4-r6,lr}
        0x08007d0a:    2400        .$      MOVS     r4,#0
        0x08007d0c:    2600        .&      MOVS     r6,#0
        0x08007d0e:    4836        6H      LDR      r0,[pc,#216] ; [0x8007de8] = 0x20000054
        0x08007d10:    6800        .h      LDR      r0,[r0,#0]
        0x08007d12:    b950        P.      CBNZ     r0,0x8007d2a ; xTaskResumeAll + 34
        0x08007d14:    bf00        ..      NOP      
        0x08007d16:    2050        P       MOVS     r0,#0x50
        0x08007d18:    f3808811    ....    MSR      BASEPRI,r0
        0x08007d1c:    f3bf8f4f    ..O.    DSB      
        0x08007d20:    f3bf8f6f    ..o.    ISB      
        0x08007d24:    bf00        ..      NOP      
        0x08007d26:    bf00        ..      NOP      
        0x08007d28:    e7fe        ..      B        0x8007d28 ; xTaskResumeAll + 32
        0x08007d2a:    f7fefcab    ....    BL       vPortEnterCritical ; 0x8006684
        0x08007d2e:    482e        .H      LDR      r0,[pc,#184] ; [0x8007de8] = 0x20000054
        0x08007d30:    6800        .h      LDR      r0,[r0,#0]
        0x08007d32:    1e40        @.      SUBS     r0,r0,#1
        0x08007d34:    492c        ,I      LDR      r1,[pc,#176] ; [0x8007de8] = 0x20000054
        0x08007d36:    6008        .`      STR      r0,[r1,#0]
        0x08007d38:    4608        .F      MOV      r0,r1
        0x08007d3a:    6800        .h      LDR      r0,[r0,#0]
        0x08007d3c:    2800        .(      CMP      r0,#0
        0x08007d3e:    d14e        N.      BNE      0x8007dde ; xTaskResumeAll + 214
        0x08007d40:    482a        *H      LDR      r0,[pc,#168] ; [0x8007dec] = 0x2000002c
        0x08007d42:    6800        .h      LDR      r0,[r0,#0]
        0x08007d44:    2800        .(      CMP      r0,#0
        0x08007d46:    d04a        J.      BEQ      0x8007dde ; xTaskResumeAll + 214
        0x08007d48:    e023        #.      B        0x8007d92 ; xTaskResumeAll + 138
        0x08007d4a:    4829        )H      LDR      r0,[pc,#164] ; [0x8007df0] = 0x20000a58
        0x08007d4c:    68c0        .h      LDR      r0,[r0,#0xc]
        0x08007d4e:    68c4        .h      LDR      r4,[r0,#0xc]
        0x08007d50:    f1040018    ....    ADD      r0,r4,#0x18
        0x08007d54:    f7fefc34    ..4.    BL       uxListRemove ; 0x80065c0
        0x08007d58:    1d20         .      ADDS     r0,r4,#4
        0x08007d5a:    f7fefc31    ..1.    BL       uxListRemove ; 0x80065c0
        0x08007d5e:    4925        %I      LDR      r1,[pc,#148] ; [0x8007df4] = 0x20000034
        0x08007d60:    6ae0        .j      LDR      r0,[r4,#0x2c]
        0x08007d62:    6809        .h      LDR      r1,[r1,#0]
        0x08007d64:    4288        .B      CMP      r0,r1
        0x08007d66:    d902        ..      BLS      0x8007d6e ; xTaskResumeAll + 102
        0x08007d68:    4922        "I      LDR      r1,[pc,#136] ; [0x8007df4] = 0x20000034
        0x08007d6a:    6ae0        .j      LDR      r0,[r4,#0x2c]
        0x08007d6c:    6008        .`      STR      r0,[r1,#0]
        0x08007d6e:    6ae1        .j      LDR      r1,[r4,#0x2c]
        0x08007d70:    eb010181    ....    ADD      r1,r1,r1,LSL #2
        0x08007d74:    4a20         J      LDR      r2,[pc,#128] ; [0x8007df8] = 0x200005d0
        0x08007d76:    eb020081    ....    ADD      r0,r2,r1,LSL #2
        0x08007d7a:    1d21        !.      ADDS     r1,r4,#4
        0x08007d7c:    f7fefc76    ..v.    BL       vListInsertEnd ; 0x800666c
        0x08007d80:    491e        .I      LDR      r1,[pc,#120] ; [0x8007dfc] = 0x2000001c
        0x08007d82:    6ae0        .j      LDR      r0,[r4,#0x2c]
        0x08007d84:    6809        .h      LDR      r1,[r1,#0]
        0x08007d86:    6ac9        .j      LDR      r1,[r1,#0x2c]
        0x08007d88:    4288        .B      CMP      r0,r1
        0x08007d8a:    d302        ..      BCC      0x8007d92 ; xTaskResumeAll + 138
        0x08007d8c:    2001        .       MOVS     r0,#1
        0x08007d8e:    491c        .I      LDR      r1,[pc,#112] ; [0x8007e00] = 0x20000040
        0x08007d90:    6008        .`      STR      r0,[r1,#0]
        0x08007d92:    4817        .H      LDR      r0,[pc,#92] ; [0x8007df0] = 0x20000a58
        0x08007d94:    6800        .h      LDR      r0,[r0,#0]
        0x08007d96:    b908        ..      CBNZ     r0,0x8007d9c ; xTaskResumeAll + 148
        0x08007d98:    2001        .       MOVS     r0,#1
        0x08007d9a:    e000        ..      B        0x8007d9e ; xTaskResumeAll + 150
        0x08007d9c:    2000        .       MOVS     r0,#0
        0x08007d9e:    2800        .(      CMP      r0,#0
        0x08007da0:    d0d3        ..      BEQ      0x8007d4a ; xTaskResumeAll + 66
        0x08007da2:    b10c        ..      CBZ      r4,0x8007da8 ; xTaskResumeAll + 160
        0x08007da4:    f7fef910    ....    BL       prvResetNextTaskUnblockTime ; 0x8005fc8
        0x08007da8:    4816        .H      LDR      r0,[pc,#88] ; [0x8007e04] = 0x2000003c
        0x08007daa:    6805        .h      LDR      r5,[r0,#0]
        0x08007dac:    b165        e.      CBZ      r5,0x8007dc8 ; xTaskResumeAll + 192
        0x08007dae:    bf00        ..      NOP      
        0x08007db0:    f7fffe18    ....    BL       xTaskIncrementTick ; 0x80079e4
        0x08007db4:    b110        ..      CBZ      r0,0x8007dbc ; xTaskResumeAll + 180
        0x08007db6:    2001        .       MOVS     r0,#1
        0x08007db8:    4911        .I      LDR      r1,[pc,#68] ; [0x8007e00] = 0x20000040
        0x08007dba:    6008        .`      STR      r0,[r1,#0]
        0x08007dbc:    1e6d        m.      SUBS     r5,r5,#1
        0x08007dbe:    2d00        .-      CMP      r5,#0
        0x08007dc0:    d1f6        ..      BNE      0x8007db0 ; xTaskResumeAll + 168
        0x08007dc2:    2000        .       MOVS     r0,#0
        0x08007dc4:    490f        .I      LDR      r1,[pc,#60] ; [0x8007e04] = 0x2000003c
        0x08007dc6:    6008        .`      STR      r0,[r1,#0]
        0x08007dc8:    480d        .H      LDR      r0,[pc,#52] ; [0x8007e00] = 0x20000040
        0x08007dca:    6800        .h      LDR      r0,[r0,#0]
        0x08007dcc:    b138        8.      CBZ      r0,0x8007dde ; xTaskResumeAll + 214
        0x08007dce:    2601        .&      MOVS     r6,#1
        0x08007dd0:    0730        0.      LSLS     r0,r6,#28
        0x08007dd2:    490d        .I      LDR      r1,[pc,#52] ; [0x8007e08] = 0xe000ed04
        0x08007dd4:    6008        .`      STR      r0,[r1,#0]
        0x08007dd6:    f3bf8f4f    ..O.    DSB      
        0x08007dda:    f3bf8f6f    ..o.    ISB      
        0x08007dde:    f7fefc7b    ..{.    BL       vPortExitCritical ; 0x80066d8
        0x08007de2:    4630        0F      MOV      r0,r6
        0x08007de4:    bd70        p.      POP      {r4-r6,pc}
    $d
        0x08007de6:    0000        ..      DCW    0
        0x08007de8:    20000054    T..     DCD    536870996
        0x08007dec:    2000002c    ,..     DCD    536870956
        0x08007df0:    20000a58    X..     DCD    536873560
        0x08007df4:    20000034    4..     DCD    536870964
        0x08007df8:    200005d0    ...     DCD    536872400
        0x08007dfc:    2000001c    ...     DCD    536870940
        0x08007e00:    20000040    @..     DCD    536870976
        0x08007e04:    2000003c    <..     DCD    536870972
        0x08007e08:    e000ed04    ....    DCD    3758157060
    $t
    i.xTimerCreateTimerTask
    xTimerCreateTimerTask
        0x08007e0c:    b510        ..      PUSH     {r4,lr}
        0x08007e0e:    b086        ..      SUB      sp,sp,#0x18
        0x08007e10:    2400        .$      MOVS     r4,#0
        0x08007e12:    f7fdfd6f    ..o.    BL       prvCheckForValidListAndQueue ; 0x80058f4
        0x08007e16:    4816        .H      LDR      r0,[pc,#88] ; [0x8007e70] = 0x20000060
        0x08007e18:    6800        .h      LDR      r0,[r0,#0]
        0x08007e1a:    b1d0        ..      CBZ      r0,0x8007e52 ; xTimerCreateTimerTask + 70
        0x08007e1c:    2000        .       MOVS     r0,#0
        0x08007e1e:    9005        ..      STR      r0,[sp,#0x14]
        0x08007e20:    9004        ..      STR      r0,[sp,#0x10]
        0x08007e22:    aa03        ..      ADD      r2,sp,#0xc
        0x08007e24:    a904        ..      ADD      r1,sp,#0x10
        0x08007e26:    a805        ..      ADD      r0,sp,#0x14
        0x08007e28:    f7fefbea    ....    BL       vApplicationGetTimerTaskMemory ; 0x8006600
        0x08007e2c:    2202        ."      MOVS     r2,#2
        0x08007e2e:    e9dd1004    ....    LDRD     r1,r0,[sp,#0x10]
        0x08007e32:    2300        .#      MOVS     r3,#0
        0x08007e34:    e9cd2100    ...!    STRD     r2,r1,[sp,#0]
        0x08007e38:    9002        ..      STR      r0,[sp,#8]
        0x08007e3a:    a10e        ..      ADR      r1,{pc}+0x3a ; 0x8007e74
        0x08007e3c:    480f        .H      LDR      r0,[pc,#60] ; [0x8007e7c] = 0x8006161
        0x08007e3e:    9a03        ..      LDR      r2,[sp,#0xc]
        0x08007e40:    f7fffd5e    ..^.    BL       xTaskCreateStatic ; 0x8007900
        0x08007e44:    490e        .I      LDR      r1,[pc,#56] ; [0x8007e80] = 0x20000064
        0x08007e46:    6008        .`      STR      r0,[r1,#0]
        0x08007e48:    4608        .F      MOV      r0,r1
        0x08007e4a:    6800        .h      LDR      r0,[r0,#0]
        0x08007e4c:    b100        ..      CBZ      r0,0x8007e50 ; xTimerCreateTimerTask + 68
        0x08007e4e:    2401        .$      MOVS     r4,#1
        0x08007e50:    bf00        ..      NOP      
        0x08007e52:    b954        T.      CBNZ     r4,0x8007e6a ; xTimerCreateTimerTask + 94
        0x08007e54:    bf00        ..      NOP      
        0x08007e56:    2050        P       MOVS     r0,#0x50
        0x08007e58:    f3808811    ....    MSR      BASEPRI,r0
        0x08007e5c:    f3bf8f4f    ..O.    DSB      
        0x08007e60:    f3bf8f6f    ..o.    ISB      
        0x08007e64:    bf00        ..      NOP      
        0x08007e66:    bf00        ..      NOP      
        0x08007e68:    e7fe        ..      B        0x8007e68 ; xTimerCreateTimerTask + 92
        0x08007e6a:    4620         F      MOV      r0,r4
        0x08007e6c:    b006        ..      ADD      sp,sp,#0x18
        0x08007e6e:    bd10        ..      POP      {r4,pc}
    $d
        0x08007e70:    20000060    `..     DCD    536871008
        0x08007e74:    20726d54    Tmr     DCD    544370004
        0x08007e78:    00637653    Svc.    DCD    6518355
        0x08007e7c:    08006161    aa..    DCD    134242657
        0x08007e80:    20000064    d..     DCD    536871012
    $t
    i.xTimerGenericCommand
    xTimerGenericCommand
        0x08007e84:    e92d47ff    -..G    PUSH     {r0-r10,lr}
        0x08007e88:    4604        .F      MOV      r4,r0
        0x08007e8a:    460d        .F      MOV      r5,r1
        0x08007e8c:    4616        .F      MOV      r6,r2
        0x08007e8e:    461f        .F      MOV      r7,r3
        0x08007e90:    f8dd8030    ..0.    LDR      r8,[sp,#0x30]
        0x08007e94:    f04f0900    O...    MOV      r9,#0
        0x08007e98:    b954        T.      CBNZ     r4,0x8007eb0 ; xTimerGenericCommand + 44
        0x08007e9a:    bf00        ..      NOP      
        0x08007e9c:    2050        P       MOVS     r0,#0x50
        0x08007e9e:    f3808811    ....    MSR      BASEPRI,r0
        0x08007ea2:    f3bf8f4f    ..O.    DSB      
        0x08007ea6:    f3bf8f6f    ..o.    ISB      
        0x08007eaa:    bf00        ..      NOP      
        0x08007eac:    bf00        ..      NOP      
        0x08007eae:    e7fe        ..      B        0x8007eae ; xTimerGenericCommand + 42
        0x08007eb0:    4814        .H      LDR      r0,[pc,#80] ; [0x8007f04] = 0x20000060
        0x08007eb2:    6800        .h      LDR      r0,[r0,#0]
        0x08007eb4:    b310        ..      CBZ      r0,0x8007efc ; xTimerGenericCommand + 120
        0x08007eb6:    9500        ..      STR      r5,[sp,#0]
        0x08007eb8:    9601        ..      STR      r6,[sp,#4]
        0x08007eba:    9402        ..      STR      r4,[sp,#8]
        0x08007ebc:    2d06        .-      CMP      r5,#6
        0x08007ebe:    da15        ..      BGE      0x8007eec ; xTimerGenericCommand + 104
        0x08007ec0:    f7fffd7a    ..z.    BL       xTaskGetSchedulerState ; 0x80079b8
        0x08007ec4:    2802        .(      CMP      r0,#2
        0x08007ec6:    d108        ..      BNE      0x8007eda ; xTimerGenericCommand + 86
        0x08007ec8:    2300        .#      MOVS     r3,#0
        0x08007eca:    4642        BF      MOV      r2,r8
        0x08007ecc:    4669        iF      MOV      r1,sp
        0x08007ece:    480d        .H      LDR      r0,[pc,#52] ; [0x8007f04] = 0x20000060
        0x08007ed0:    6800        .h      LDR      r0,[r0,#0]
        0x08007ed2:    f7fff94d    ..M.    BL       xQueueGenericSend ; 0x8007170
        0x08007ed6:    4681        .F      MOV      r9,r0
        0x08007ed8:    e010        ..      B        0x8007efc ; xTimerGenericCommand + 120
        0x08007eda:    2300        .#      MOVS     r3,#0
        0x08007edc:    461a        .F      MOV      r2,r3
        0x08007ede:    4669        iF      MOV      r1,sp
        0x08007ee0:    4808        .H      LDR      r0,[pc,#32] ; [0x8007f04] = 0x20000060
        0x08007ee2:    6800        .h      LDR      r0,[r0,#0]
        0x08007ee4:    f7fff944    ..D.    BL       xQueueGenericSend ; 0x8007170
        0x08007ee8:    4681        .F      MOV      r9,r0
        0x08007eea:    e007        ..      B        0x8007efc ; xTimerGenericCommand + 120
        0x08007eec:    2300        .#      MOVS     r3,#0
        0x08007eee:    463a        :F      MOV      r2,r7
        0x08007ef0:    4669        iF      MOV      r1,sp
        0x08007ef2:    4804        .H      LDR      r0,[pc,#16] ; [0x8007f04] = 0x20000060
        0x08007ef4:    6800        .h      LDR      r0,[r0,#0]
        0x08007ef6:    f7fffa0f    ....    BL       xQueueGenericSendFromISR ; 0x8007318
        0x08007efa:    4681        .F      MOV      r9,r0
        0x08007efc:    4648        HF      MOV      r0,r9
        0x08007efe:    b004        ..      ADD      sp,sp,#0x10
        0x08007f00:    e8bd87f0    ....    POP      {r4-r10,pc}
    $d
        0x08007f04:    20000060    `..     DCD    536871008
    $d.realdata
    .constdata
    defaultTask_attributes
        0x08007f08:    08008220     ...    DCD    134251040
        0x08007f0c:    00000000    ....    DCD    0
        0x08007f10:    00000000    ....    DCD    0
        0x08007f14:    00000000    ....    DCD    0
        0x08007f18:    00000000    ....    DCD    0
        0x08007f1c:    00000800    ....    DCD    2048
        0x08007f20:    00000018    ....    DCD    24
        0x08007f24:    00000000    ....    DCD    0
        0x08007f28:    00000000    ....    DCD    0
    .constdata
    AHBPrescTable
        0x08007f2c:    00000000    ....    DCD    0
        0x08007f30:    00000000    ....    DCD    0
        0x08007f34:    04030201    ....    DCD    67305985
        0x08007f38:    09080706    ....    DCD    151521030
    APBPrescTable
        0x08007f3c:    00000000    ....    DCD    0
        0x08007f40:    04030201    ....    DCD    67305985
    .constdata
    __FUNCTION__
        0x08007f44:    61666564    defa    DCD    1634100580
        0x08007f48:    5f746c75    ult_    DCD    1601465461
        0x08007f4c:    5f67736d    msg_    DCD    1600615277
        0x08007f50:    646e6168    hand    DCD    1684955496
        0x08007f54:    0072656c    ler.    DCD    7497068
    __FUNCTION__
        0x08007f58:    7474716d    mqtt    DCD    1953788269
        0x08007f5c:    6b63615f    _ack    DCD    1801675103
        0x08007f60:    6e61685f    _han    DCD    1851877471
        0x08007f64:    72656c64    dler    DCD    1919249508
        0x08007f68:    7365725f    _res    DCD    1936028255
        0x08007f6c:    00646e65    end.    DCD    6581861
    __FUNCTION__
        0x08007f70:    7474716d    mqtt    DCD    1953788269
        0x08007f74:    67736d5f    _msg    DCD    1735617887
        0x08007f78:    6e61685f    _han    DCD    1851877471
        0x08007f7c:    72656c64    dler    DCD    1919249508
        0x08007f80:    5f73695f    _is_    DCD    1601399135
        0x08007f84:    73697865    exis    DCD    1936291941
        0x08007f88:    0074        t.      DCW    116
    __FUNCTION__
        0x08007f8a:    716d        mq      DCW    29037
        0x08007f8c:    745f7474    tt_t    DCD    1952412788
        0x08007f90:    725f7972    ry_r    DCD    1918859634
        0x08007f94:    62757365    esub    DCD    1651864421
        0x08007f98:    69726373    scri    DCD    1769104243
        0x08007f9c:    6562        be      DCW    25954
        0x08007f9e:    00          .       DCB    0
    __FUNCTION__
        0x08007f9f:    6d          m       DCB    109
        0x08007fa0:    5f747471    qtt_    DCD    1601467505
        0x08007fa4:    5f797274    try_    DCD    1601794676
        0x08007fa8:    725f6f64    do_r    DCD    1918857060
        0x08007fac:    6e6f6365    econ    DCD    1852793701
        0x08007fb0:    7463656e    nect    DCD    1952671086
        0x08007fb4:    00          .       DCB    0
    __FUNCTION__
        0x08007fb5:    6d7174      mqt     DCB    109,113,116
        0x08007fb8:    69795f74    t_yi    DCD    1769561972
        0x08007fbc:    00646c65    eld.    DCD    6581349
    __FUNCTION__
        0x08007fc0:    7474716d    mqtt    DCD    1953788269
        0x08007fc4:    6569795f    _yie    DCD    1701411167
        0x08007fc8:    745f646c    ld_t    DCD    1952408684
        0x08007fcc:    61657268    hrea    DCD    1634038376
        0x08007fd0:    0064        d.      DCW    100
    __FUNCTION__
        0x08007fd2:    716d        mq      DCW    29037
        0x08007fd4:    635f7474    tt_c    DCD    1667200116
        0x08007fd8:    656e6e6f    onne    DCD    1701736047
        0x08007fdc:    775f7463    ct_w    DCD    2002744419
        0x08007fe0:    5f687469    ith_    DCD    1600681065
        0x08007fe4:    75736572    resu    DCD    1970496882
        0x08007fe8:    0073746c    lts.    DCD    7566444
        0x08007fec:    4354514d    MQTC    DCD    1129599309
        0x08007ff0:    00000000    ....    DCD    0
        0x08007ff4:    00000004    ....    DCD    4
        0x08007ff8:    00000000    ....    DCD    0
        0x08007ffc:    00000000    ....    DCD    0
        0x08008000:    00000000    ....    DCD    0
        0x08008004:    0001003c    <...    DCD    65596
        0x08008008:    5754514d    MQTW    DCD    1465143629
        0x0800800c:    00000000    ....    DCD    0
        0x08008010:    00000000    ....    DCD    0
        0x08008014:    00000000    ....    DCD    0
        0x08008018:    00000000    ....    DCD    0
        0x0800801c:    00000000    ....    DCD    0
        0x08008020:    00000000    ....    DCD    0
        0x08008024:    00000000    ....    DCD    0
        0x08008028:    00000000    ....    DCD    0
        0x0800802c:    00000000    ....    DCD    0
        0x08008030:    00000000    ....    DCD    0
        0x08008034:    00000000    ....    DCD    0
        0x08008038:    00000000    ....    DCD    0
        0x0800803c:    00000000    ....    DCD    0
        0x08008040:    00000000    ....    DCD    0
    __FUNCTION__
        0x08008044:    7474716d    mqtt    DCD    1953788269
        0x08008048:    6165725f    _rea    DCD    1634038367
        0x0800804c:    75625f64    d_bu    DCD    1969381220
        0x08008050:    616d5f66    f_ma    DCD    1634557798
        0x08008054:    636f6c6c    lloc    DCD    1668246636
        0x08008058:    00          .       DCB    0
    __FUNCTION__
        0x08008059:    6d7174      mqt     DCB    109,113,116
        0x0800805c:    72775f74    t_wr    DCD    1920425844
        0x08008060:    5f657469    ite_    DCD    1600484457
        0x08008064:    5f667562    buf_    DCD    1600550242
        0x08008068:    6c6c616d    mall    DCD    1819042157
        0x0800806c:    636f        oc      DCW    25455
        0x0800806e:    00          .       DCB    0
    __FUNCTION__
        0x0800806f:    6d          m       DCB    109
        0x08008070:    5f747471    qtt_    DCD    1601467505
        0x08008074:    74696e69    init    DCD    1953066601
        0x08008078:    00          .       DCB    0
    __FUNCTION__
        0x08008079:    6d7174      mqt     DCB    109,113,116
        0x0800807c:    65735f74    t_se    DCD    1702059892
        0x08008080:    6c635f74    t_cl    DCD    1818451828
        0x08008084:    746e6569    ient    DCD    1953391977
        0x08008088:    0064695f    _id.    DCD    6580575
    __FUNCTION__
        0x0800808c:    7474716d    mqtt    DCD    1953788269
        0x08008090:    7465735f    _set    DCD    1952805727
        0x08008094:    6573755f    _use    DCD    1702065503
        0x08008098:    616e5f72    r_na    DCD    1634623346
        0x0800809c:    656d        me      DCW    25965
        0x0800809e:    00          .       DCB    0
    __FUNCTION__
        0x0800809f:    6d          m       DCB    109
        0x080080a0:    5f747471    qtt_    DCD    1601467505
        0x080080a4:    5f746573    set_    DCD    1601463667
        0x080080a8:    73736170    pass    DCD    1936941424
        0x080080ac:    64726f77    word    DCD    1685221239
        0x080080b0:    00          .       DCB    0
    __FUNCTION__
        0x080080b1:    6d7174      mqt     DCB    109,113,116
        0x080080b4:    65735f74    t_se    DCD    1702059892
        0x080080b8:    6f685f74    t_ho    DCD    1869111156
        0x080080bc:    7473        st      DCW    29811
        0x080080be:    00          .       DCB    0
    __FUNCTION__
        0x080080bf:    6d          m       DCB    109
        0x080080c0:    5f747471    qtt_    DCD    1601467505
        0x080080c4:    5f746573    set_    DCD    1601463667
        0x080080c8:    74726f70    port    DCD    1953656688
        0x080080cc:    00          .       DCB    0
    __FUNCTION__
        0x080080cd:    6d7174      mqt     DCB    109,113,116
        0x080080d0:    65735f74    t_se    DCD    1702059892
        0x080080d4:    61635f74    t_ca    DCD    1633902452
        0x080080d8:    00          .       DCB    0
    __FUNCTION__
        0x080080d9:    6d7174      mqt     DCB    109,113,116
        0x080080dc:    65735f74    t_se    DCD    1702059892
        0x080080e0:    65725f74    t_re    DCD    1701994356
        0x080080e4:    6e6e6f63    conn    DCD    1852731235
        0x080080e8:    5f746365    ect_    DCD    1601463141
        0x080080ec:    61746164    data    DCD    1635017060
        0x080080f0:    00          .       DCB    0
    __FUNCTION__
        0x080080f1:    6d7174      mqt     DCB    109,113,116
        0x080080f4:    65735f74    t_se    DCD    1702059892
        0x080080f8:    656b5f74    t_ke    DCD    1701535604
        0x080080fc:    615f7065    ep_a    DCD    1633644645
        0x08008100:    6576696c    live    DCD    1702259052
        0x08008104:    746e695f    _int    DCD    1953392991
        0x08008108:    61767265    erva    DCD    1635152485
        0x0800810c:    006c        l.      DCW    108
    __FUNCTION__
        0x0800810e:    716d        mq      DCW    29037
        0x08008110:    735f7474    tt_s    DCD    1935635572
        0x08008114:    775f7465    et_w    DCD    2002744421
        0x08008118:    5f6c6c69    ill_    DCD    1600941161
        0x0800811c:    67616c66    flag    DCD    1734437990
        0x08008120:    00          .       DCB    0
    __FUNCTION__
        0x08008121:    6d7174      mqt     DCB    109,113,116
        0x08008124:    65735f74    t_se    DCD    1702059892
        0x08008128:    6c635f74    t_cl    DCD    1818451828
        0x0800812c:    5f6e6165    ean_    DCD    1601069413
        0x08008130:    73736573    sess    DCD    1936942451
        0x08008134:    006e6f69    ion.    DCD    7237481
    __FUNCTION__
        0x08008138:    7474716d    mqtt    DCD    1953788269
        0x0800813c:    7465735f    _set    DCD    1952805727
        0x08008140:    7265765f    _ver    DCD    1919252063
        0x08008144:    6e6f6973    sion    DCD    1852795251
        0x08008148:    00          .       DCB    0
    __FUNCTION__
        0x08008149:    6d7174      mqt     DCB    109,113,116
        0x0800814c:    65735f74    t_se    DCD    1702059892
        0x08008150:    6d635f74    t_cm    DCD    1835229044
        0x08008154:    69745f64    d_ti    DCD    1769234276
        0x08008158:    756f656d    meou    DCD    1970234733
        0x0800815c:    0074        t.      DCW    116
    __FUNCTION__
        0x0800815e:    716d        mq      DCW    29037
        0x08008160:    735f7474    tt_s    DCD    1935635572
        0x08008164:    725f7465    et_r    DCD    1918858341
        0x08008168:    6e6f6365    econ    DCD    1852793701
        0x0800816c:    7463656e    nect    DCD    1952671086
        0x08008170:    7972745f    _try    DCD    2037544031
        0x08008174:    7275645f    _dur    DCD    1920296031
        0x08008178:    6f697461    atio    DCD    1869182049
        0x0800817c:    006e        n.      DCW    110
    __FUNCTION__
        0x0800817e:    716d        mq      DCW    29037
        0x08008180:    735f7474    tt_s    DCD    1935635572
        0x08008184:    725f7465    et_r    DCD    1918858341
        0x08008188:    6e6f6365    econ    DCD    1852793701
        0x0800818c:    7463656e    nect    DCD    1952671086
        0x08008190:    6e61685f    _han    DCD    1851877471
        0x08008194:    72656c64    dler    DCD    1919249508
        0x08008198:    00          .       DCB    0
    __FUNCTION__
        0x08008199:    6d7174      mqt     DCB    109,113,116
        0x0800819c:    65735f74    t_se    DCD    1702059892
        0x080081a0:    6e695f74    t_in    DCD    1852399476
        0x080081a4:    63726574    terc    DCD    1668441460
        0x080081a8:    6f747065    epto    DCD    1869901925
        0x080081ac:    61685f72    r_ha    DCD    1634230130
        0x080081b0:    656c646e    ndle    DCD    1701602414
        0x080081b4:    0072        r.      DCW    114
    __FUNCTION__
        0x080081b6:    716d        mq      DCW    29037
        0x080081b8:    6b5f7474    tt_k    DCD    1801417844
        0x080081bc:    5f706565    eep_    DCD    1601201509
        0x080081c0:    76696c61    aliv    DCD    1986620513
        0x080081c4:    0065        e.      DCW    101
    __FUNCTION__
        0x080081c6:    716d        mq      DCW    29037
        0x080081c8:    725f7474    tt_r    DCD    1918858356
        0x080081cc:    61656c65    elea    DCD    1634036837
        0x080081d0:    6573        se      DCW    25971
        0x080081d2:    00          .       DCB    0
    __FUNCTION__
        0x080081d3:    6d          m       DCB    109
        0x080081d4:    5f747471    qtt_    DCD    1601467505
        0x080081d8:    6c627570    publ    DCD    1818391920
        0x080081dc:    00687369    ish.    DCD    6845289
    __FUNCTION__
        0x080081e0:    7474716d    mqtt    DCD    1953788269
        0x080081e4:    73696c5f    _lis    DCD    1936288863
        0x080081e8:    75735f74    t_su    DCD    1970495348
        0x080081ec:    72637362    bscr    DCD    1919120226
        0x080081f0:    5f656269    ibe_    DCD    1600479849
        0x080081f4:    69706f74    topi    DCD    1768976244
        0x080081f8:    0063        c.      DCW    99
    __FUNCTION__
        0x080081fa:    716d        mq      DCW    29037
        0x080081fc:    735f7474    tt_s    DCD    1935635572
        0x08008200:    775f7465    et_w    DCD    2002744421
        0x08008204:    5f6c6c69    ill_    DCD    1600941161
        0x08008208:    6974706f    opti    DCD    1769238639
        0x0800820c:    00736e6f    ons.    DCD    7564911
    .constdata
    __FUNCTION__
        0x08008210:    69706f74    topi    DCD    1768976244
        0x08008214:    685f3163    c1_h    DCD    1751069027
        0x08008218:    6c646e61    andl    DCD    1818521185
        0x0800821c:    00007265    er..    DCD    29285
    .conststring
        0x08008220:    61666564    defa    DCD    1634100580
        0x08008224:    54746c75    ultT    DCD    1416916085
        0x08008228:    006b7361    ask.    DCD    7041889
    .conststring
        0x0800822c:    20656874    the     DCD    543516788
        0x08008230:    65696c63    clie    DCD    1701407843
        0x08008234:    7220746e    nt r    DCD    1914729582
        0x08008238:    20646165    ead     DCD    543449445
        0x0800823c:    66667562    buff    DCD    1717990754
        0x08008240:    69207265    er i    DCD    1763734117
        0x08008244:    6f742073    s to    DCD    1869881459
        0x08008248:    6873206f    o sh    DCD    1752375407
        0x0800824c:    2c74726f    ort,    DCD    745828975
        0x08008250:    656c7020     ple    DCD    1701605408
        0x08008254:    20657361    ase     DCD    543519585
        0x08008258:    6c6c6163    call    DCD    1819042147
        0x0800825c:    74716d20     mqt    DCD    1953590560
        0x08008260:    65735f74    t_se    DCD    1702059892
        0x08008264:    65725f74    t_re    DCD    1701994356
        0x08008268:    625f6461    ad_b    DCD    1650418785
        0x0800826c:    735f6675    uf_s    DCD    1935631989
        0x08008270:    28657a69    ize(    DCD    677739113
        0x08008274:    6f742029    ) to    DCD    1869881385
        0x08008278:    73657220     res    DCD    1936028192
        0x0800827c:    74207465    et t    DCD    1948284005
        0x08008280:    62206568    he b    DCD    1646290280
        0x08008284:    65666675    uffe    DCD    1701209717
        0x08008288:    69732072    r si    DCD    1769152626
        0x0800828c:    0000657a    ze..    DCD    25978
        0x08008290:    253a7325    %s:%    DCD    624587557
        0x08008294:    73252064    d %s    DCD    1931812964
        0x08008298:    2e2e2928    ()..    DCD    774777128
        0x0800829c:    67736d2e    .msg    DCD    1735617838
        0x080082a0:    6e61685f    _han    DCD    1851877471
        0x080082a4:    72656c64    dler    DCD    1919249508
        0x080082a8:    6f743e2d    ->to    DCD    1869889069
        0x080082ac:    5f636970    pic_    DCD    1600350576
        0x080082b0:    746c6966    filt    DCD    1953261926
        0x080082b4:    203a7265    er:     DCD    540701285
        0x080082b8:    202c7325    %s,     DCD    539783973
        0x080082bc:    646e6168    hand    DCD    1684955496
        0x080082c0:    2d72656c    ler-    DCD    762471788
        0x080082c4:    706f743e    >top    DCD    1886352446
        0x080082c8:    665f6369    ic_f    DCD    1717527401
        0x080082cc:    65746c69    ilte    DCD    1702128745
        0x080082d0:    25203a72    r: %    DCD    622869106
        0x080082d4:    00000073    s...    DCD    115
    .conststring
        0x080082d8:    2d2d2d2d    ----    DCD    757935405
        0x080082dc:    2d2d2d2d    ----    DCD    757935405
        0x080082e0:    2d2d2d2d    ----    DCD    757935405
        0x080082e4:    2d2d2d2d    ----    DCD    757935405
        0x080082e8:    2d2d2d2d    ----    DCD    757935405
        0x080082ec:    2d2d2d2d    ----    DCD    757935405
        0x080082f0:    2d2d2d2d    ----    DCD    757935405
        0x080082f4:    2d2d2d2d    ----    DCD    757935405
        0x080082f8:    2d2d2d2d    ----    DCD    757935405
        0x080082fc:    2d2d2d2d    ----    DCD    757935405
        0x08008300:    2d2d2d2d    ----    DCD    757935405
        0x08008304:    2d2d2d2d    ----    DCD    757935405
        0x08008308:    2d2d2d2d    ----    DCD    757935405
        0x0800830c:    2d2d2d2d    ----    DCD    757935405
        0x08008310:    2d2d2d2d    ----    DCD    757935405
        0x08008314:    2d2d2d2d    ----    DCD    757935405
        0x08008318:    2d2d2d2d    ----    DCD    757935405
        0x0800831c:    2d2d2d2d    ----    DCD    757935405
        0x08008320:    2d2d2d2d    ----    DCD    757935405
        0x08008324:    2d2d2d2d    ----    DCD    757935405
        0x08008328:    002d2d2d    ---.    DCD    2960685
    Region$$Table$$Base
        0x0800832c:    0800834c    L...    DCD    134251340
        0x08008330:    20000000    ...     DCD    536870912
        0x08008334:    000000b8    ....    DCD    184
        0x08008338:    08002df6    .-..    DCD    134229494
        0x0800833c:    08008404    ....    DCD    134251524
        0x08008340:    200000b8    ...     DCD    536871096
        0x08008344:    0000be20     ...    DCD    48672
        0x08008348:    08002e06    ....    DCD    134229510
    Region$$Table$$Limit

** Section #2 'RW_IRAM1' (SHT_PROGBITS) [SHF_ALLOC + SHF_WRITE]
    Size   : 184 bytes (alignment 4)
    Address: 0x20000000


** Section #3 'RW_IRAM1' (SHT_NOBITS) [SHF_ALLOC + SHF_WRITE]
    Size   : 48672 bytes (alignment 8)
    Address: 0x200000b8


** Section #4 '.debug_abbrev' (SHT_PROGBITS)
    Size   : 1476 bytes


** Section #5 '.debug_frame' (SHT_PROGBITS)
    Size   : 9580 bytes


** Section #6 '.debug_info' (SHT_PROGBITS)
    Size   : 170112 bytes


** Section #7 '.debug_line' (SHT_PROGBITS)
    Size   : 68556 bytes


** Section #8 '.debug_loc' (SHT_PROGBITS)
    Size   : 29880 bytes


** Section #9 '.debug_macinfo' (SHT_PROGBITS)
    Size   : 551296 bytes


** Section #10 '.debug_pubnames' (SHT_PROGBITS)
    Size   : 9945 bytes


** Section #11 '.symtab' (SHT_SYMTAB)
    Size   : 22672 bytes (alignment 4)
    String table #12 '.strtab'
    Last local symbol no. 1035


** Section #12 '.strtab' (SHT_STRTAB)
    Size   : 21580 bytes


** Section #13 '.note' (SHT_NOTE)
    Size   : 28 bytes (alignment 4)


** Section #14 '.comment' (SHT_PROGBITS)
    Size   : 91428 bytes


** Section #15 '.shstrtab' (SHT_STRTAB)
    Size   : 156 bytes


address     size       variable name                            type
0x2000b6d0  0x408      uart3_buffer                             ring_buffer
0x2000b6d0  0x4        uart3_buffer.pW                          volatile unsigned int
0x2000b6d4  0x4        uart3_buffer.pR                          volatile unsigned int
0x2000b6d8  0x400      uart3_buffer.buffer                      array[1024] of unsigned char

address     size       variable name                            type
0x200000ac  0x4        uart_recv_mutex                          platform_mutex_t
0x200000ac  0x4        uart_recv_mutex.mutex                    SemaphoreHandle_t

address     size       variable name                            type
0x200000a4  0x4        at_packet_mutex                          platform_mutex_t
0x200000a4  0x4        at_packet_mutex.mutex                    SemaphoreHandle_t

address     size       variable name                            type
0x200000a0  0x4        at_ret_mutex                             platform_mutex_t
0x200000a0  0x4        at_ret_mutex.mutex                       SemaphoreHandle_t

address     size       variable name                            type
0x2000b66c  0x64       g_at_resp                                array[100] of char

address     size       variable name                            type
0x200000a8  0x4        g_at_status                              int

address     size       variable name                            type
0x2000b264  0x408      g_packet_buffer                          ring_buffer
0x2000b264  0x4        g_packet_buffer.pW                       volatile unsigned int
0x2000b268  0x4        g_packet_buffer.pR                       volatile unsigned int
0x2000b26c  0x400      g_packet_buffer.buffer                   array[1024] of unsigned char

address     size       variable name                            type
0x20000098  0x4        bufptr                                   pointer to unsigned char

address     size       variable name                            type
0x20000094  0x4        last_seed                                unsigned int

address     size       variable name                            type
0x2000008c  0x1        ucMaxSysCallPriority                     uint8_t

address     size       variable name                            type
0x20000090  0x4        ulMaxPRIGROUPValue                       uint32_t

address     size       variable name                            type
0x20000088  0x4        uxCriticalNesting                        UBaseType_t

address     size       variable name                            type
0x20000078  0x4        pxEnd                                    pointer to BlockLink_t

address     size       variable name                            type
0x20001264  0xa000     ucHeap                                   array[40960] of uint8_t

address     size       variable name                            type
0x20000084  0x4        xBlockAllocatedBit                       size_t

address     size       variable name                            type
0x2000007c  0x4        xFreeBytesRemaining                      size_t

address     size       variable name                            type
0x20000080  0x4        xMinimumEverFreeBytesRemaining           size_t

address     size       variable name                            type
0x20000070  0x8        xStart                                   BlockLink_t
0x20000070  0x4        xStart.pxNextFreeBlock                   pointer to A_BLOCK_LINK
0x20000074  0x4        xStart.xBlockSize                        size_t

address     size       variable name                            type
0x20000c08  0x200      Idle_Stack                               array[128] of StackType_t

address     size       variable name                            type
0x20000bac  0x5c       Idle_TCB                                 StaticTask_t
0x20000bac  0x4        Idle_TCB.pxDummy1                        pointer to unknown Type 
0x20000bb0  0x28       Idle_TCB.xDummy3                         array[2] of StaticListItem_t
0x20000bd8  0x4        Idle_TCB.uxDummy5                        UBaseType_t
0x20000bdc  0x4        Idle_TCB.pxDummy6                        pointer to unknown Type 
0x20000be0  0x10       Idle_TCB.ucDummy7                        array[16] of uint8_t
0x20000bf0  0x8        Idle_TCB.uxDummy10                       array[2] of UBaseType_t
0x20000bf8  0x8        Idle_TCB.uxDummy12                       array[2] of UBaseType_t
0x20000c00  0x4        Idle_TCB.ulDummy18                       uint32_t
0x20000c04  0x1        Idle_TCB.ucDummy19                       uint8_t
0x20000c05  0x1        Idle_TCB.uxDummy20                       uint8_t

address     size       variable name                            type
0x2000006c  0x4        KernelState                              osKernelState_t

address     size       variable name                            type
0x20000e64  0x400      Timer_Stack                              array[256] of StackType_t

address     size       variable name                            type
0x20000e08  0x5c       Timer_TCB                                StaticTask_t
0x20000e08  0x4        Timer_TCB.pxDummy1                       pointer to unknown Type 
0x20000e0c  0x28       Timer_TCB.xDummy3                        array[2] of StaticListItem_t
0x20000e34  0x4        Timer_TCB.uxDummy5                       UBaseType_t
0x20000e38  0x4        Timer_TCB.pxDummy6                       pointer to unknown Type 
0x20000e3c  0x10       Timer_TCB.ucDummy7                       array[16] of uint8_t
0x20000e4c  0x8        Timer_TCB.uxDummy10                      array[2] of UBaseType_t
0x20000e54  0x8        Timer_TCB.uxDummy12                      array[2] of UBaseType_t
0x20000e5c  0x4        Timer_TCB.ulDummy18                      uint32_t
0x20000e60  0x1        Timer_TCB.ucDummy19                      uint8_t
0x20000e61  0x1        Timer_TCB.uxDummy20                      uint8_t

address     size       variable name                            type
0x20000058  0x4        pxCurrentTimerList                       pointer to List_t

address     size       variable name                            type
0x2000005c  0x4        pxOverflowTimerList                      pointer to List_t

address     size       variable name                            type
0x20000a94  0x14       xActiveTimerList1                        List_t
0x20000a94  0x4        xActiveTimerList1.uxNumberOfItems        volatile UBaseType_t
0x20000a98  0x4        xActiveTimerList1.pxIndex                pointer to ListItem_t
0x20000a9c  0xc        xActiveTimerList1.xListEnd               MiniListItem_t
0x20000a9c  0x4        xActiveTimerList1.xListEnd.xItemValue    TickType_t
0x20000aa0  0x4        xActiveTimerList1.xListEnd.pxNext        pointer to xLIST_ITEM
0x20000aa4  0x4        xActiveTimerList1.xListEnd.pxPrevious    pointer to xLIST_ITEM

address     size       variable name                            type
0x20000aa8  0x14       xActiveTimerList2                        List_t
0x20000aa8  0x4        xActiveTimerList2.uxNumberOfItems        volatile UBaseType_t
0x20000aac  0x4        xActiveTimerList2.pxIndex                pointer to ListItem_t
0x20000ab0  0xc        xActiveTimerList2.xListEnd               MiniListItem_t
0x20000ab0  0x4        xActiveTimerList2.xListEnd.xItemValue    TickType_t
0x20000ab4  0x4        xActiveTimerList2.xListEnd.pxNext        pointer to xLIST_ITEM
0x20000ab8  0x4        xActiveTimerList2.xListEnd.pxPrevious    pointer to xLIST_ITEM

address     size       variable name                            type
0x20000060  0x4        xTimerQueue                              QueueHandle_t

address     size       variable name                            type
0x20000064  0x4        xTimerTaskHandle                         TaskHandle_t

address     size       variable name                            type
0x2000001c  0x4        pxCurrentTCB                             volatile pointer to TCB_t

address     size       variable name                            type
0x20000020  0x4        pxDelayedTaskList                        volatile pointer to List_t

address     size       variable name                            type
0x20000024  0x4        pxOverflowDelayedTaskList                volatile pointer to List_t

address     size       variable name                            type
0x200005d0  0x460      pxReadyTasksLists                        array[56] of List_t

address     size       variable name                            type
0x2000002c  0x4        uxCurrentNumberOfTasks                   volatile UBaseType_t

address     size       variable name                            type
0x20000028  0x4        uxDeletedTasksWaitingCleanUp             volatile UBaseType_t

address     size       variable name                            type
0x2000003c  0x4        uxPendedTicks                            volatile UBaseType_t

address     size       variable name                            type
0x20000054  0x4        uxSchedulerSuspended                     volatile UBaseType_t

address     size       variable name                            type
0x20000048  0x4        uxTaskNumber                             UBaseType_t

address     size       variable name                            type
0x20000034  0x4        uxTopReadyPriority                       volatile UBaseType_t

address     size       variable name                            type
0x20000a30  0x14       xDelayedTaskList1                        List_t
0x20000a30  0x4        xDelayedTaskList1.uxNumberOfItems        volatile UBaseType_t
0x20000a34  0x4        xDelayedTaskList1.pxIndex                pointer to ListItem_t
0x20000a38  0xc        xDelayedTaskList1.xListEnd               MiniListItem_t
0x20000a38  0x4        xDelayedTaskList1.xListEnd.xItemValue    TickType_t
0x20000a3c  0x4        xDelayedTaskList1.xListEnd.pxNext        pointer to xLIST_ITEM
0x20000a40  0x4        xDelayedTaskList1.xListEnd.pxPrevious    pointer to xLIST_ITEM

address     size       variable name                            type
0x20000a44  0x14       xDelayedTaskList2                        List_t
0x20000a44  0x4        xDelayedTaskList2.uxNumberOfItems        volatile UBaseType_t
0x20000a48  0x4        xDelayedTaskList2.pxIndex                pointer to ListItem_t
0x20000a4c  0xc        xDelayedTaskList2.xListEnd               MiniListItem_t
0x20000a4c  0x4        xDelayedTaskList2.xListEnd.xItemValue    TickType_t
0x20000a50  0x4        xDelayedTaskList2.xListEnd.pxNext        pointer to xLIST_ITEM
0x20000a54  0x4        xDelayedTaskList2.xListEnd.pxPrevious    pointer to xLIST_ITEM

address     size       variable name                            type
0x20000050  0x4        xIdleTaskHandle                          TaskHandle_t

address     size       variable name                            type
0x2000004c  0x4        xNextTaskUnblockTime                     volatile TickType_t

address     size       variable name                            type
0x20000044  0x4        xNumOfOverflows                          volatile BaseType_t

address     size       variable name                            type
0x20000a58  0x14       xPendingReadyList                        List_t
0x20000a58  0x4        xPendingReadyList.uxNumberOfItems        volatile UBaseType_t
0x20000a5c  0x4        xPendingReadyList.pxIndex                pointer to ListItem_t
0x20000a60  0xc        xPendingReadyList.xListEnd               MiniListItem_t
0x20000a60  0x4        xPendingReadyList.xListEnd.xItemValue    TickType_t
0x20000a64  0x4        xPendingReadyList.xListEnd.pxNext        pointer to xLIST_ITEM
0x20000a68  0x4        xPendingReadyList.xListEnd.pxPrevious    pointer to xLIST_ITEM

address     size       variable name                            type
0x20000038  0x4        xSchedulerRunning                        volatile BaseType_t

address     size       variable name                            type
0x20000a80  0x14       xSuspendedTaskList                       List_t
0x20000a80  0x4        xSuspendedTaskList.uxNumberOfItems       volatile UBaseType_t
0x20000a84  0x4        xSuspendedTaskList.pxIndex               pointer to ListItem_t
0x20000a88  0xc        xSuspendedTaskList.xListEnd              MiniListItem_t
0x20000a88  0x4        xSuspendedTaskList.xListEnd.xItemValue   TickType_t
0x20000a8c  0x4        xSuspendedTaskList.xListEnd.pxNext       pointer to xLIST_ITEM
0x20000a90  0x4        xSuspendedTaskList.xListEnd.pxPrevious   pointer to xLIST_ITEM

address     size       variable name                            type
0x20000a6c  0x14       xTasksWaitingTermination                 List_t
0x20000a6c  0x4        xTasksWaitingTermination.uxNumberOfItems volatile UBaseType_t
0x20000a70  0x4        xTasksWaitingTermination.pxIndex         pointer to ListItem_t
0x20000a74  0xc        xTasksWaitingTermination.xListEnd        MiniListItem_t
0x20000a74  0x4        xTasksWaitingTermination.xListEnd.xItemValue TickType_t
0x20000a78  0x4        xTasksWaitingTermination.xListEnd.pxNext pointer to xLIST_ITEM
0x20000a7c  0x4        xTasksWaitingTermination.xListEnd.pxPrevious pointer to xLIST_ITEM

address     size       variable name                            type
0x20000030  0x4        xTickCount                               volatile TickType_t

address     size       variable name                            type
0x20000040  0x4        xYieldPending                            volatile BaseType_t

address     size       variable name                            type
0x20000590  0x40       xQueueRegistry                           array[8] of QueueRegistryItem_t

address     size       variable name                            type
0x20000017  0x1        key1_val                                 volatile uint8_t

address     size       variable name                            type
0x20000018  0x1        key2_val                                 volatile uint8_t

address     size       variable name                            type
0x20000016  0x1        rx_data                                  volatile uint8_t

address     size       variable name                            type
0x20000015  0x1        rxcplt_flag                              volatile uint8_t

address     size       variable name                            type
0x20000014  0x1        txcplt_flag                              volatile uint8_t

address     size       variable name                            type
0x08007f2c  0x10       AHBPrescTable                            array[16] of const uint8_t

address     size       variable name                            type
0x08007f3c  0x8        APBPrescTable                            array[8] of const uint8_t

address     size       variable name                            type
0x20000010  0x4        SystemCoreClock                          uint32_t

address     size       variable name                            type
0x20000004  0x4        uwTick                                   volatile uint32_t

address     size       variable name                            type
0x2000000c  0x1        uwTickFreq                               HAL_TickFreqTypeDef

address     size       variable name                            type
0x20000008  0x4        uwTickPrio                               uint32_t

address     size       variable name                            type
0x20000548  0x48       htim8                                    TIM_HandleTypeDef
0x20000548  0x4        htim8.Instance                           pointer to TIM_TypeDef
0x2000054c  0x18       htim8.Init                               TIM_Base_InitTypeDef
0x2000054c  0x4        htim8.Init.Prescaler                     uint32_t
0x20000550  0x4        htim8.Init.CounterMode                   uint32_t
0x20000554  0x4        htim8.Init.Period                        uint32_t
0x20000558  0x4        htim8.Init.ClockDivision                 uint32_t
0x2000055c  0x4        htim8.Init.RepetitionCounter             uint32_t
0x20000560  0x4        htim8.Init.AutoReloadPreload             uint32_t
0x20000564  0x1      * htim8.Channel                            HAL_TIM_ActiveChannel
0x20000568  0x1c       htim8.hdma                               array[7] of pointer to DMA_HandleTypeDef
0x20000584  0x1        htim8.Lock                               HAL_LockTypeDef
0x20000585  0x1        htim8.State                              volatile HAL_TIM_StateTypeDef
0x20000586  0x4        htim8.ChannelState                       array[4] of volatile HAL_TIM_ChannelStateTypeDef
0x2000058a  0x4        htim8.ChannelNState                      array[4] of volatile HAL_TIM_ChannelStateTypeDef
0x2000058e  0x1        htim8.DMABurstState                      volatile HAL_TIM_DMABurstStateTypeDef

address     size       variable name                            type
0x200004c0  0x44       huart1                                   UART_HandleTypeDef
0x200004c0  0x4        huart1.Instance                          pointer to USART_TypeDef
0x200004c4  0x1c       huart1.Init                              UART_InitTypeDef
0x200004c4  0x4        huart1.Init.BaudRate                     uint32_t
0x200004c8  0x4        huart1.Init.WordLength                   uint32_t
0x200004cc  0x4        huart1.Init.StopBits                     uint32_t
0x200004d0  0x4        huart1.Init.Parity                       uint32_t
0x200004d4  0x4        huart1.Init.Mode                         uint32_t
0x200004d8  0x4        huart1.Init.HwFlowCtl                    uint32_t
0x200004dc  0x4        huart1.Init.OverSampling                 uint32_t
0x200004e0  0x4        huart1.pTxBuffPtr                        pointer to uint8_t
0x200004e4  0x2        huart1.TxXferSize                        uint16_t
0x200004e6  0x2        huart1.TxXferCount                       volatile uint16_t
0x200004e8  0x4        huart1.pRxBuffPtr                        pointer to uint8_t
0x200004ec  0x2        huart1.RxXferSize                        uint16_t
0x200004ee  0x2        huart1.RxXferCount                       volatile uint16_t
0x200004f0  0x4        huart1.ReceptionType                     volatile HAL_UART_RxTypeTypeDef
0x200004f4  0x4        huart1.hdmatx                            pointer to DMA_HandleTypeDef
0x200004f8  0x4        huart1.hdmarx                            pointer to DMA_HandleTypeDef
0x200004fc  0x1        huart1.Lock                              HAL_LockTypeDef
0x200004fd  0x1        huart1.gState                            volatile HAL_UART_StateTypeDef
0x200004fe  0x1      * huart1.RxState                           volatile HAL_UART_StateTypeDef
0x20000500  0x4        huart1.ErrorCode                         volatile uint32_t

address     size       variable name                            type
0x20000504  0x44       huart3                                   UART_HandleTypeDef
0x20000504  0x4        huart3.Instance                          pointer to USART_TypeDef
0x20000508  0x1c       huart3.Init                              UART_InitTypeDef
0x20000508  0x4        huart3.Init.BaudRate                     uint32_t
0x2000050c  0x4        huart3.Init.WordLength                   uint32_t
0x20000510  0x4        huart3.Init.StopBits                     uint32_t
0x20000514  0x4        huart3.Init.Parity                       uint32_t
0x20000518  0x4        huart3.Init.Mode                         uint32_t
0x2000051c  0x4        huart3.Init.HwFlowCtl                    uint32_t
0x20000520  0x4        huart3.Init.OverSampling                 uint32_t
0x20000524  0x4        huart3.pTxBuffPtr                        pointer to uint8_t
0x20000528  0x2        huart3.TxXferSize                        uint16_t
0x2000052a  0x2        huart3.TxXferCount                       volatile uint16_t
0x2000052c  0x4        huart3.pRxBuffPtr                        pointer to uint8_t
0x20000530  0x2        huart3.RxXferSize                        uint16_t
0x20000532  0x2        huart3.RxXferCount                       volatile uint16_t
0x20000534  0x4        huart3.ReceptionType                     volatile HAL_UART_RxTypeTypeDef
0x20000538  0x4        huart3.hdmatx                            pointer to DMA_HandleTypeDef
0x2000053c  0x4        huart3.hdmarx                            pointer to DMA_HandleTypeDef
0x20000540  0x1        huart3.Lock                              HAL_LockTypeDef
0x20000541  0x1        huart3.gState                            volatile HAL_UART_StateTypeDef
0x20000542  0x1      * huart3.RxState                           volatile HAL_UART_StateTypeDef
0x20000544  0x4        huart3.ErrorCode                         volatile uint32_t

address     size       variable name                            type
0x20000000  0x4        defaultTaskHandle                        osThreadId_t

address     size       variable name                            type
0x08007f08  0x24       defaultTask_attributes                   const osThreadAttr_t
0x08007f08  0x4        defaultTask_attributes.name              pointer to const char
0x08007f0c  0x4        defaultTask_attributes.attr_bits         uint32_t
0x08007f10  0x4        defaultTask_attributes.cb_mem            pointer to unknown Type 
0x08007f14  0x4        defaultTask_attributes.cb_size           uint32_t
0x08007f18  0x4        defaultTask_attributes.stack_mem         pointer to unknown Type 
0x08007f1c  0x4        defaultTask_attributes.stack_size        uint32_t
0x08007f20  0x4        defaultTask_attributes.priority          osPriority_t
0x08007f24  0x4        defaultTask_attributes.tz_module         TZ_ModuleId_t
0x08007f28  0x4        defaultTask_attributes.reserved          uint32_t

address     size       variable name                            type
0x200000b8  0x408      test_buffer                              ring_buffer
0x200000b8  0x4        test_buffer.pW                           volatile unsigned int
0x200000bc  0x4        test_buffer.pR                           volatile unsigned int
0x200000c0  0x400      test_buffer.buffer                       array[1024] of unsigned char

